                                      1 ;--------------------------------------------------------
                                      2 ; File Created by SDCC : free open source ISO C Compiler
                                      3 ; Version 4.5.1 #15267 (MINGW32)
                                      4 ;--------------------------------------------------------
                                      5 	.module kaijugaiden
                                      6 	
                                      7 ;--------------------------------------------------------
                                      8 ; Public variables in this module
                                      9 ;--------------------------------------------------------
                                     10 	.globl _main
                                     11 	.globl _set_bkg_palette
                                     12 	.globl _set_sprite_data
                                     13 	.globl _set_bkg_tile_xy
                                     14 	.globl _set_bkg_data
                                     15 	.globl _display_off
                                     16 	.globl _wait_vbl_done
                                     17 	.globl _joypad
                                     18 	.globl _memset
                                     19 ;--------------------------------------------------------
                                     20 ; special function registers
                                     21 ;--------------------------------------------------------
                                     22 	.area _HRAM
                                     23 ;--------------------------------------------------------
                                     24 ; ram data
                                     25 ;--------------------------------------------------------
                                     26 	.area _DATA
    00000000                         27 _gs:
    00000000                         28 	.ds 136
                                     29 ;--------------------------------------------------------
                                     30 ; ram data
                                     31 ;--------------------------------------------------------
                                     32 	.area _INITIALIZED
    00000000                         33 __joy_prev:
    00000000                         34 	.ds 1
    00000001                         35 __joy_cur:
    00000001                         36 	.ds 1
                                     37 ;--------------------------------------------------------
                                     38 ; absolute external ram data
                                     39 ;--------------------------------------------------------
                                     40 	.area _DABS (ABS)
                                     41 ;--------------------------------------------------------
                                     42 ; global & static initialisations
                                     43 ;--------------------------------------------------------
                                     44 	.area _HOME
                                     45 	.area _GSINIT
                                     46 	.area _GSFINAL
                                     47 	.area _GSINIT
                                     48 ;--------------------------------------------------------
                                     49 ; Home
                                     50 ;--------------------------------------------------------
                                     51 	.area _HOME
                                     52 	.area _HOME
                                     53 ;--------------------------------------------------------
                                     54 ; code
                                     55 ;--------------------------------------------------------
                                     56 	.area _CODE
                                     57 ;kaijugaiden.c:132: static inline void plat_poll_input(void) {
                                     58 ;	---------------------------------
                                     59 ; Function plat_poll_input
                                     60 ; ---------------------------------
    00000000                         61 _plat_poll_input:
                                     62 ;kaijugaiden.c:133: _joy_prev = _joy_cur;
    00000000 FAr01r00         [16]   63 	ld	a, (#__joy_cur)
    00000003 EAr00r00         [16]   64 	ld	(#__joy_prev),a
                                     65 ;kaijugaiden.c:134: _joy_cur  = joypad();
    00000006 CDr00r00         [24]   66 	call	_joypad
    00000009 EAr01r00         [16]   67 	ld	(#__joy_cur),a
                                     68 ;kaijugaiden.c:135: }
    0000000C C9               [16]   69 	ret
                                     70 ;kaijugaiden.c:136: static inline u8 plat_held(u8 mask)  { return (_joy_cur  & mask) ? 1 : 0; }
                                     71 ;	---------------------------------
                                     72 ; Function plat_held
                                     73 ; ---------------------------------
    0000000D                         74 _plat_held:
    0000000D 21r01r00         [12]   75 	ld	hl, #__joy_cur
    00000010 A6               [ 8]   76 	and	a, (hl)
    00000011 3E 01            [ 8]   77 	ld	a, #0x01
    00000013 C0               [20]   78 	ret	NZ
    00000014 AF               [ 4]   79 	xor	a, a
    00000015 C9               [16]   80 	ret
                                     81 ;kaijugaiden.c:137: static inline u8 plat_pressed(u8 mask) {
                                     82 ;	---------------------------------
                                     83 ; Function plat_pressed
                                     84 ; ---------------------------------
    00000016                         85 _plat_pressed:
    00000016 4F               [ 4]   86 	ld	c, a
                                     87 ;kaijugaiden.c:138: return ((_joy_cur & mask) && !(_joy_prev & mask)) ? 1 : 0;
    00000017 FAr01r00         [16]   88 	ld	a, (#__joy_cur)
    0000001A A1               [ 4]   89 	and	a, c
    0000001B 28 07            [12]   90 	jr	Z, 00103$
    0000001D FAr00r00         [16]   91 	ld	a, (#__joy_prev)
    00000020 A1               [ 4]   92 	and	a, c
    00000021 3E 01            [ 8]   93 	ld	a, #0x01
    00000023 C8               [20]   94 	ret	Z
    00000024                         95 00103$:
    00000024 AF               [ 4]   96 	xor	a, a
                                     97 ;kaijugaiden.c:139: }
    00000025 C9               [16]   98 	ret
                                     99 ;kaijugaiden.c:140: static inline u16 plat_input_mask(void) { return (u16)_joy_cur; }
                                    100 ;	---------------------------------
                                    101 ; Function plat_input_mask
                                    102 ; ---------------------------------
    00000026                        103 _plat_input_mask:
    00000026 FAr01r00         [16]  104 	ld	a, (__joy_cur)
    00000029 4F               [ 4]  105 	ld	c, a
    0000002A 06 00            [ 8]  106 	ld	b, #0x00
    0000002C C9               [16]  107 	ret
                                    108 ;kaijugaiden.c:141: static inline u16 plat_pressed_mask(void) { return (u16)(_joy_cur & (u8)(~_joy_prev)); }
                                    109 ;	---------------------------------
                                    110 ; Function plat_pressed_mask
                                    111 ; ---------------------------------
    0000002D                        112 _plat_pressed_mask:
    0000002D FAr00r00         [16]  113 	ld	a, (#__joy_prev)
    00000030 2F               [ 4]  114 	cpl
    00000031 21r01r00         [12]  115 	ld	hl, #__joy_cur
    00000034 A6               [ 8]  116 	and	a, (hl)
    00000035 4F               [ 4]  117 	ld	c, a
    00000036 06 00            [ 8]  118 	ld	b, #0x00
    00000038 C9               [16]  119 	ret
                                    120 ;kaijugaiden.c:142: static inline void plat_vsync(void)  { wait_vbl_done(); }
                                    121 ;	---------------------------------
                                    122 ; Function plat_vsync
                                    123 ; ---------------------------------
    00000039                        124 _plat_vsync:
    00000039 C3r00r00         [16]  125 	jp	_wait_vbl_done
                                    126 ;kaijugaiden.c:145: static inline void plat_set_bkg_tile(u8 x, u8 y, u8 tile) {
                                    127 ;	---------------------------------
                                    128 ; Function plat_set_bkg_tile
                                    129 ; ---------------------------------
    0000003C                        130 _plat_set_bkg_tile:
                                    131 ;kaijugaiden.c:146: set_bkg_tile_xy(x, y, tile);
    0000003C F8 02            [12]  132 	ldhl	sp,	#2
    0000003E 66               [ 8]  133 	ld	h, (hl)
    0000003F E5               [16]  134 	push	hl
    00000040 33               [ 8]  135 	inc	sp
    00000041 CDr00r00         [24]  136 	call	_set_bkg_tile_xy
                                    137 ;kaijugaiden.c:147: }
    00000044 E1               [12]  138 	pop	hl
    00000045 33               [ 8]  139 	inc	sp
    00000046 E9               [ 4]  140 	jp	(hl)
                                    141 ;kaijugaiden.c:148: static inline void plat_set_sprite(u8 id, u8 x, u8 y, u8 tile, u8 flags) {
                                    142 ;	---------------------------------
                                    143 ; Function plat_set_sprite
                                    144 ; ---------------------------------
    00000047                        145 _plat_set_sprite:
    00000047 4F               [ 4]  146 	ld	c, a
                                    147 ;kaijugaiden.c:149: move_sprite(id, x + 8, y + 16);   /* GBDK uses offset convention */
    00000048 F8 02            [12]  148 	ldhl	sp,	#2
    0000004A 7E               [ 8]  149 	ld	a, (hl)
    0000004B C6 10            [ 8]  150 	add	a, #0x10
    0000004D 57               [ 4]  151 	ld	d, a
    0000004E 7B               [ 4]  152 	ld	a, e
    0000004F C6 08            [ 8]  153 	add	a, #0x08
    00000051 5F               [ 4]  154 	ld	e, a
                                    155 ;c:\users\rrcar\documents\driptech\.tools\gbdk\gbdk\include\gb\gb.h:1973: OAM_item_t * itm = &shadow_OAM[nb];
    00000052 69               [ 4]  156 	ld	l, c
    00000053 26 00            [ 8]  157 	ld	h, #0x00
    00000055 29               [ 8]  158 	add	hl, hl
    00000056 29               [ 8]  159 	add	hl, hl
    00000057 4D               [ 4]  160 	ld	c, l
    00000058 44               [ 4]  161 	ld	b, h
    00000059 21r00r00         [12]  162 	ld	hl, #_shadow_OAM
    0000005C 09               [ 8]  163 	add	hl, bc
                                    164 ;c:\users\rrcar\documents\driptech\.tools\gbdk\gbdk\include\gb\gb.h:1974: itm->y=y, itm->x=x;
    0000005D 72               [ 8]  165 	ld	(hl), d
    0000005E 23               [ 8]  166 	inc	hl
    0000005F 73               [ 8]  167 	ld	(hl), e
                                    168 ;kaijugaiden.c:150: set_sprite_tile(id, tile);
    00000060 F8 03            [12]  169 	ldhl	sp,	#3
    00000062 5E               [ 8]  170 	ld	e, (hl)
                                    171 ;c:\users\rrcar\documents\driptech\.tools\gbdk\gbdk\include\gb\gb.h:1887: shadow_OAM[nb].tile=tile;
    00000063 21r01r00         [12]  172 	ld	hl,#_shadow_OAM + 1
    00000066 09               [ 8]  173 	add	hl,bc
    00000067 23               [ 8]  174 	inc	hl
    00000068 73               [ 8]  175 	ld	(hl), e
                                    176 ;kaijugaiden.c:151: set_sprite_prop(id, flags);
    00000069 F8 04            [12]  177 	ldhl	sp,	#4
    0000006B 5E               [ 8]  178 	ld	e, (hl)
                                    179 ;c:\users\rrcar\documents\driptech\.tools\gbdk\gbdk\include\gb\gb.h:1946: shadow_OAM[nb].prop=prop;
    0000006C 21r01r00         [12]  180 	ld	hl,#_shadow_OAM + 1
    0000006F 09               [ 8]  181 	add	hl,bc
    00000070 23               [ 8]  182 	inc	hl
    00000071 23               [ 8]  183 	inc	hl
    00000072 73               [ 8]  184 	ld	(hl), e
                                    185 ;kaijugaiden.c:151: set_sprite_prop(id, flags);
                                    186 ;kaijugaiden.c:152: }
    00000073 E1               [12]  187 	pop	hl
    00000074 E8 03            [16]  188 	add	sp, #3
    00000076 E9               [ 4]  189 	jp	(hl)
                                    190 ;kaijugaiden.c:153: static inline void plat_load_bkg_tiles(const u8 *data, u8 first, u8 count) {
                                    191 ;	---------------------------------
                                    192 ; Function plat_load_bkg_tiles
                                    193 ; ---------------------------------
    00000077                        194 _plat_load_bkg_tiles:
                                    195 ;kaijugaiden.c:154: set_bkg_data(first, count, data);
    00000077 D5               [16]  196 	push	de
    00000078 F8 04            [12]  197 	ldhl	sp,	#4
    0000007A 66               [ 8]  198 	ld	h, (hl)
    0000007B E5               [16]  199 	push	hl
    0000007C 33               [ 8]  200 	inc	sp
    0000007D F5               [16]  201 	push	af
    0000007E 33               [ 8]  202 	inc	sp
    0000007F CDr00r00         [24]  203 	call	_set_bkg_data
    00000082 E8 04            [16]  204 	add	sp, #4
                                    205 ;kaijugaiden.c:155: }
    00000084 E1               [12]  206 	pop	hl
    00000085 33               [ 8]  207 	inc	sp
    00000086 E9               [ 4]  208 	jp	(hl)
                                    209 ;kaijugaiden.c:156: static inline void plat_load_sprite_tiles(const u8 *data, u8 first, u8 count) {
                                    210 ;	---------------------------------
                                    211 ; Function plat_load_sprite_tiles
                                    212 ; ---------------------------------
    00000087                        213 _plat_load_sprite_tiles:
                                    214 ;kaijugaiden.c:157: set_sprite_data(first, count, data);
    00000087 D5               [16]  215 	push	de
    00000088 F8 04            [12]  216 	ldhl	sp,	#4
    0000008A 66               [ 8]  217 	ld	h, (hl)
    0000008B E5               [16]  218 	push	hl
    0000008C 33               [ 8]  219 	inc	sp
    0000008D F5               [16]  220 	push	af
    0000008E 33               [ 8]  221 	inc	sp
    0000008F CDr00r00         [24]  222 	call	_set_sprite_data
    00000092 E8 04            [16]  223 	add	sp, #4
                                    224 ;kaijugaiden.c:158: }
    00000094 E1               [12]  225 	pop	hl
    00000095 33               [ 8]  226 	inc	sp
    00000096 E9               [ 4]  227 	jp	(hl)
                                    228 ;kaijugaiden.c:161: static inline void plat_delay_frames(u8 n) {
                                    229 ;	---------------------------------
                                    230 ; Function plat_delay_frames
                                    231 ; ---------------------------------
    00000097                        232 _plat_delay_frames:
    00000097 4F               [ 4]  233 	ld	c, a
                                    234 ;kaijugaiden.c:162: for (u8 i = 0; i < n; ++i) wait_vbl_done();
    00000098 06 00            [ 8]  235 	ld	b, #0x00
    0000009A                        236 00103$:
    0000009A 78               [ 4]  237 	ld	a, b
    0000009B 91               [ 4]  238 	sub	a, c
    0000009C D0               [20]  239 	ret	NC
    0000009D CDr00r00         [24]  240 	call	_wait_vbl_done
    000000A0 04               [ 4]  241 	inc	b
                                    242 ;kaijugaiden.c:163: }
    000000A1 18 F7            [12]  243 	jr	00103$
                                    244 ;kaijugaiden.c:693: static void game_load_tiles(void) {
                                    245 ;	---------------------------------
                                    246 ; Function game_load_tiles
                                    247 ; ---------------------------------
    000000A3                        248 _game_load_tiles:
    000000A3 3B               [ 8]  249 	dec	sp
    000000A4 3B               [ 8]  250 	dec	sp
                                    251 ;kaijugaiden.c:696: plat_load_bkg_tiles(tile_blank, TILE_BLANK, 1);
                                    252 ;kaijugaiden.c:154: set_bkg_data(first, count, data);
    000000A5 11rF6r03         [12]  253 	ld	de, #_tile_blank
    000000A8 D5               [16]  254 	push	de
    000000A9 AF               [ 4]  255 	xor	a, a
    000000AA 3C               [ 4]  256 	inc	a
    000000AB F5               [16]  257 	push	af
    000000AC CDr00r00         [24]  258 	call	_set_bkg_data
    000000AF E8 04            [16]  259 	add	sp, #4
                                    260 ;kaijugaiden.c:698: plat_load_bkg_tiles(tile_ground_lr[0], TILE_GROUND_L, 1);
                                    261 ;kaijugaiden.c:154: set_bkg_data(first, count, data);
    000000B1 11r06r04         [12]  262 	ld	de, #_tile_ground_lr
    000000B4 D5               [16]  263 	push	de
    000000B5 21 01 01         [12]  264 	ld	hl, #0x101
    000000B8 E5               [16]  265 	push	hl
    000000B9 CDr00r00         [24]  266 	call	_set_bkg_data
    000000BC E8 04            [16]  267 	add	sp, #4
                                    268 ;kaijugaiden.c:699: plat_load_bkg_tiles(tile_ground_lr[1], TILE_GROUND_R, 1);
                                    269 ;kaijugaiden.c:154: set_bkg_data(first, count, data);
    000000BE 11r16r04         [12]  270 	ld	de, #(_tile_ground_lr + 16)
    000000C1 D5               [16]  271 	push	de
    000000C2 21 02 01         [12]  272 	ld	hl, #0x102
    000000C5 E5               [16]  273 	push	hl
    000000C6 CDr00r00         [24]  274 	call	_set_bkg_data
    000000C9 E8 04            [16]  275 	add	sp, #4
                                    276 ;kaijugaiden.c:701: plat_load_bkg_tiles(tile_water_ab[0], TILE_WATER_A, 1);
                                    277 ;kaijugaiden.c:154: set_bkg_data(first, count, data);
    000000CB 11r26r04         [12]  278 	ld	de, #_tile_water_ab
    000000CE D5               [16]  279 	push	de
    000000CF 21 03 01         [12]  280 	ld	hl, #0x103
    000000D2 E5               [16]  281 	push	hl
    000000D3 CDr00r00         [24]  282 	call	_set_bkg_data
    000000D6 E8 04            [16]  283 	add	sp, #4
                                    284 ;kaijugaiden.c:702: plat_load_bkg_tiles(tile_water_ab[1], TILE_WATER_B, 1);
                                    285 ;kaijugaiden.c:154: set_bkg_data(first, count, data);
    000000D8 11r36r04         [12]  286 	ld	de, #(_tile_water_ab + 16)
    000000DB D5               [16]  287 	push	de
    000000DC 21 04 01         [12]  288 	ld	hl, #0x104
    000000DF E5               [16]  289 	push	hl
    000000E0 CDr00r00         [24]  290 	call	_set_bkg_data
    000000E3 E8 04            [16]  291 	add	sp, #4
                                    292 ;kaijugaiden.c:704: plat_load_bkg_tiles(tile_cliff_ab[0], TILE_CLIFF_A, 1);
                                    293 ;kaijugaiden.c:154: set_bkg_data(first, count, data);
    000000E5 11r46r04         [12]  294 	ld	de, #_tile_cliff_ab
    000000E8 D5               [16]  295 	push	de
    000000E9 21 05 01         [12]  296 	ld	hl, #0x105
    000000EC E5               [16]  297 	push	hl
    000000ED CDr00r00         [24]  298 	call	_set_bkg_data
    000000F0 E8 04            [16]  299 	add	sp, #4
                                    300 ;kaijugaiden.c:705: plat_load_bkg_tiles(tile_cliff_ab[1], TILE_CLIFF_B, 1);
                                    301 ;kaijugaiden.c:154: set_bkg_data(first, count, data);
    000000F2 11r56r04         [12]  302 	ld	de, #(_tile_cliff_ab + 16)
    000000F5 D5               [16]  303 	push	de
    000000F6 21 06 01         [12]  304 	ld	hl, #0x106
    000000F9 E5               [16]  305 	push	hl
    000000FA CDr00r00         [24]  306 	call	_set_bkg_data
    000000FD E8 04            [16]  307 	add	sp, #4
                                    308 ;kaijugaiden.c:707: plat_load_bkg_tiles(tile_sky_ab[0], TILE_SKY_A, 1);
                                    309 ;kaijugaiden.c:154: set_bkg_data(first, count, data);
    000000FF 11r66r04         [12]  310 	ld	de, #_tile_sky_ab
    00000102 D5               [16]  311 	push	de
    00000103 21 07 01         [12]  312 	ld	hl, #0x107
    00000106 E5               [16]  313 	push	hl
    00000107 CDr00r00         [24]  314 	call	_set_bkg_data
    0000010A E8 04            [16]  315 	add	sp, #4
                                    316 ;kaijugaiden.c:708: plat_load_bkg_tiles(tile_sky_ab[1], TILE_SKY_B, 1);
                                    317 ;kaijugaiden.c:154: set_bkg_data(first, count, data);
    0000010C 11r76r04         [12]  318 	ld	de, #(_tile_sky_ab + 16)
    0000010F D5               [16]  319 	push	de
    00000110 21 08 01         [12]  320 	ld	hl, #0x108
    00000113 E5               [16]  321 	push	hl
    00000114 CDr00r00         [24]  322 	call	_set_bkg_data
    00000117 E8 04            [16]  323 	add	sp, #4
                                    324 ;kaijugaiden.c:710: for (int i = 0; i < 8; ++i)
    00000119 01 00 00         [12]  325 	ld	bc, #0x0000
    0000011C                        326 00141$:
                                    327 ;kaijugaiden.c:711: plat_load_bkg_tiles(tile_splash[i], TILE_SPLASH1 + i, 1);
    0000011C 79               [ 4]  328 	ld	a,c
    0000011D FE 08            [ 8]  329 	cp	a,#0x08
    0000011F 30 1B            [12]  330 	jr	NC, 00101$
    00000121 C6 09            [ 8]  331 	add	a, #0x09
    00000123 5F               [ 4]  332 	ld	e, a
    00000124 69               [ 4]  333 	ld	l, c
    00000125 60               [ 4]  334 	ld	h, b
    00000126 29               [ 8]  335 	add	hl, hl
    00000127 29               [ 8]  336 	add	hl, hl
    00000128 29               [ 8]  337 	add	hl, hl
    00000129 29               [ 8]  338 	add	hl, hl
    0000012A D5               [16]  339 	push	de
    0000012B 11r86r04         [12]  340 	ld	de, #_tile_splash
    0000012E 19               [ 8]  341 	add	hl, de
    0000012F D1               [12]  342 	pop	de
                                    343 ;kaijugaiden.c:154: set_bkg_data(first, count, data);
    00000130 E5               [16]  344 	push	hl
    00000131 16 01            [ 8]  345 	ld	d, #0x01
    00000133 D5               [16]  346 	push	de
    00000134 CDr00r00         [24]  347 	call	_set_bkg_data
    00000137 E8 04            [16]  348 	add	sp, #4
                                    349 ;kaijugaiden.c:710: for (int i = 0; i < 8; ++i)
    00000139 03               [ 8]  350 	inc	bc
    0000013A 18 E0            [12]  351 	jr	00141$
    0000013C                        352 00101$:
                                    353 ;kaijugaiden.c:713: for (int i = 0; i < 12; ++i)
    0000013C 01 00 00         [12]  354 	ld	bc, #0x0000
    0000013F                        355 00144$:
                                    356 ;kaijugaiden.c:714: plat_load_bkg_tiles(tile_title[i], TILE_TITLE_A + i, 1);
    0000013F 79               [ 4]  357 	ld	a,c
    00000140 FE 0C            [ 8]  358 	cp	a,#0x0c
    00000142 30 1E            [12]  359 	jr	NC, 00102$
    00000144 C6 11            [ 8]  360 	add	a, #0x11
    00000146 57               [ 4]  361 	ld	d, a
    00000147 69               [ 4]  362 	ld	l, c
    00000148 60               [ 4]  363 	ld	h, b
    00000149 29               [ 8]  364 	add	hl, hl
    0000014A 29               [ 8]  365 	add	hl, hl
    0000014B 29               [ 8]  366 	add	hl, hl
    0000014C 29               [ 8]  367 	add	hl, hl
    0000014D D5               [16]  368 	push	de
    0000014E 11r06r05         [12]  369 	ld	de, #_tile_title
    00000151 19               [ 8]  370 	add	hl, de
    00000152 D1               [12]  371 	pop	de
                                    372 ;kaijugaiden.c:154: set_bkg_data(first, count, data);
    00000153 E5               [16]  373 	push	hl
    00000154 3E 01            [ 8]  374 	ld	a, #0x01
    00000156 F5               [16]  375 	push	af
    00000157 33               [ 8]  376 	inc	sp
    00000158 D5               [16]  377 	push	de
    00000159 33               [ 8]  378 	inc	sp
    0000015A CDr00r00         [24]  379 	call	_set_bkg_data
    0000015D E8 04            [16]  380 	add	sp, #4
                                    381 ;kaijugaiden.c:713: for (int i = 0; i < 12; ++i)
    0000015F 03               [ 8]  382 	inc	bc
    00000160 18 DD            [12]  383 	jr	00144$
    00000162                        384 00102$:
                                    385 ;kaijugaiden.c:716: plat_load_bkg_tiles(tile_hp_seg, TILE_HP_SEG, 1);
                                    386 ;kaijugaiden.c:154: set_bkg_data(first, count, data);
    00000162 11rC6r05         [12]  387 	ld	de, #_tile_hp_seg
    00000165 D5               [16]  388 	push	de
    00000166 21 1D 01         [12]  389 	ld	hl, #0x11d
    00000169 E5               [16]  390 	push	hl
    0000016A CDr00r00         [24]  391 	call	_set_bkg_data
    0000016D E8 04            [16]  392 	add	sp, #4
                                    393 ;kaijugaiden.c:718: plat_load_bkg_tiles(tile_boss_hp_bar[0], TILE_BOSS_SEG, 1);
                                    394 ;kaijugaiden.c:154: set_bkg_data(first, count, data);
    0000016F 11rD6r05         [12]  395 	ld	de, #_tile_boss_hp_bar
    00000172 D5               [16]  396 	push	de
    00000173 21 1E 01         [12]  397 	ld	hl, #0x11e
    00000176 E5               [16]  398 	push	hl
    00000177 CDr00r00         [24]  399 	call	_set_bkg_data
    0000017A E8 04            [16]  400 	add	sp, #4
                                    401 ;kaijugaiden.c:720: for (int i = 0; i < 10; ++i)
    0000017C 01 00 00         [12]  402 	ld	bc, #0x0000
    0000017F                        403 00147$:
                                    404 ;kaijugaiden.c:721: plat_load_bkg_tiles(tile_digit[i], TILE_FONT_0 + i, 1);
    0000017F 79               [ 4]  405 	ld	a,c
    00000180 FE 0A            [ 8]  406 	cp	a,#0x0a
    00000182 30 1E            [12]  407 	jr	NC, 00103$
    00000184 C6 20            [ 8]  408 	add	a, #0x20
    00000186 57               [ 4]  409 	ld	d, a
    00000187 69               [ 4]  410 	ld	l, c
    00000188 60               [ 4]  411 	ld	h, b
    00000189 29               [ 8]  412 	add	hl, hl
    0000018A 29               [ 8]  413 	add	hl, hl
    0000018B 29               [ 8]  414 	add	hl, hl
    0000018C 29               [ 8]  415 	add	hl, hl
    0000018D D5               [16]  416 	push	de
    0000018E 11r36r06         [12]  417 	ld	de, #_tile_digit
    00000191 19               [ 8]  418 	add	hl, de
    00000192 D1               [12]  419 	pop	de
                                    420 ;kaijugaiden.c:154: set_bkg_data(first, count, data);
    00000193 E5               [16]  421 	push	hl
    00000194 3E 01            [ 8]  422 	ld	a, #0x01
    00000196 F5               [16]  423 	push	af
    00000197 33               [ 8]  424 	inc	sp
    00000198 D5               [16]  425 	push	de
    00000199 33               [ 8]  426 	inc	sp
    0000019A CDr00r00         [24]  427 	call	_set_bkg_data
    0000019D E8 04            [16]  428 	add	sp, #4
                                    429 ;kaijugaiden.c:720: for (int i = 0; i < 10; ++i)
    0000019F 03               [ 8]  430 	inc	bc
    000001A0 18 DD            [12]  431 	jr	00147$
    000001A2                        432 00103$:
                                    433 ;kaijugaiden.c:724: for (int i = 0; i < 6; ++i)
    000001A2 01 00 00         [12]  434 	ld	bc, #0x0000
    000001A5                        435 00150$:
    000001A5 79               [ 4]  436 	ld	a, c
    000001A6 D6 06            [ 8]  437 	sub	a, #0x06
    000001A8 30 1C            [12]  438 	jr	NC, 00104$
                                    439 ;kaijugaiden.c:725: plat_load_sprite_tiles(spr_rei_idle_data[i], SPR_REI_IDLE + i, 1);
    000001AA 51               [ 4]  440 	ld	d, c
    000001AB 69               [ 4]  441 	ld	l, c
    000001AC 60               [ 4]  442 	ld	h, b
    000001AD 29               [ 8]  443 	add	hl, hl
    000001AE 29               [ 8]  444 	add	hl, hl
    000001AF 29               [ 8]  445 	add	hl, hl
    000001B0 29               [ 8]  446 	add	hl, hl
    000001B1 D5               [16]  447 	push	de
    000001B2 11rD6r06         [12]  448 	ld	de, #_spr_rei_idle_data
    000001B5 19               [ 8]  449 	add	hl, de
    000001B6 D1               [12]  450 	pop	de
                                    451 ;kaijugaiden.c:157: set_sprite_data(first, count, data);
    000001B7 E5               [16]  452 	push	hl
    000001B8 3E 01            [ 8]  453 	ld	a, #0x01
    000001BA F5               [16]  454 	push	af
    000001BB 33               [ 8]  455 	inc	sp
    000001BC D5               [16]  456 	push	de
    000001BD 33               [ 8]  457 	inc	sp
    000001BE CDr00r00         [24]  458 	call	_set_sprite_data
    000001C1 E8 04            [16]  459 	add	sp, #4
                                    460 ;kaijugaiden.c:724: for (int i = 0; i < 6; ++i)
    000001C3 03               [ 8]  461 	inc	bc
    000001C4 18 DF            [12]  462 	jr	00150$
    000001C6                        463 00104$:
                                    464 ;kaijugaiden.c:727: for (int i = 0; i < 6; ++i)
    000001C6 AF               [ 4]  465 	xor	a, a
    000001C7 F8 00            [12]  466 	ldhl	sp,	#0
    000001C9 22               [ 8]  467 	ld	(hl+), a
    000001CA 77               [ 8]  468 	ld	(hl), a
    000001CB                        469 00153$:
    000001CB F8 00            [12]  470 	ldhl	sp,	#0
    000001CD 2A               [ 8]  471 	ld	a, (hl+)
    000001CE D6 06            [ 8]  472 	sub	a, #0x06
    000001D0 7E               [ 8]  473 	ld	a, (hl)
    000001D1 DE 00            [ 8]  474 	sbc	a, #0x00
    000001D3 30 2B            [12]  475 	jr	NC, 00105$
                                    476 ;kaijugaiden.c:728: plat_load_sprite_tiles(spr_rei_run_data[i], SPR_REI_RUN + i, 1);
    000001D5 2B               [ 8]  477 	dec	hl
    000001D6 7E               [ 8]  478 	ld	a, (hl)
    000001D7 C6 06            [ 8]  479 	add	a, #0x06
    000001D9 47               [ 4]  480 	ld	b, a
    000001DA 7E               [ 8]  481 	ld	a, (hl)
    000001DB 0E 00            [ 8]  482 	ld	c, #0x00
    000001DD 87               [ 4]  483 	add	a, a
    000001DE CB 11            [ 8]  484 	rl	c
    000001E0 87               [ 4]  485 	add	a, a
    000001E1 CB 11            [ 8]  486 	rl	c
    000001E3 87               [ 4]  487 	add	a, a
    000001E4 CB 11            [ 8]  488 	rl	c
    000001E6 87               [ 4]  489 	add	a, a
    000001E7 CB 11            [ 8]  490 	rl	c
    000001E9 6F               [ 4]  491 	ld	l, a
    000001EA 61               [ 4]  492 	ld	h, c
    000001EB 11r36r07         [12]  493 	ld	de, #_spr_rei_run_data
    000001EE 19               [ 8]  494 	add	hl, de
                                    495 ;kaijugaiden.c:157: set_sprite_data(first, count, data);
    000001EF E5               [16]  496 	push	hl
    000001F0 3E 01            [ 8]  497 	ld	a, #0x01
    000001F2 F5               [16]  498 	push	af
    000001F3 33               [ 8]  499 	inc	sp
    000001F4 C5               [16]  500 	push	bc
    000001F5 33               [ 8]  501 	inc	sp
    000001F6 CDr00r00         [24]  502 	call	_set_sprite_data
    000001F9 E8 04            [16]  503 	add	sp, #4
                                    504 ;kaijugaiden.c:727: for (int i = 0; i < 6; ++i)
    000001FB F8 00            [12]  505 	ldhl	sp,	#0
    000001FD 34               [12]  506 	inc	(hl)
    000001FE 18 CB            [12]  507 	jr	00153$
    00000200                        508 00105$:
                                    509 ;kaijugaiden.c:730: for (int i = 0; i < 6; ++i)
    00000200 AF               [ 4]  510 	xor	a, a
    00000201 F8 00            [12]  511 	ldhl	sp,	#0
    00000203 22               [ 8]  512 	ld	(hl+), a
    00000204 77               [ 8]  513 	ld	(hl), a
    00000205                        514 00156$:
    00000205 F8 00            [12]  515 	ldhl	sp,	#0
    00000207 2A               [ 8]  516 	ld	a, (hl+)
    00000208 D6 06            [ 8]  517 	sub	a, #0x06
    0000020A 7E               [ 8]  518 	ld	a, (hl)
    0000020B DE 00            [ 8]  519 	sbc	a, #0x00
    0000020D 30 2B            [12]  520 	jr	NC, 00106$
                                    521 ;kaijugaiden.c:731: plat_load_sprite_tiles(spr_rei_attack_data[i], SPR_REI_ATTACK + i, 1);
    0000020F 2B               [ 8]  522 	dec	hl
    00000210 7E               [ 8]  523 	ld	a, (hl)
    00000211 C6 0C            [ 8]  524 	add	a, #0x0c
    00000213 47               [ 4]  525 	ld	b, a
    00000214 7E               [ 8]  526 	ld	a, (hl)
    00000215 0E 00            [ 8]  527 	ld	c, #0x00
    00000217 87               [ 4]  528 	add	a, a
    00000218 CB 11            [ 8]  529 	rl	c
    0000021A 87               [ 4]  530 	add	a, a
    0000021B CB 11            [ 8]  531 	rl	c
    0000021D 87               [ 4]  532 	add	a, a
    0000021E CB 11            [ 8]  533 	rl	c
    00000220 87               [ 4]  534 	add	a, a
    00000221 CB 11            [ 8]  535 	rl	c
    00000223 6F               [ 4]  536 	ld	l, a
    00000224 61               [ 4]  537 	ld	h, c
    00000225 11r96r07         [12]  538 	ld	de, #_spr_rei_attack_data
    00000228 19               [ 8]  539 	add	hl, de
                                    540 ;kaijugaiden.c:157: set_sprite_data(first, count, data);
    00000229 E5               [16]  541 	push	hl
    0000022A 3E 01            [ 8]  542 	ld	a, #0x01
    0000022C F5               [16]  543 	push	af
    0000022D 33               [ 8]  544 	inc	sp
    0000022E C5               [16]  545 	push	bc
    0000022F 33               [ 8]  546 	inc	sp
    00000230 CDr00r00         [24]  547 	call	_set_sprite_data
    00000233 E8 04            [16]  548 	add	sp, #4
                                    549 ;kaijugaiden.c:730: for (int i = 0; i < 6; ++i)
    00000235 F8 00            [12]  550 	ldhl	sp,	#0
    00000237 34               [12]  551 	inc	(hl)
    00000238 18 CB            [12]  552 	jr	00156$
    0000023A                        553 00106$:
                                    554 ;kaijugaiden.c:733: for (int i = 0; i < 8; ++i)
    0000023A AF               [ 4]  555 	xor	a, a
    0000023B F8 00            [12]  556 	ldhl	sp,	#0
    0000023D 22               [ 8]  557 	ld	(hl+), a
    0000023E 77               [ 8]  558 	ld	(hl), a
    0000023F                        559 00159$:
    0000023F F8 00            [12]  560 	ldhl	sp,	#0
    00000241 2A               [ 8]  561 	ld	a, (hl+)
    00000242 D6 08            [ 8]  562 	sub	a, #0x08
    00000244 7E               [ 8]  563 	ld	a, (hl)
    00000245 DE 00            [ 8]  564 	sbc	a, #0x00
    00000247 30 2B            [12]  565 	jr	NC, 00107$
                                    566 ;kaijugaiden.c:734: plat_load_sprite_tiles(spr_boss_p1_data[i], SPR_BOSS_A + i, 1);
    00000249 2B               [ 8]  567 	dec	hl
    0000024A 7E               [ 8]  568 	ld	a, (hl)
    0000024B C6 12            [ 8]  569 	add	a, #0x12
    0000024D 47               [ 4]  570 	ld	b, a
    0000024E 7E               [ 8]  571 	ld	a, (hl)
    0000024F 0E 00            [ 8]  572 	ld	c, #0x00
    00000251 87               [ 4]  573 	add	a, a
    00000252 CB 11            [ 8]  574 	rl	c
    00000254 87               [ 4]  575 	add	a, a
    00000255 CB 11            [ 8]  576 	rl	c
    00000257 87               [ 4]  577 	add	a, a
    00000258 CB 11            [ 8]  578 	rl	c
    0000025A 87               [ 4]  579 	add	a, a
    0000025B CB 11            [ 8]  580 	rl	c
    0000025D 6F               [ 4]  581 	ld	l, a
    0000025E 61               [ 4]  582 	ld	h, c
    0000025F 11rF6r07         [12]  583 	ld	de, #_spr_boss_p1_data
    00000262 19               [ 8]  584 	add	hl, de
                                    585 ;kaijugaiden.c:157: set_sprite_data(first, count, data);
    00000263 E5               [16]  586 	push	hl
    00000264 3E 01            [ 8]  587 	ld	a, #0x01
    00000266 F5               [16]  588 	push	af
    00000267 33               [ 8]  589 	inc	sp
    00000268 C5               [16]  590 	push	bc
    00000269 33               [ 8]  591 	inc	sp
    0000026A CDr00r00         [24]  592 	call	_set_sprite_data
    0000026D E8 04            [16]  593 	add	sp, #4
                                    594 ;kaijugaiden.c:733: for (int i = 0; i < 8; ++i)
    0000026F F8 00            [12]  595 	ldhl	sp,	#0
    00000271 34               [12]  596 	inc	(hl)
    00000272 18 CB            [12]  597 	jr	00159$
    00000274                        598 00107$:
                                    599 ;kaijugaiden.c:735: for (int i = 0; i < 8; ++i)
    00000274 AF               [ 4]  600 	xor	a, a
    00000275 F8 00            [12]  601 	ldhl	sp,	#0
    00000277 22               [ 8]  602 	ld	(hl+), a
    00000278 77               [ 8]  603 	ld	(hl), a
    00000279                        604 00162$:
    00000279 F8 00            [12]  605 	ldhl	sp,	#0
    0000027B 2A               [ 8]  606 	ld	a, (hl+)
    0000027C D6 08            [ 8]  607 	sub	a, #0x08
    0000027E 7E               [ 8]  608 	ld	a, (hl)
    0000027F DE 00            [ 8]  609 	sbc	a, #0x00
    00000281 30 2B            [12]  610 	jr	NC, 00108$
                                    611 ;kaijugaiden.c:736: plat_load_sprite_tiles(spr_boss_p2_data[i], SPR_BOSS_B + i, 1);
    00000283 2B               [ 8]  612 	dec	hl
    00000284 7E               [ 8]  613 	ld	a, (hl)
    00000285 C6 1A            [ 8]  614 	add	a, #0x1a
    00000287 47               [ 4]  615 	ld	b, a
    00000288 7E               [ 8]  616 	ld	a, (hl)
    00000289 0E 00            [ 8]  617 	ld	c, #0x00
    0000028B 87               [ 4]  618 	add	a, a
    0000028C CB 11            [ 8]  619 	rl	c
    0000028E 87               [ 4]  620 	add	a, a
    0000028F CB 11            [ 8]  621 	rl	c
    00000291 87               [ 4]  622 	add	a, a
    00000292 CB 11            [ 8]  623 	rl	c
    00000294 87               [ 4]  624 	add	a, a
    00000295 CB 11            [ 8]  625 	rl	c
    00000297 6F               [ 4]  626 	ld	l, a
    00000298 61               [ 4]  627 	ld	h, c
    00000299 11r76r08         [12]  628 	ld	de, #_spr_boss_p2_data
    0000029C 19               [ 8]  629 	add	hl, de
                                    630 ;kaijugaiden.c:157: set_sprite_data(first, count, data);
    0000029D E5               [16]  631 	push	hl
    0000029E 3E 01            [ 8]  632 	ld	a, #0x01
    000002A0 F5               [16]  633 	push	af
    000002A1 33               [ 8]  634 	inc	sp
    000002A2 C5               [16]  635 	push	bc
    000002A3 33               [ 8]  636 	inc	sp
    000002A4 CDr00r00         [24]  637 	call	_set_sprite_data
    000002A7 E8 04            [16]  638 	add	sp, #4
                                    639 ;kaijugaiden.c:735: for (int i = 0; i < 8; ++i)
    000002A9 F8 00            [12]  640 	ldhl	sp,	#0
    000002AB 34               [12]  641 	inc	(hl)
    000002AC 18 CB            [12]  642 	jr	00162$
    000002AE                        643 00108$:
                                    644 ;kaijugaiden.c:737: for (int i = 0; i < 8; ++i)
    000002AE AF               [ 4]  645 	xor	a, a
    000002AF F8 00            [12]  646 	ldhl	sp,	#0
    000002B1 22               [ 8]  647 	ld	(hl+), a
    000002B2 77               [ 8]  648 	ld	(hl), a
    000002B3                        649 00165$:
    000002B3 F8 00            [12]  650 	ldhl	sp,	#0
    000002B5 2A               [ 8]  651 	ld	a, (hl+)
    000002B6 D6 08            [ 8]  652 	sub	a, #0x08
    000002B8 7E               [ 8]  653 	ld	a, (hl)
    000002B9 DE 00            [ 8]  654 	sbc	a, #0x00
    000002BB 30 2B            [12]  655 	jr	NC, 00109$
                                    656 ;kaijugaiden.c:738: plat_load_sprite_tiles(spr_boss_p3_data[i], SPR_BOSS_C + i, 1);
    000002BD 2B               [ 8]  657 	dec	hl
    000002BE 7E               [ 8]  658 	ld	a, (hl)
    000002BF C6 22            [ 8]  659 	add	a, #0x22
    000002C1 47               [ 4]  660 	ld	b, a
    000002C2 7E               [ 8]  661 	ld	a, (hl)
    000002C3 0E 00            [ 8]  662 	ld	c, #0x00
    000002C5 87               [ 4]  663 	add	a, a
    000002C6 CB 11            [ 8]  664 	rl	c
    000002C8 87               [ 4]  665 	add	a, a
    000002C9 CB 11            [ 8]  666 	rl	c
    000002CB 87               [ 4]  667 	add	a, a
    000002CC CB 11            [ 8]  668 	rl	c
    000002CE 87               [ 4]  669 	add	a, a
    000002CF CB 11            [ 8]  670 	rl	c
    000002D1 6F               [ 4]  671 	ld	l, a
    000002D2 61               [ 4]  672 	ld	h, c
    000002D3 11rF6r08         [12]  673 	ld	de, #_spr_boss_p3_data
    000002D6 19               [ 8]  674 	add	hl, de
                                    675 ;kaijugaiden.c:157: set_sprite_data(first, count, data);
    000002D7 E5               [16]  676 	push	hl
    000002D8 3E 01            [ 8]  677 	ld	a, #0x01
    000002DA F5               [16]  678 	push	af
    000002DB 33               [ 8]  679 	inc	sp
    000002DC C5               [16]  680 	push	bc
    000002DD 33               [ 8]  681 	inc	sp
    000002DE CDr00r00         [24]  682 	call	_set_sprite_data
    000002E1 E8 04            [16]  683 	add	sp, #4
                                    684 ;kaijugaiden.c:737: for (int i = 0; i < 8; ++i)
    000002E3 F8 00            [12]  685 	ldhl	sp,	#0
    000002E5 34               [12]  686 	inc	(hl)
    000002E6 18 CB            [12]  687 	jr	00165$
    000002E8                        688 00109$:
                                    689 ;kaijugaiden.c:740: for (int i = 0; i < 4; ++i)
    000002E8 AF               [ 4]  690 	xor	a, a
    000002E9 F8 00            [12]  691 	ldhl	sp,	#0
    000002EB 22               [ 8]  692 	ld	(hl+), a
    000002EC 77               [ 8]  693 	ld	(hl), a
    000002ED                        694 00168$:
    000002ED F8 00            [12]  695 	ldhl	sp,	#0
    000002EF 2A               [ 8]  696 	ld	a, (hl+)
    000002F0 D6 04            [ 8]  697 	sub	a, #0x04
    000002F2 7E               [ 8]  698 	ld	a, (hl)
    000002F3 DE 00            [ 8]  699 	sbc	a, #0x00
    000002F5 30 2B            [12]  700 	jr	NC, 00110$
                                    701 ;kaijugaiden.c:741: plat_load_sprite_tiles(spr_minion_data[i], SPR_MINION + i, 1);
    000002F7 2B               [ 8]  702 	dec	hl
    000002F8 7E               [ 8]  703 	ld	a, (hl)
    000002F9 C6 2A            [ 8]  704 	add	a, #0x2a
    000002FB 47               [ 4]  705 	ld	b, a
    000002FC 7E               [ 8]  706 	ld	a, (hl)
    000002FD 0E 00            [ 8]  707 	ld	c, #0x00
    000002FF 87               [ 4]  708 	add	a, a
    00000300 CB 11            [ 8]  709 	rl	c
    00000302 87               [ 4]  710 	add	a, a
    00000303 CB 11            [ 8]  711 	rl	c
    00000305 87               [ 4]  712 	add	a, a
    00000306 CB 11            [ 8]  713 	rl	c
    00000308 87               [ 4]  714 	add	a, a
    00000309 CB 11            [ 8]  715 	rl	c
    0000030B 6F               [ 4]  716 	ld	l, a
    0000030C 61               [ 4]  717 	ld	h, c
    0000030D 11r76r09         [12]  718 	ld	de, #_spr_minion_data
    00000310 19               [ 8]  719 	add	hl, de
                                    720 ;kaijugaiden.c:157: set_sprite_data(first, count, data);
    00000311 E5               [16]  721 	push	hl
    00000312 3E 01            [ 8]  722 	ld	a, #0x01
    00000314 F5               [16]  723 	push	af
    00000315 33               [ 8]  724 	inc	sp
    00000316 C5               [16]  725 	push	bc
    00000317 33               [ 8]  726 	inc	sp
    00000318 CDr00r00         [24]  727 	call	_set_sprite_data
    0000031B E8 04            [16]  728 	add	sp, #4
                                    729 ;kaijugaiden.c:740: for (int i = 0; i < 4; ++i)
    0000031D F8 00            [12]  730 	ldhl	sp,	#0
    0000031F 34               [12]  731 	inc	(hl)
    00000320 18 CB            [12]  732 	jr	00168$
    00000322                        733 00110$:
                                    734 ;kaijugaiden.c:743: for (int i = 0; i < 2; ++i)
    00000322 AF               [ 4]  735 	xor	a, a
    00000323 F8 00            [12]  736 	ldhl	sp,	#0
    00000325 22               [ 8]  737 	ld	(hl+), a
    00000326 77               [ 8]  738 	ld	(hl), a
    00000327                        739 00171$:
    00000327 F8 00            [12]  740 	ldhl	sp,	#0
    00000329 2A               [ 8]  741 	ld	a, (hl+)
    0000032A D6 02            [ 8]  742 	sub	a, #0x02
    0000032C 7E               [ 8]  743 	ld	a, (hl)
    0000032D DE 00            [ 8]  744 	sbc	a, #0x00
    0000032F 30 2B            [12]  745 	jr	NC, 00111$
                                    746 ;kaijugaiden.c:744: plat_load_sprite_tiles(spr_fx_hit_data[i],  SPR_FX_HIT + i, 1);
    00000331 2B               [ 8]  747 	dec	hl
    00000332 7E               [ 8]  748 	ld	a, (hl)
    00000333 C6 2E            [ 8]  749 	add	a, #0x2e
    00000335 47               [ 4]  750 	ld	b, a
    00000336 7E               [ 8]  751 	ld	a, (hl)
    00000337 0E 00            [ 8]  752 	ld	c, #0x00
    00000339 87               [ 4]  753 	add	a, a
    0000033A CB 11            [ 8]  754 	rl	c
    0000033C 87               [ 4]  755 	add	a, a
    0000033D CB 11            [ 8]  756 	rl	c
    0000033F 87               [ 4]  757 	add	a, a
    00000340 CB 11            [ 8]  758 	rl	c
    00000342 87               [ 4]  759 	add	a, a
    00000343 CB 11            [ 8]  760 	rl	c
    00000345 6F               [ 4]  761 	ld	l, a
    00000346 61               [ 4]  762 	ld	h, c
    00000347 11rB6r09         [12]  763 	ld	de, #_spr_fx_hit_data
    0000034A 19               [ 8]  764 	add	hl, de
                                    765 ;kaijugaiden.c:157: set_sprite_data(first, count, data);
    0000034B E5               [16]  766 	push	hl
    0000034C 3E 01            [ 8]  767 	ld	a, #0x01
    0000034E F5               [16]  768 	push	af
    0000034F 33               [ 8]  769 	inc	sp
    00000350 C5               [16]  770 	push	bc
    00000351 33               [ 8]  771 	inc	sp
    00000352 CDr00r00         [24]  772 	call	_set_sprite_data
    00000355 E8 04            [16]  773 	add	sp, #4
                                    774 ;kaijugaiden.c:743: for (int i = 0; i < 2; ++i)
    00000357 F8 00            [12]  775 	ldhl	sp,	#0
    00000359 34               [12]  776 	inc	(hl)
    0000035A 18 CB            [12]  777 	jr	00171$
    0000035C                        778 00111$:
                                    779 ;kaijugaiden.c:745: for (int i = 0; i < 2; ++i)
    0000035C AF               [ 4]  780 	xor	a, a
    0000035D F8 00            [12]  781 	ldhl	sp,	#0
    0000035F 22               [ 8]  782 	ld	(hl+), a
    00000360 77               [ 8]  783 	ld	(hl), a
    00000361                        784 00174$:
    00000361 F8 00            [12]  785 	ldhl	sp,	#0
    00000363 2A               [ 8]  786 	ld	a, (hl+)
    00000364 D6 02            [ 8]  787 	sub	a, #0x02
    00000366 7E               [ 8]  788 	ld	a, (hl)
    00000367 DE 00            [ 8]  789 	sbc	a, #0x00
    00000369 30 2B            [12]  790 	jr	NC, 00112$
                                    791 ;kaijugaiden.c:746: plat_load_sprite_tiles(spr_fx_nano_data[i], SPR_FX_NANO + i, 1);
    0000036B 2B               [ 8]  792 	dec	hl
    0000036C 7E               [ 8]  793 	ld	a, (hl)
    0000036D C6 30            [ 8]  794 	add	a, #0x30
    0000036F 47               [ 4]  795 	ld	b, a
    00000370 7E               [ 8]  796 	ld	a, (hl)
    00000371 0E 00            [ 8]  797 	ld	c, #0x00
    00000373 87               [ 4]  798 	add	a, a
    00000374 CB 11            [ 8]  799 	rl	c
    00000376 87               [ 4]  800 	add	a, a
    00000377 CB 11            [ 8]  801 	rl	c
    00000379 87               [ 4]  802 	add	a, a
    0000037A CB 11            [ 8]  803 	rl	c
    0000037C 87               [ 4]  804 	add	a, a
    0000037D CB 11            [ 8]  805 	rl	c
    0000037F 6F               [ 4]  806 	ld	l, a
    00000380 61               [ 4]  807 	ld	h, c
    00000381 11rD6r09         [12]  808 	ld	de, #_spr_fx_nano_data
    00000384 19               [ 8]  809 	add	hl, de
                                    810 ;kaijugaiden.c:157: set_sprite_data(first, count, data);
    00000385 E5               [16]  811 	push	hl
    00000386 3E 01            [ 8]  812 	ld	a, #0x01
    00000388 F5               [16]  813 	push	af
    00000389 33               [ 8]  814 	inc	sp
    0000038A C5               [16]  815 	push	bc
    0000038B 33               [ 8]  816 	inc	sp
    0000038C CDr00r00         [24]  817 	call	_set_sprite_data
    0000038F E8 04            [16]  818 	add	sp, #4
                                    819 ;kaijugaiden.c:745: for (int i = 0; i < 2; ++i)
    00000391 F8 00            [12]  820 	ldhl	sp,	#0
    00000393 34               [12]  821 	inc	(hl)
    00000394 18 CB            [12]  822 	jr	00174$
    00000396                        823 00112$:
                                    824 ;kaijugaiden.c:748: for (int i = 0; i < 12; ++i)
    00000396 AF               [ 4]  825 	xor	a, a
    00000397 F8 00            [12]  826 	ldhl	sp,	#0
    00000399 22               [ 8]  827 	ld	(hl+), a
    0000039A 77               [ 8]  828 	ld	(hl), a
    0000039B                        829 00177$:
    0000039B F8 00            [12]  830 	ldhl	sp,	#0
    0000039D 2A               [ 8]  831 	ld	a, (hl+)
    0000039E D6 0C            [ 8]  832 	sub	a, #0x0c
    000003A0 7E               [ 8]  833 	ld	a, (hl)
    000003A1 DE 00            [ 8]  834 	sbc	a, #0x00
    000003A3 30 2B            [12]  835 	jr	NC, 00113$
                                    836 ;kaijugaiden.c:749: plat_load_sprite_tiles(spr_cinematic_a[i], SPR_CINEMATIC_A + i, 1);
    000003A5 2B               [ 8]  837 	dec	hl
    000003A6 7E               [ 8]  838 	ld	a, (hl)
    000003A7 C6 32            [ 8]  839 	add	a, #0x32
    000003A9 47               [ 4]  840 	ld	b, a
    000003AA 7E               [ 8]  841 	ld	a, (hl)
    000003AB 0E 00            [ 8]  842 	ld	c, #0x00
    000003AD 87               [ 4]  843 	add	a, a
    000003AE CB 11            [ 8]  844 	rl	c
    000003B0 87               [ 4]  845 	add	a, a
    000003B1 CB 11            [ 8]  846 	rl	c
    000003B3 87               [ 4]  847 	add	a, a
    000003B4 CB 11            [ 8]  848 	rl	c
    000003B6 87               [ 4]  849 	add	a, a
    000003B7 CB 11            [ 8]  850 	rl	c
    000003B9 6F               [ 4]  851 	ld	l, a
    000003BA 61               [ 4]  852 	ld	h, c
    000003BB 11rF6r09         [12]  853 	ld	de, #_spr_cinematic_a
    000003BE 19               [ 8]  854 	add	hl, de
                                    855 ;kaijugaiden.c:157: set_sprite_data(first, count, data);
    000003BF E5               [16]  856 	push	hl
    000003C0 3E 01            [ 8]  857 	ld	a, #0x01
    000003C2 F5               [16]  858 	push	af
    000003C3 33               [ 8]  859 	inc	sp
    000003C4 C5               [16]  860 	push	bc
    000003C5 33               [ 8]  861 	inc	sp
    000003C6 CDr00r00         [24]  862 	call	_set_sprite_data
    000003C9 E8 04            [16]  863 	add	sp, #4
                                    864 ;kaijugaiden.c:748: for (int i = 0; i < 12; ++i)
    000003CB F8 00            [12]  865 	ldhl	sp,	#0
    000003CD 34               [12]  866 	inc	(hl)
    000003CE 18 CB            [12]  867 	jr	00177$
    000003D0                        868 00113$:
                                    869 ;kaijugaiden.c:750: for (int i = 0; i < 12; ++i)
    000003D0 01 00 00         [12]  870 	ld	bc, #0x0000
    000003D3                        871 00180$:
                                    872 ;kaijugaiden.c:751: plat_load_sprite_tiles(spr_cinematic_b[i], SPR_CINEMATIC_B + i, 1);
    000003D3 79               [ 4]  873 	ld	a,c
    000003D4 FE 0C            [ 8]  874 	cp	a,#0x0c
    000003D6 30 1B            [12]  875 	jr	NC, 00182$
    000003D8 C6 3E            [ 8]  876 	add	a, #0x3e
    000003DA 5F               [ 4]  877 	ld	e, a
    000003DB 69               [ 4]  878 	ld	l, c
    000003DC 60               [ 4]  879 	ld	h, b
    000003DD 29               [ 8]  880 	add	hl, hl
    000003DE 29               [ 8]  881 	add	hl, hl
    000003DF 29               [ 8]  882 	add	hl, hl
    000003E0 29               [ 8]  883 	add	hl, hl
    000003E1 D5               [16]  884 	push	de
    000003E2 11rB6r0A         [12]  885 	ld	de, #_spr_cinematic_b
    000003E5 19               [ 8]  886 	add	hl, de
    000003E6 D1               [12]  887 	pop	de
                                    888 ;kaijugaiden.c:157: set_sprite_data(first, count, data);
    000003E7 E5               [16]  889 	push	hl
    000003E8 16 01            [ 8]  890 	ld	d, #0x01
    000003EA D5               [16]  891 	push	de
    000003EB CDr00r00         [24]  892 	call	_set_sprite_data
    000003EE E8 04            [16]  893 	add	sp, #4
                                    894 ;kaijugaiden.c:750: for (int i = 0; i < 12; ++i)
    000003F0 03               [ 8]  895 	inc	bc
    000003F1 18 E0            [12]  896 	jr	00180$
    000003F3                        897 00182$:
                                    898 ;kaijugaiden.c:752: }
    000003F3 33               [ 8]  899 	inc	sp
    000003F4 33               [ 8]  900 	inc	sp
    000003F5 C9               [16]  901 	ret
    000003F6                        902 _tile_blank:
    000003F6 00                     903 	.db #0x00	; 0
    000003F7 00                     904 	.db #0x00	; 0
    000003F8 00                     905 	.db #0x00	; 0
    000003F9 00                     906 	.db #0x00	; 0
    000003FA 00                     907 	.db #0x00	; 0
    000003FB 00                     908 	.db #0x00	; 0
    000003FC 00                     909 	.db #0x00	; 0
    000003FD 00                     910 	.db #0x00	; 0
    000003FE 00                     911 	.db #0x00	; 0
    000003FF 00                     912 	.db #0x00	; 0
    00000400 00                     913 	.db #0x00	; 0
    00000401 00                     914 	.db #0x00	; 0
    00000402 00                     915 	.db #0x00	; 0
    00000403 00                     916 	.db #0x00	; 0
    00000404 00                     917 	.db #0x00	; 0
    00000405 00                     918 	.db #0x00	; 0
    00000406                        919 _tile_ground_lr:
    00000406 EC                     920 	.db #0xec	; 236
    00000407 FF                     921 	.db #0xff	; 255
    00000408 79                     922 	.db #0x79	; 121	'y'
    00000409 FE                     923 	.db #0xfe	; 254
    0000040A 01                     924 	.db #0x01	; 1
    0000040B FF                     925 	.db #0xff	; 255
    0000040C 80                     926 	.db #0x80	; 128
    0000040D 7F                     927 	.db #0x7f	; 127
    0000040E F9                     928 	.db #0xf9	; 249
    0000040F E6                     929 	.db #0xe6	; 230
    00000410 01                     930 	.db #0x01	; 1
    00000411 FE                     931 	.db #0xfe	; 254
    00000412 FF                     932 	.db #0xff	; 255
    00000413 00                     933 	.db #0x00	; 0
    00000414 FF                     934 	.db #0xff	; 255
    00000415 00                     935 	.db #0x00	; 0
    00000416 27                     936 	.db #0x27	; 39
    00000417 FF                     937 	.db #0xff	; 255
    00000418 3E                     938 	.db #0x3e	; 62
    00000419 FF                     939 	.db #0xff	; 255
    0000041A E1                     940 	.db #0xe1	; 225
    0000041B FF                     941 	.db #0xff	; 255
    0000041C 01                     942 	.db #0x01	; 1
    0000041D FE                     943 	.db #0xfe	; 254
    0000041E C1                     944 	.db #0xc1	; 193
    0000041F 3F                     945 	.db #0x3f	; 63
    00000420 F8                     946 	.db #0xf8	; 248
    00000421 07                     947 	.db #0x07	; 7
    00000422 FF                     948 	.db #0xff	; 255
    00000423 00                     949 	.db #0x00	; 0
    00000424 FF                     950 	.db #0xff	; 255
    00000425 00                     951 	.db #0x00	; 0
    00000426                        952 _tile_water_ab:
    00000426 02                     953 	.db #0x02	; 2
    00000427 FD                     954 	.db #0xfd	; 253
    00000428 00                     955 	.db #0x00	; 0
    00000429 FF                     956 	.db #0xff	; 255
    0000042A 70                     957 	.db #0x70	; 112	'p'
    0000042B 8F                     958 	.db #0x8f	; 143
    0000042C 00                     959 	.db #0x00	; 0
    0000042D FF                     960 	.db #0xff	; 255
    0000042E 00                     961 	.db #0x00	; 0
    0000042F FF                     962 	.db #0xff	; 255
    00000430 60                     963 	.db #0x60	; 96
    00000431 9F                     964 	.db #0x9f	; 159
    00000432 00                     965 	.db #0x00	; 0
    00000433 FF                     966 	.db #0xff	; 255
    00000434 40                     967 	.db #0x40	; 64
    00000435 BF                     968 	.db #0xbf	; 191
    00000436 00                     969 	.db #0x00	; 0
    00000437 FF                     970 	.db #0xff	; 255
    00000438 0E                     971 	.db #0x0e	; 14
    00000439 F1                     972 	.db #0xf1	; 241
    0000043A C0                     973 	.db #0xc0	; 192
    0000043B 3F                     974 	.db #0x3f	; 63
    0000043C 00                     975 	.db #0x00	; 0
    0000043D FF                     976 	.db #0xff	; 255
    0000043E 04                     977 	.db #0x04	; 4
    0000043F FB                     978 	.db #0xfb	; 251
    00000440 00                     979 	.db #0x00	; 0
    00000441 FF                     980 	.db #0xff	; 255
    00000442 00                     981 	.db #0x00	; 0
    00000443 FF                     982 	.db #0xff	; 255
    00000444 00                     983 	.db #0x00	; 0
    00000445 FF                     984 	.db #0xff	; 255
    00000446                        985 _tile_cliff_ab:
    00000446 32                     986 	.db #0x32	; 50	'2'
    00000447 FD                     987 	.db #0xfd	; 253
    00000448 10                     988 	.db #0x10	; 16
    00000449 FF                     989 	.db #0xff	; 255
    0000044A 17                     990 	.db #0x17	; 23
    0000044B F8                     991 	.db #0xf8	; 248
    0000044C 37                     992 	.db #0x37	; 55	'7'
    0000044D F9                     993 	.db #0xf9	; 249
    0000044E 32                     994 	.db #0x32	; 50	'2'
    0000044F FD                     995 	.db #0xfd	; 253
    00000450 11                     996 	.db #0x11	; 17
    00000451 FE                     997 	.db #0xfe	; 254
    00000452 16                     998 	.db #0x16	; 22
    00000453 F9                     999 	.db #0xf9	; 249
    00000454 37                    1000 	.db #0x37	; 55	'7'
    00000455 F9                    1001 	.db #0xf9	; 249
    00000456 32                    1002 	.db #0x32	; 50	'2'
    00000457 FD                    1003 	.db #0xfd	; 253
    00000458 11                    1004 	.db #0x11	; 17
    00000459 FE                    1005 	.db #0xfe	; 254
    0000045A 17                    1006 	.db #0x17	; 23
    0000045B F8                    1007 	.db #0xf8	; 248
    0000045C 37                    1008 	.db #0x37	; 55	'7'
    0000045D F9                    1009 	.db #0xf9	; 249
    0000045E 30                    1010 	.db #0x30	; 48	'0'
    0000045F FF                    1011 	.db #0xff	; 255
    00000460 11                    1012 	.db #0x11	; 17
    00000461 FE                    1013 	.db #0xfe	; 254
    00000462 16                    1014 	.db #0x16	; 22
    00000463 F9                    1015 	.db #0xf9	; 249
    00000464 36                    1016 	.db #0x36	; 54	'6'
    00000465 F9                    1017 	.db #0xf9	; 249
    00000466                       1018 _tile_sky_ab:
    00000466 8F                    1019 	.db #0x8f	; 143
    00000467 E0                    1020 	.db #0xe0	; 224
    00000468 47                    1021 	.db #0x47	; 71	'G'
    00000469 F8                    1022 	.db #0xf8	; 248
    0000046A 41                    1023 	.db #0x41	; 65	'A'
    0000046B 3E                    1024 	.db #0x3e	; 62
    0000046C 88                    1025 	.db #0x88	; 136
    0000046D 07                    1026 	.db #0x07	; 7
    0000046E 7E                    1027 	.db #0x7e	; 126
    0000046F 81                    1028 	.db #0x81	; 129
    00000470 03                    1029 	.db #0x03	; 3
    00000471 FC                    1030 	.db #0xfc	; 252
    00000472 3F                    1031 	.db #0x3f	; 63
    00000473 00                    1032 	.db #0x00	; 0
    00000474 AF                    1033 	.db #0xaf	; 175
    00000475 10                    1034 	.db #0x10	; 16
    00000476 FD                    1035 	.db #0xfd	; 253
    00000477 03                    1036 	.db #0x03	; 3
    00000478 FF                    1037 	.db #0xff	; 255
    00000479 00                    1038 	.db #0x00	; 0
    0000047A 88                    1039 	.db #0x88	; 136
    0000047B 00                    1040 	.db #0x00	; 0
    0000047C 15                    1041 	.db #0x15	; 21
    0000047D E0                    1042 	.db #0xe0	; 224
    0000047E 7C                    1043 	.db #0x7c	; 124
    0000047F 83                    1044 	.db #0x83	; 131
    00000480 F6                    1045 	.db #0xf6	; 246
    00000481 01                    1046 	.db #0x01	; 1
    00000482 FC                    1047 	.db #0xfc	; 252
    00000483 00                    1048 	.db #0x00	; 0
    00000484 CE                    1049 	.db #0xce	; 206
    00000485 31                    1050 	.db #0x31	; 49	'1'
    00000486                       1051 _tile_splash:
    00000486 FF                    1052 	.db #0xff	; 255
    00000487 FF                    1053 	.db #0xff	; 255
    00000488 FF                    1054 	.db #0xff	; 255
    00000489 FF                    1055 	.db #0xff	; 255
    0000048A FF                    1056 	.db #0xff	; 255
    0000048B FF                    1057 	.db #0xff	; 255
    0000048C FF                    1058 	.db #0xff	; 255
    0000048D FF                    1059 	.db #0xff	; 255
    0000048E FF                    1060 	.db #0xff	; 255
    0000048F FF                    1061 	.db #0xff	; 255
    00000490 FF                    1062 	.db #0xff	; 255
    00000491 FF                    1063 	.db #0xff	; 255
    00000492 FF                    1064 	.db #0xff	; 255
    00000493 FF                    1065 	.db #0xff	; 255
    00000494 F0                    1066 	.db #0xf0	; 240
    00000495 FF                    1067 	.db #0xff	; 255
    00000496 FF                    1068 	.db #0xff	; 255
    00000497 FF                    1069 	.db #0xff	; 255
    00000498 FF                    1070 	.db #0xff	; 255
    00000499 FF                    1071 	.db #0xff	; 255
    0000049A FF                    1072 	.db #0xff	; 255
    0000049B FF                    1073 	.db #0xff	; 255
    0000049C FF                    1074 	.db #0xff	; 255
    0000049D FF                    1075 	.db #0xff	; 255
    0000049E FF                    1076 	.db #0xff	; 255
    0000049F FF                    1077 	.db #0xff	; 255
    000004A0 FF                    1078 	.db #0xff	; 255
    000004A1 FF                    1079 	.db #0xff	; 255
    000004A2 FF                    1080 	.db #0xff	; 255
    000004A3 FF                    1081 	.db #0xff	; 255
    000004A4 00                    1082 	.db #0x00	; 0
    000004A5 FF                    1083 	.db #0xff	; 255
    000004A6 FF                    1084 	.db #0xff	; 255
    000004A7 FF                    1085 	.db #0xff	; 255
    000004A8 FF                    1086 	.db #0xff	; 255
    000004A9 FF                    1087 	.db #0xff	; 255
    000004AA FF                    1088 	.db #0xff	; 255
    000004AB FF                    1089 	.db #0xff	; 255
    000004AC FF                    1090 	.db #0xff	; 255
    000004AD FF                    1091 	.db #0xff	; 255
    000004AE FF                    1092 	.db #0xff	; 255
    000004AF FF                    1093 	.db #0xff	; 255
    000004B0 FF                    1094 	.db #0xff	; 255
    000004B1 FF                    1095 	.db #0xff	; 255
    000004B2 FF                    1096 	.db #0xff	; 255
    000004B3 FF                    1097 	.db #0xff	; 255
    000004B4 09                    1098 	.db #0x09	; 9
    000004B5 FF                    1099 	.db #0xff	; 255
    000004B6 FF                    1100 	.db #0xff	; 255
    000004B7 FF                    1101 	.db #0xff	; 255
    000004B8 FF                    1102 	.db #0xff	; 255
    000004B9 FF                    1103 	.db #0xff	; 255
    000004BA FF                    1104 	.db #0xff	; 255
    000004BB FF                    1105 	.db #0xff	; 255
    000004BC FF                    1106 	.db #0xff	; 255
    000004BD FF                    1107 	.db #0xff	; 255
    000004BE FF                    1108 	.db #0xff	; 255
    000004BF FF                    1109 	.db #0xff	; 255
    000004C0 FF                    1110 	.db #0xff	; 255
    000004C1 FF                    1111 	.db #0xff	; 255
    000004C2 EF                    1112 	.db #0xef	; 239
    000004C3 FF                    1113 	.db #0xff	; 255
    000004C4 2F                    1114 	.db #0x2f	; 47
    000004C5 FF                    1115 	.db #0xff	; 255
    000004C6 F6                    1116 	.db #0xf6	; 246
    000004C7 FF                    1117 	.db #0xff	; 255
    000004C8 FF                    1118 	.db #0xff	; 255
    000004C9 FF                    1119 	.db #0xff	; 255
    000004CA FF                    1120 	.db #0xff	; 255
    000004CB FF                    1121 	.db #0xff	; 255
    000004CC FF                    1122 	.db #0xff	; 255
    000004CD FF                    1123 	.db #0xff	; 255
    000004CE FF                    1124 	.db #0xff	; 255
    000004CF FF                    1125 	.db #0xff	; 255
    000004D0 FF                    1126 	.db #0xff	; 255
    000004D1 FF                    1127 	.db #0xff	; 255
    000004D2 FF                    1128 	.db #0xff	; 255
    000004D3 FF                    1129 	.db #0xff	; 255
    000004D4 FF                    1130 	.db #0xff	; 255
    000004D5 FF                    1131 	.db #0xff	; 255
    000004D6 66                    1132 	.db #0x66	; 102	'f'
    000004D7 FF                    1133 	.db #0xff	; 255
    000004D8 FF                    1134 	.db #0xff	; 255
    000004D9 FF                    1135 	.db #0xff	; 255
    000004DA FF                    1136 	.db #0xff	; 255
    000004DB FF                    1137 	.db #0xff	; 255
    000004DC FF                    1138 	.db #0xff	; 255
    000004DD FF                    1139 	.db #0xff	; 255
    000004DE FF                    1140 	.db #0xff	; 255
    000004DF FF                    1141 	.db #0xff	; 255
    000004E0 FF                    1142 	.db #0xff	; 255
    000004E1 FF                    1143 	.db #0xff	; 255
    000004E2 FF                    1144 	.db #0xff	; 255
    000004E3 FF                    1145 	.db #0xff	; 255
    000004E4 FF                    1146 	.db #0xff	; 255
    000004E5 FF                    1147 	.db #0xff	; 255
    000004E6 7B                    1148 	.db #0x7b	; 123
    000004E7 FF                    1149 	.db #0xff	; 255
    000004E8 FF                    1150 	.db #0xff	; 255
    000004E9 FF                    1151 	.db #0xff	; 255
    000004EA FF                    1152 	.db #0xff	; 255
    000004EB FF                    1153 	.db #0xff	; 255
    000004EC FF                    1154 	.db #0xff	; 255
    000004ED FF                    1155 	.db #0xff	; 255
    000004EE FF                    1156 	.db #0xff	; 255
    000004EF FF                    1157 	.db #0xff	; 255
    000004F0 FF                    1158 	.db #0xff	; 255
    000004F1 FF                    1159 	.db #0xff	; 255
    000004F2 FF                    1160 	.db #0xff	; 255
    000004F3 FF                    1161 	.db #0xff	; 255
    000004F4 FF                    1162 	.db #0xff	; 255
    000004F5 FF                    1163 	.db #0xff	; 255
    000004F6 FF                    1164 	.db #0xff	; 255
    000004F7 FF                    1165 	.db #0xff	; 255
    000004F8 FF                    1166 	.db #0xff	; 255
    000004F9 FF                    1167 	.db #0xff	; 255
    000004FA FF                    1168 	.db #0xff	; 255
    000004FB FF                    1169 	.db #0xff	; 255
    000004FC FF                    1170 	.db #0xff	; 255
    000004FD FF                    1171 	.db #0xff	; 255
    000004FE FF                    1172 	.db #0xff	; 255
    000004FF FF                    1173 	.db #0xff	; 255
    00000500 FF                    1174 	.db #0xff	; 255
    00000501 FF                    1175 	.db #0xff	; 255
    00000502 FF                    1176 	.db #0xff	; 255
    00000503 FF                    1177 	.db #0xff	; 255
    00000504 FF                    1178 	.db #0xff	; 255
    00000505 FF                    1179 	.db #0xff	; 255
    00000506                       1180 _tile_title:
    00000506 FF                    1181 	.db #0xff	; 255
    00000507 FF                    1182 	.db #0xff	; 255
    00000508 FF                    1183 	.db #0xff	; 255
    00000509 FF                    1184 	.db #0xff	; 255
    0000050A FF                    1185 	.db #0xff	; 255
    0000050B FF                    1186 	.db #0xff	; 255
    0000050C FF                    1187 	.db #0xff	; 255
    0000050D FF                    1188 	.db #0xff	; 255
    0000050E FF                    1189 	.db #0xff	; 255
    0000050F FF                    1190 	.db #0xff	; 255
    00000510 FF                    1191 	.db #0xff	; 255
    00000511 FF                    1192 	.db #0xff	; 255
    00000512 FF                    1193 	.db #0xff	; 255
    00000513 FF                    1194 	.db #0xff	; 255
    00000514 FF                    1195 	.db #0xff	; 255
    00000515 FF                    1196 	.db #0xff	; 255
    00000516 FF                    1197 	.db #0xff	; 255
    00000517 FF                    1198 	.db #0xff	; 255
    00000518 FF                    1199 	.db #0xff	; 255
    00000519 FF                    1200 	.db #0xff	; 255
    0000051A FF                    1201 	.db #0xff	; 255
    0000051B FF                    1202 	.db #0xff	; 255
    0000051C FF                    1203 	.db #0xff	; 255
    0000051D FF                    1204 	.db #0xff	; 255
    0000051E FF                    1205 	.db #0xff	; 255
    0000051F FF                    1206 	.db #0xff	; 255
    00000520 FF                    1207 	.db #0xff	; 255
    00000521 FF                    1208 	.db #0xff	; 255
    00000522 BF                    1209 	.db #0xbf	; 191
    00000523 FF                    1210 	.db #0xff	; 255
    00000524 E8                    1211 	.db #0xe8	; 232
    00000525 BF                    1212 	.db #0xbf	; 191
    00000526 FF                    1213 	.db #0xff	; 255
    00000527 FF                    1214 	.db #0xff	; 255
    00000528 FF                    1215 	.db #0xff	; 255
    00000529 FF                    1216 	.db #0xff	; 255
    0000052A FF                    1217 	.db #0xff	; 255
    0000052B FF                    1218 	.db #0xff	; 255
    0000052C FF                    1219 	.db #0xff	; 255
    0000052D FF                    1220 	.db #0xff	; 255
    0000052E FF                    1221 	.db #0xff	; 255
    0000052F FF                    1222 	.db #0xff	; 255
    00000530 FF                    1223 	.db #0xff	; 255
    00000531 FF                    1224 	.db #0xff	; 255
    00000532 FF                    1225 	.db #0xff	; 255
    00000533 FF                    1226 	.db #0xff	; 255
    00000534 A1                    1227 	.db #0xa1	; 161
    00000535 FF                    1228 	.db #0xff	; 255
    00000536 FF                    1229 	.db #0xff	; 255
    00000537 FF                    1230 	.db #0xff	; 255
    00000538 FF                    1231 	.db #0xff	; 255
    00000539 FF                    1232 	.db #0xff	; 255
    0000053A FF                    1233 	.db #0xff	; 255
    0000053B FF                    1234 	.db #0xff	; 255
    0000053C FF                    1235 	.db #0xff	; 255
    0000053D FF                    1236 	.db #0xff	; 255
    0000053E FF                    1237 	.db #0xff	; 255
    0000053F FF                    1238 	.db #0xff	; 255
    00000540 FF                    1239 	.db #0xff	; 255
    00000541 FF                    1240 	.db #0xff	; 255
    00000542 FF                    1241 	.db #0xff	; 255
    00000543 FF                    1242 	.db #0xff	; 255
    00000544 7F                    1243 	.db #0x7f	; 127
    00000545 FF                    1244 	.db #0xff	; 255
    00000546 FF                    1245 	.db #0xff	; 255
    00000547 FF                    1246 	.db #0xff	; 255
    00000548 FF                    1247 	.db #0xff	; 255
    00000549 FF                    1248 	.db #0xff	; 255
    0000054A FF                    1249 	.db #0xff	; 255
    0000054B FF                    1250 	.db #0xff	; 255
    0000054C FF                    1251 	.db #0xff	; 255
    0000054D FF                    1252 	.db #0xff	; 255
    0000054E FC                    1253 	.db #0xfc	; 252
    0000054F FF                    1254 	.db #0xff	; 255
    00000550 FF                    1255 	.db #0xff	; 255
    00000551 FC                    1256 	.db #0xfc	; 252
    00000552 FC                    1257 	.db #0xfc	; 252
    00000553 FF                    1258 	.db #0xff	; 255
    00000554 F8                    1259 	.db #0xf8	; 248
    00000555 FF                    1260 	.db #0xff	; 255
    00000556 52                    1261 	.db #0x52	; 82	'R'
    00000557 AD                    1262 	.db #0xad	; 173
    00000558 11                    1263 	.db #0x11	; 17
    00000559 FF                    1264 	.db #0xff	; 255
    0000055A 40                    1265 	.db #0x40	; 64
    0000055B FF                    1266 	.db #0xff	; 255
    0000055C DF                    1267 	.db #0xdf	; 223
    0000055D FF                    1268 	.db #0xff	; 255
    0000055E 23                    1269 	.db #0x23	; 35
    0000055F FF                    1270 	.db #0xff	; 255
    00000560 28                    1271 	.db #0x28	; 40
    00000561 D7                    1272 	.db #0xd7	; 215
    00000562 40                    1273 	.db #0x40	; 64
    00000563 FF                    1274 	.db #0xff	; 255
    00000564 06                    1275 	.db #0x06	; 6
    00000565 FF                    1276 	.db #0xff	; 255
    00000566 2A                    1277 	.db #0x2a	; 42
    00000567 F5                    1278 	.db #0xf5	; 245
    00000568 62                    1279 	.db #0x62	; 98	'b'
    00000569 FF                    1280 	.db #0xff	; 255
    0000056A 0A                    1281 	.db #0x0a	; 10
    0000056B FF                    1282 	.db #0xff	; 255
    0000056C D8                    1283 	.db #0xd8	; 216
    0000056D FF                    1284 	.db #0xff	; 255
    0000056E 11                    1285 	.db #0x11	; 17
    0000056F FF                    1286 	.db #0xff	; 255
    00000570 A8                    1287 	.db #0xa8	; 168
    00000571 57                    1288 	.db #0x57	; 87	'W'
    00000572 42                    1289 	.db #0x42	; 66	'B'
    00000573 FF                    1290 	.db #0xff	; 255
    00000574 06                    1291 	.db #0x06	; 6
    00000575 FF                    1292 	.db #0xff	; 255
    00000576 FF                    1293 	.db #0xff	; 255
    00000577 7F                    1294 	.db #0x7f	; 127
    00000578 FF                    1295 	.db #0xff	; 255
    00000579 FF                    1296 	.db #0xff	; 255
    0000057A FF                    1297 	.db #0xff	; 255
    0000057B FF                    1298 	.db #0xff	; 255
    0000057C 7F                    1299 	.db #0x7f	; 127
    0000057D FF                    1300 	.db #0xff	; 255
    0000057E DF                    1301 	.db #0xdf	; 223
    0000057F 7F                    1302 	.db #0x7f	; 127
    00000580 3F                    1303 	.db #0x3f	; 63
    00000581 5F                    1304 	.db #0x5f	; 95
    00000582 1F                    1305 	.db #0x1f	; 31
    00000583 FF                    1306 	.db #0xff	; 255
    00000584 BF                    1307 	.db #0xbf	; 191
    00000585 FF                    1308 	.db #0xff	; 255
    00000586 FC                    1309 	.db #0xfc	; 252
    00000587 FF                    1310 	.db #0xff	; 255
    00000588 FF                    1311 	.db #0xff	; 255
    00000589 FF                    1312 	.db #0xff	; 255
    0000058A FF                    1313 	.db #0xff	; 255
    0000058B FF                    1314 	.db #0xff	; 255
    0000058C FF                    1315 	.db #0xff	; 255
    0000058D FF                    1316 	.db #0xff	; 255
    0000058E FF                    1317 	.db #0xff	; 255
    0000058F FF                    1318 	.db #0xff	; 255
    00000590 FF                    1319 	.db #0xff	; 255
    00000591 FF                    1320 	.db #0xff	; 255
    00000592 FF                    1321 	.db #0xff	; 255
    00000593 FF                    1322 	.db #0xff	; 255
    00000594 FF                    1323 	.db #0xff	; 255
    00000595 FF                    1324 	.db #0xff	; 255
    00000596 AA                    1325 	.db #0xaa	; 170
    00000597 FF                    1326 	.db #0xff	; 255
    00000598 FF                    1327 	.db #0xff	; 255
    00000599 FF                    1328 	.db #0xff	; 255
    0000059A FF                    1329 	.db #0xff	; 255
    0000059B FF                    1330 	.db #0xff	; 255
    0000059C FF                    1331 	.db #0xff	; 255
    0000059D FF                    1332 	.db #0xff	; 255
    0000059E FF                    1333 	.db #0xff	; 255
    0000059F FF                    1334 	.db #0xff	; 255
    000005A0 FF                    1335 	.db #0xff	; 255
    000005A1 FF                    1336 	.db #0xff	; 255
    000005A2 FF                    1337 	.db #0xff	; 255
    000005A3 FF                    1338 	.db #0xff	; 255
    000005A4 FF                    1339 	.db #0xff	; 255
    000005A5 FF                    1340 	.db #0xff	; 255
    000005A6 20                    1341 	.db #0x20	; 32
    000005A7 FF                    1342 	.db #0xff	; 255
    000005A8 FF                    1343 	.db #0xff	; 255
    000005A9 FF                    1344 	.db #0xff	; 255
    000005AA FF                    1345 	.db #0xff	; 255
    000005AB FF                    1346 	.db #0xff	; 255
    000005AC FF                    1347 	.db #0xff	; 255
    000005AD FF                    1348 	.db #0xff	; 255
    000005AE FF                    1349 	.db #0xff	; 255
    000005AF FF                    1350 	.db #0xff	; 255
    000005B0 FF                    1351 	.db #0xff	; 255
    000005B1 FF                    1352 	.db #0xff	; 255
    000005B2 FF                    1353 	.db #0xff	; 255
    000005B3 FF                    1354 	.db #0xff	; 255
    000005B4 FF                    1355 	.db #0xff	; 255
    000005B5 FF                    1356 	.db #0xff	; 255
    000005B6 BF                    1357 	.db #0xbf	; 191
    000005B7 FF                    1358 	.db #0xff	; 255
    000005B8 FF                    1359 	.db #0xff	; 255
    000005B9 FF                    1360 	.db #0xff	; 255
    000005BA FF                    1361 	.db #0xff	; 255
    000005BB FF                    1362 	.db #0xff	; 255
    000005BC FF                    1363 	.db #0xff	; 255
    000005BD FF                    1364 	.db #0xff	; 255
    000005BE FF                    1365 	.db #0xff	; 255
    000005BF FF                    1366 	.db #0xff	; 255
    000005C0 FF                    1367 	.db #0xff	; 255
    000005C1 FF                    1368 	.db #0xff	; 255
    000005C2 FF                    1369 	.db #0xff	; 255
    000005C3 FF                    1370 	.db #0xff	; 255
    000005C4 FF                    1371 	.db #0xff	; 255
    000005C5 FF                    1372 	.db #0xff	; 255
    000005C6                       1373 _tile_hp_seg:
    000005C6 FF                    1374 	.db #0xff	; 255
    000005C7 FF                    1375 	.db #0xff	; 255
    000005C8 FF                    1376 	.db #0xff	; 255
    000005C9 FF                    1377 	.db #0xff	; 255
    000005CA EF                    1378 	.db #0xef	; 239
    000005CB FF                    1379 	.db #0xff	; 255
    000005CC E3                    1380 	.db #0xe3	; 227
    000005CD FF                    1381 	.db #0xff	; 255
    000005CE E3                    1382 	.db #0xe3	; 227
    000005CF FF                    1383 	.db #0xff	; 255
    000005D0 E7                    1384 	.db #0xe7	; 231
    000005D1 FF                    1385 	.db #0xff	; 255
    000005D2 FF                    1386 	.db #0xff	; 255
    000005D3 FF                    1387 	.db #0xff	; 255
    000005D4 FF                    1388 	.db #0xff	; 255
    000005D5 FF                    1389 	.db #0xff	; 255
    000005D6                       1390 _tile_boss_hp_bar:
    000005D6 FF                    1391 	.db #0xff	; 255
    000005D7 FF                    1392 	.db #0xff	; 255
    000005D8 FF                    1393 	.db #0xff	; 255
    000005D9 FF                    1394 	.db #0xff	; 255
    000005DA FF                    1395 	.db #0xff	; 255
    000005DB FF                    1396 	.db #0xff	; 255
    000005DC 80                    1397 	.db #0x80	; 128
    000005DD FF                    1398 	.db #0xff	; 255
    000005DE 80                    1399 	.db #0x80	; 128
    000005DF FF                    1400 	.db #0xff	; 255
    000005E0 FF                    1401 	.db #0xff	; 255
    000005E1 FF                    1402 	.db #0xff	; 255
    000005E2 FF                    1403 	.db #0xff	; 255
    000005E3 FF                    1404 	.db #0xff	; 255
    000005E4 FF                    1405 	.db #0xff	; 255
    000005E5 FF                    1406 	.db #0xff	; 255
    000005E6 FF                    1407 	.db #0xff	; 255
    000005E7 FF                    1408 	.db #0xff	; 255
    000005E8 FF                    1409 	.db #0xff	; 255
    000005E9 FF                    1410 	.db #0xff	; 255
    000005EA FF                    1411 	.db #0xff	; 255
    000005EB FF                    1412 	.db #0xff	; 255
    000005EC 21                    1413 	.db #0x21	; 33
    000005ED DE                    1414 	.db #0xde	; 222
    000005EE 01                    1415 	.db #0x01	; 1
    000005EF FE                    1416 	.db #0xfe	; 254
    000005F0 FF                    1417 	.db #0xff	; 255
    000005F1 FF                    1418 	.db #0xff	; 255
    000005F2 FF                    1419 	.db #0xff	; 255
    000005F3 FF                    1420 	.db #0xff	; 255
    000005F4 FF                    1421 	.db #0xff	; 255
    000005F5 FF                    1422 	.db #0xff	; 255
    000005F6 FF                    1423 	.db #0xff	; 255
    000005F7 FF                    1424 	.db #0xff	; 255
    000005F8 FF                    1425 	.db #0xff	; 255
    000005F9 FF                    1426 	.db #0xff	; 255
    000005FA FF                    1427 	.db #0xff	; 255
    000005FB FF                    1428 	.db #0xff	; 255
    000005FC 00                    1429 	.db #0x00	; 0
    000005FD FF                    1430 	.db #0xff	; 255
    000005FE 00                    1431 	.db #0x00	; 0
    000005FF FF                    1432 	.db #0xff	; 255
    00000600 FF                    1433 	.db #0xff	; 255
    00000601 FF                    1434 	.db #0xff	; 255
    00000602 FF                    1435 	.db #0xff	; 255
    00000603 FF                    1436 	.db #0xff	; 255
    00000604 FF                    1437 	.db #0xff	; 255
    00000605 FF                    1438 	.db #0xff	; 255
    00000606 FF                    1439 	.db #0xff	; 255
    00000607 FF                    1440 	.db #0xff	; 255
    00000608 FF                    1441 	.db #0xff	; 255
    00000609 FF                    1442 	.db #0xff	; 255
    0000060A FF                    1443 	.db #0xff	; 255
    0000060B FF                    1444 	.db #0xff	; 255
    0000060C 01                    1445 	.db #0x01	; 1
    0000060D FF                    1446 	.db #0xff	; 255
    0000060E 01                    1447 	.db #0x01	; 1
    0000060F FF                    1448 	.db #0xff	; 255
    00000610 FF                    1449 	.db #0xff	; 255
    00000611 FF                    1450 	.db #0xff	; 255
    00000612 FF                    1451 	.db #0xff	; 255
    00000613 FF                    1452 	.db #0xff	; 255
    00000614 FF                    1453 	.db #0xff	; 255
    00000615 FF                    1454 	.db #0xff	; 255
    00000616 FF                    1455 	.db #0xff	; 255
    00000617 FF                    1456 	.db #0xff	; 255
    00000618 FF                    1457 	.db #0xff	; 255
    00000619 FF                    1458 	.db #0xff	; 255
    0000061A FF                    1459 	.db #0xff	; 255
    0000061B FF                    1460 	.db #0xff	; 255
    0000061C 04                    1461 	.db #0x04	; 4
    0000061D FB                    1462 	.db #0xfb	; 251
    0000061E 05                    1463 	.db #0x05	; 5
    0000061F FB                    1464 	.db #0xfb	; 251
    00000620 FF                    1465 	.db #0xff	; 255
    00000621 FF                    1466 	.db #0xff	; 255
    00000622 FF                    1467 	.db #0xff	; 255
    00000623 FF                    1468 	.db #0xff	; 255
    00000624 FF                    1469 	.db #0xff	; 255
    00000625 FF                    1470 	.db #0xff	; 255
    00000626 FF                    1471 	.db #0xff	; 255
    00000627 FF                    1472 	.db #0xff	; 255
    00000628 FF                    1473 	.db #0xff	; 255
    00000629 FF                    1474 	.db #0xff	; 255
    0000062A FF                    1475 	.db #0xff	; 255
    0000062B FF                    1476 	.db #0xff	; 255
    0000062C 01                    1477 	.db #0x01	; 1
    0000062D FF                    1478 	.db #0xff	; 255
    0000062E 01                    1479 	.db #0x01	; 1
    0000062F FF                    1480 	.db #0xff	; 255
    00000630 FF                    1481 	.db #0xff	; 255
    00000631 FF                    1482 	.db #0xff	; 255
    00000632 FF                    1483 	.db #0xff	; 255
    00000633 FF                    1484 	.db #0xff	; 255
    00000634 FF                    1485 	.db #0xff	; 255
    00000635 FF                    1486 	.db #0xff	; 255
    00000636                       1487 _tile_digit:
    00000636 3C                    1488 	.db #0x3c	; 60
    00000637 00                    1489 	.db #0x00	; 0
    00000638 66                    1490 	.db #0x66	; 102	'f'
    00000639 00                    1491 	.db #0x00	; 0
    0000063A 6E                    1492 	.db #0x6e	; 110	'n'
    0000063B 00                    1493 	.db #0x00	; 0
    0000063C 76                    1494 	.db #0x76	; 118	'v'
    0000063D 00                    1495 	.db #0x00	; 0
    0000063E 66                    1496 	.db #0x66	; 102	'f'
    0000063F 00                    1497 	.db #0x00	; 0
    00000640 66                    1498 	.db #0x66	; 102	'f'
    00000641 00                    1499 	.db #0x00	; 0
    00000642 3C                    1500 	.db #0x3c	; 60
    00000643 00                    1501 	.db #0x00	; 0
    00000644 00                    1502 	.db #0x00	; 0
    00000645 00                    1503 	.db #0x00	; 0
    00000646 18                    1504 	.db #0x18	; 24
    00000647 00                    1505 	.db #0x00	; 0
    00000648 38                    1506 	.db #0x38	; 56	'8'
    00000649 00                    1507 	.db #0x00	; 0
    0000064A 18                    1508 	.db #0x18	; 24
    0000064B 00                    1509 	.db #0x00	; 0
    0000064C 18                    1510 	.db #0x18	; 24
    0000064D 00                    1511 	.db #0x00	; 0
    0000064E 18                    1512 	.db #0x18	; 24
    0000064F 00                    1513 	.db #0x00	; 0
    00000650 18                    1514 	.db #0x18	; 24
    00000651 00                    1515 	.db #0x00	; 0
    00000652 7E                    1516 	.db #0x7e	; 126
    00000653 00                    1517 	.db #0x00	; 0
    00000654 00                    1518 	.db #0x00	; 0
    00000655 00                    1519 	.db #0x00	; 0
    00000656 3C                    1520 	.db #0x3c	; 60
    00000657 00                    1521 	.db #0x00	; 0
    00000658 66                    1522 	.db #0x66	; 102	'f'
    00000659 00                    1523 	.db #0x00	; 0
    0000065A 06                    1524 	.db #0x06	; 6
    0000065B 00                    1525 	.db #0x00	; 0
    0000065C 0C                    1526 	.db #0x0c	; 12
    0000065D 00                    1527 	.db #0x00	; 0
    0000065E 18                    1528 	.db #0x18	; 24
    0000065F 00                    1529 	.db #0x00	; 0
    00000660 30                    1530 	.db #0x30	; 48	'0'
    00000661 00                    1531 	.db #0x00	; 0
    00000662 7E                    1532 	.db #0x7e	; 126
    00000663 00                    1533 	.db #0x00	; 0
    00000664 00                    1534 	.db #0x00	; 0
    00000665 00                    1535 	.db #0x00	; 0
    00000666 3C                    1536 	.db #0x3c	; 60
    00000667 00                    1537 	.db #0x00	; 0
    00000668 66                    1538 	.db #0x66	; 102	'f'
    00000669 00                    1539 	.db #0x00	; 0
    0000066A 06                    1540 	.db #0x06	; 6
    0000066B 00                    1541 	.db #0x00	; 0
    0000066C 1C                    1542 	.db #0x1c	; 28
    0000066D 00                    1543 	.db #0x00	; 0
    0000066E 06                    1544 	.db #0x06	; 6
    0000066F 00                    1545 	.db #0x00	; 0
    00000670 66                    1546 	.db #0x66	; 102	'f'
    00000671 00                    1547 	.db #0x00	; 0
    00000672 3C                    1548 	.db #0x3c	; 60
    00000673 00                    1549 	.db #0x00	; 0
    00000674 00                    1550 	.db #0x00	; 0
    00000675 00                    1551 	.db #0x00	; 0
    00000676 0C                    1552 	.db #0x0c	; 12
    00000677 00                    1553 	.db #0x00	; 0
    00000678 1C                    1554 	.db #0x1c	; 28
    00000679 00                    1555 	.db #0x00	; 0
    0000067A 3C                    1556 	.db #0x3c	; 60
    0000067B 00                    1557 	.db #0x00	; 0
    0000067C 6C                    1558 	.db #0x6c	; 108	'l'
    0000067D 00                    1559 	.db #0x00	; 0
    0000067E 7E                    1560 	.db #0x7e	; 126
    0000067F 00                    1561 	.db #0x00	; 0
    00000680 0C                    1562 	.db #0x0c	; 12
    00000681 00                    1563 	.db #0x00	; 0
    00000682 0C                    1564 	.db #0x0c	; 12
    00000683 00                    1565 	.db #0x00	; 0
    00000684 00                    1566 	.db #0x00	; 0
    00000685 00                    1567 	.db #0x00	; 0
    00000686 7E                    1568 	.db #0x7e	; 126
    00000687 00                    1569 	.db #0x00	; 0
    00000688 60                    1570 	.db #0x60	; 96
    00000689 00                    1571 	.db #0x00	; 0
    0000068A 7C                    1572 	.db #0x7c	; 124
    0000068B 00                    1573 	.db #0x00	; 0
    0000068C 06                    1574 	.db #0x06	; 6
    0000068D 00                    1575 	.db #0x00	; 0
    0000068E 06                    1576 	.db #0x06	; 6
    0000068F 00                    1577 	.db #0x00	; 0
    00000690 66                    1578 	.db #0x66	; 102	'f'
    00000691 00                    1579 	.db #0x00	; 0
    00000692 3C                    1580 	.db #0x3c	; 60
    00000693 00                    1581 	.db #0x00	; 0
    00000694 00                    1582 	.db #0x00	; 0
    00000695 00                    1583 	.db #0x00	; 0
    00000696 3C                    1584 	.db #0x3c	; 60
    00000697 00                    1585 	.db #0x00	; 0
    00000698 66                    1586 	.db #0x66	; 102	'f'
    00000699 00                    1587 	.db #0x00	; 0
    0000069A 60                    1588 	.db #0x60	; 96
    0000069B 00                    1589 	.db #0x00	; 0
    0000069C 7C                    1590 	.db #0x7c	; 124
    0000069D 00                    1591 	.db #0x00	; 0
    0000069E 66                    1592 	.db #0x66	; 102	'f'
    0000069F 00                    1593 	.db #0x00	; 0
    000006A0 66                    1594 	.db #0x66	; 102	'f'
    000006A1 00                    1595 	.db #0x00	; 0
    000006A2 3C                    1596 	.db #0x3c	; 60
    000006A3 00                    1597 	.db #0x00	; 0
    000006A4 00                    1598 	.db #0x00	; 0
    000006A5 00                    1599 	.db #0x00	; 0
    000006A6 7E                    1600 	.db #0x7e	; 126
    000006A7 00                    1601 	.db #0x00	; 0
    000006A8 06                    1602 	.db #0x06	; 6
    000006A9 00                    1603 	.db #0x00	; 0
    000006AA 0C                    1604 	.db #0x0c	; 12
    000006AB 00                    1605 	.db #0x00	; 0
    000006AC 18                    1606 	.db #0x18	; 24
    000006AD 00                    1607 	.db #0x00	; 0
    000006AE 18                    1608 	.db #0x18	; 24
    000006AF 00                    1609 	.db #0x00	; 0
    000006B0 18                    1610 	.db #0x18	; 24
    000006B1 00                    1611 	.db #0x00	; 0
    000006B2 18                    1612 	.db #0x18	; 24
    000006B3 00                    1613 	.db #0x00	; 0
    000006B4 00                    1614 	.db #0x00	; 0
    000006B5 00                    1615 	.db #0x00	; 0
    000006B6 3C                    1616 	.db #0x3c	; 60
    000006B7 00                    1617 	.db #0x00	; 0
    000006B8 66                    1618 	.db #0x66	; 102	'f'
    000006B9 00                    1619 	.db #0x00	; 0
    000006BA 66                    1620 	.db #0x66	; 102	'f'
    000006BB 00                    1621 	.db #0x00	; 0
    000006BC 3C                    1622 	.db #0x3c	; 60
    000006BD 00                    1623 	.db #0x00	; 0
    000006BE 66                    1624 	.db #0x66	; 102	'f'
    000006BF 00                    1625 	.db #0x00	; 0
    000006C0 66                    1626 	.db #0x66	; 102	'f'
    000006C1 00                    1627 	.db #0x00	; 0
    000006C2 3C                    1628 	.db #0x3c	; 60
    000006C3 00                    1629 	.db #0x00	; 0
    000006C4 00                    1630 	.db #0x00	; 0
    000006C5 00                    1631 	.db #0x00	; 0
    000006C6 3C                    1632 	.db #0x3c	; 60
    000006C7 00                    1633 	.db #0x00	; 0
    000006C8 66                    1634 	.db #0x66	; 102	'f'
    000006C9 00                    1635 	.db #0x00	; 0
    000006CA 66                    1636 	.db #0x66	; 102	'f'
    000006CB 00                    1637 	.db #0x00	; 0
    000006CC 3E                    1638 	.db #0x3e	; 62
    000006CD 00                    1639 	.db #0x00	; 0
    000006CE 06                    1640 	.db #0x06	; 6
    000006CF 00                    1641 	.db #0x00	; 0
    000006D0 66                    1642 	.db #0x66	; 102	'f'
    000006D1 00                    1643 	.db #0x00	; 0
    000006D2 3C                    1644 	.db #0x3c	; 60
    000006D3 00                    1645 	.db #0x00	; 0
    000006D4 00                    1646 	.db #0x00	; 0
    000006D5 00                    1647 	.db #0x00	; 0
    000006D6                       1648 _spr_rei_idle_data:
    000006D6 00                    1649 	.db #0x00	; 0
    000006D7 00                    1650 	.db #0x00	; 0
    000006D8 02                    1651 	.db #0x02	; 2
    000006D9 00                    1652 	.db #0x00	; 0
    000006DA 00                    1653 	.db #0x00	; 0
    000006DB 02                    1654 	.db #0x02	; 2
    000006DC 00                    1655 	.db #0x00	; 0
    000006DD 03                    1656 	.db #0x03	; 3
    000006DE 02                    1657 	.db #0x02	; 2
    000006DF 01                    1658 	.db #0x01	; 1
    000006E0 00                    1659 	.db #0x00	; 0
    000006E1 01                    1660 	.db #0x01	; 1
    000006E2 03                    1661 	.db #0x03	; 3
    000006E3 01                    1662 	.db #0x01	; 1
    000006E4 00                    1663 	.db #0x00	; 0
    000006E5 03                    1664 	.db #0x03	; 3
    000006E6 00                    1665 	.db #0x00	; 0
    000006E7 00                    1666 	.db #0x00	; 0
    000006E8 40                    1667 	.db #0x40	; 64
    000006E9 00                    1668 	.db #0x00	; 0
    000006EA 00                    1669 	.db #0x00	; 0
    000006EB 40                    1670 	.db #0x40	; 64
    000006EC 00                    1671 	.db #0x00	; 0
    000006ED C0                    1672 	.db #0xc0	; 192
    000006EE 40                    1673 	.db #0x40	; 64
    000006EF 80                    1674 	.db #0x80	; 128
    000006F0 00                    1675 	.db #0x00	; 0
    000006F1 80                    1676 	.db #0x80	; 128
    000006F2 C0                    1677 	.db #0xc0	; 192
    000006F3 80                    1678 	.db #0x80	; 128
    000006F4 00                    1679 	.db #0x00	; 0
    000006F5 C0                    1680 	.db #0xc0	; 192
    000006F6 00                    1681 	.db #0x00	; 0
    000006F7 03                    1682 	.db #0x03	; 3
    000006F8 02                    1683 	.db #0x02	; 2
    000006F9 01                    1684 	.db #0x01	; 1
    000006FA 04                    1685 	.db #0x04	; 4
    000006FB 03                    1686 	.db #0x03	; 3
    000006FC 05                    1687 	.db #0x05	; 5
    000006FD 03                    1688 	.db #0x03	; 3
    000006FE 05                    1689 	.db #0x05	; 5
    000006FF 03                    1690 	.db #0x03	; 3
    00000700 04                    1691 	.db #0x04	; 4
    00000701 03                    1692 	.db #0x03	; 3
    00000702 00                    1693 	.db #0x00	; 0
    00000703 03                    1694 	.db #0x03	; 3
    00000704 03                    1695 	.db #0x03	; 3
    00000705 00                    1696 	.db #0x00	; 0
    00000706 00                    1697 	.db #0x00	; 0
    00000707 C0                    1698 	.db #0xc0	; 192
    00000708 40                    1699 	.db #0x40	; 64
    00000709 80                    1700 	.db #0x80	; 128
    0000070A 20                    1701 	.db #0x20	; 32
    0000070B C0                    1702 	.db #0xc0	; 192
    0000070C A0                    1703 	.db #0xa0	; 160
    0000070D C0                    1704 	.db #0xc0	; 192
    0000070E A0                    1705 	.db #0xa0	; 160
    0000070F C0                    1706 	.db #0xc0	; 192
    00000710 20                    1707 	.db #0x20	; 32
    00000711 C0                    1708 	.db #0xc0	; 192
    00000712 00                    1709 	.db #0x00	; 0
    00000713 C0                    1710 	.db #0xc0	; 192
    00000714 C0                    1711 	.db #0xc0	; 192
    00000715 00                    1712 	.db #0x00	; 0
    00000716 03                    1713 	.db #0x03	; 3
    00000717 00                    1714 	.db #0x00	; 0
    00000718 01                    1715 	.db #0x01	; 1
    00000719 02                    1716 	.db #0x02	; 2
    0000071A 01                    1717 	.db #0x01	; 1
    0000071B 02                    1718 	.db #0x02	; 2
    0000071C 01                    1719 	.db #0x01	; 1
    0000071D 02                    1720 	.db #0x02	; 2
    0000071E 00                    1721 	.db #0x00	; 0
    0000071F 02                    1722 	.db #0x02	; 2
    00000720 00                    1723 	.db #0x00	; 0
    00000721 02                    1724 	.db #0x02	; 2
    00000722 07                    1725 	.db #0x07	; 7
    00000723 02                    1726 	.db #0x02	; 2
    00000724 07                    1727 	.db #0x07	; 7
    00000725 02                    1728 	.db #0x02	; 2
    00000726 C0                    1729 	.db #0xc0	; 192
    00000727 00                    1730 	.db #0x00	; 0
    00000728 80                    1731 	.db #0x80	; 128
    00000729 40                    1732 	.db #0x40	; 64
    0000072A 80                    1733 	.db #0x80	; 128
    0000072B 40                    1734 	.db #0x40	; 64
    0000072C 80                    1735 	.db #0x80	; 128
    0000072D 40                    1736 	.db #0x40	; 64
    0000072E 00                    1737 	.db #0x00	; 0
    0000072F 40                    1738 	.db #0x40	; 64
    00000730 80                    1739 	.db #0x80	; 128
    00000731 40                    1740 	.db #0x40	; 64
    00000732 E0                    1741 	.db #0xe0	; 224
    00000733 40                    1742 	.db #0x40	; 64
    00000734 E0                    1743 	.db #0xe0	; 224
    00000735 40                    1744 	.db #0x40	; 64
    00000736                       1745 _spr_rei_run_data:
    00000736 00                    1746 	.db #0x00	; 0
    00000737 00                    1747 	.db #0x00	; 0
    00000738 00                    1748 	.db #0x00	; 0
    00000739 00                    1749 	.db #0x00	; 0
    0000073A 00                    1750 	.db #0x00	; 0
    0000073B 00                    1751 	.db #0x00	; 0
    0000073C 00                    1752 	.db #0x00	; 0
    0000073D 00                    1753 	.db #0x00	; 0
    0000073E 03                    1754 	.db #0x03	; 3
    0000073F 00                    1755 	.db #0x00	; 0
    00000740 1D                    1756 	.db #0x1d	; 29
    00000741 00                    1757 	.db #0x00	; 0
    00000742 17                    1758 	.db #0x17	; 23
    00000743 00                    1759 	.db #0x00	; 0
    00000744 02                    1760 	.db #0x02	; 2
    00000745 01                    1761 	.db #0x01	; 1
    00000746 00                    1762 	.db #0x00	; 0
    00000747 00                    1763 	.db #0x00	; 0
    00000748 00                    1764 	.db #0x00	; 0
    00000749 00                    1765 	.db #0x00	; 0
    0000074A 70                    1766 	.db #0x70	; 112	'p'
    0000074B 00                    1767 	.db #0x00	; 0
    0000074C 40                    1768 	.db #0x40	; 64
    0000074D 30                    1769 	.db #0x30	; 48	'0'
    0000074E 48                    1770 	.db #0x48	; 72	'H'
    0000074F 30                    1771 	.db #0x30	; 48	'0'
    00000750 E8                    1772 	.db #0xe8	; 232
    00000751 30                    1773 	.db #0x30	; 48	'0'
    00000752 6C                    1774 	.db #0x6c	; 108	'l'
    00000753 B0                    1775 	.db #0xb0	; 176
    00000754 3C                    1776 	.db #0x3c	; 60
    00000755 F2                    1777 	.db #0xf2	; 242
    00000756 3C                    1778 	.db #0x3c	; 60
    00000757 03                    1779 	.db #0x03	; 3
    00000758 68                    1780 	.db #0x68	; 104	'h'
    00000759 06                    1781 	.db #0x06	; 6
    0000075A 42                    1782 	.db #0x42	; 66	'B'
    0000075B 04                    1783 	.db #0x04	; 4
    0000075C 07                    1784 	.db #0x07	; 7
    0000075D 00                    1785 	.db #0x00	; 0
    0000075E 1F                    1786 	.db #0x1f	; 31
    0000075F 03                    1787 	.db #0x03	; 3
    00000760 3A                    1788 	.db #0x3a	; 58
    00000761 07                    1789 	.db #0x07	; 7
    00000762 06                    1790 	.db #0x06	; 6
    00000763 21                    1791 	.db #0x21	; 33
    00000764 64                    1792 	.db #0x64	; 100	'd'
    00000765 03                    1793 	.db #0x03	; 3
    00000766 00                    1794 	.db #0x00	; 0
    00000767 F6                    1795 	.db #0xf6	; 246
    00000768 52                    1796 	.db #0x52	; 82	'R'
    00000769 F4                    1797 	.db #0xf4	; 244
    0000076A 4C                    1798 	.db #0x4c	; 76	'L'
    0000076B FC                    1799 	.db #0xfc	; 252
    0000076C 60                    1800 	.db #0x60	; 96
    0000076D CC                    1801 	.db #0xcc	; 204
    0000076E E0                    1802 	.db #0xe0	; 224
    0000076F C0                    1803 	.db #0xc0	; 192
    00000770 68                    1804 	.db #0x68	; 104	'h'
    00000771 F0                    1805 	.db #0xf0	; 240
    00000772 20                    1806 	.db #0x20	; 32
    00000773 F8                    1807 	.db #0xf8	; 248
    00000774 BC                    1808 	.db #0xbc	; 188
    00000775 18                    1809 	.db #0x18	; 24
    00000776 03                    1810 	.db #0x03	; 3
    00000777 0E                    1811 	.db #0x0e	; 14
    00000778 14                    1812 	.db #0x14	; 20
    00000779 0E                    1813 	.db #0x0e	; 14
    0000077A 08                    1814 	.db #0x08	; 8
    0000077B 1C                    1815 	.db #0x1c	; 28
    0000077C 28                    1816 	.db #0x28	; 40
    0000077D 18                    1817 	.db #0x18	; 24
    0000077E 31                    1818 	.db #0x31	; 49	'1'
    0000077F 18                    1819 	.db #0x18	; 24
    00000780 24                    1820 	.db #0x24	; 36
    00000781 18                    1821 	.db #0x18	; 24
    00000782 00                    1822 	.db #0x00	; 0
    00000783 00                    1823 	.db #0x00	; 0
    00000784 00                    1824 	.db #0x00	; 0
    00000785 00                    1825 	.db #0x00	; 0
    00000786 10                    1826 	.db #0x10	; 16
    00000787 38                    1827 	.db #0x38	; 56	'8'
    00000788 78                    1828 	.db #0x78	; 120	'x'
    00000789 30                    1829 	.db #0x30	; 48	'0'
    0000078A 30                    1830 	.db #0x30	; 48	'0'
    0000078B 60                    1831 	.db #0x60	; 96
    0000078C 70                    1832 	.db #0x70	; 112	'p'
    0000078D E0                    1833 	.db #0xe0	; 224
    0000078E 78                    1834 	.db #0x78	; 120	'x'
    0000078F 30                    1835 	.db #0x30	; 48	'0'
    00000790 10                    1836 	.db #0x10	; 16
    00000791 00                    1837 	.db #0x00	; 0
    00000792 00                    1838 	.db #0x00	; 0
    00000793 00                    1839 	.db #0x00	; 0
    00000794 00                    1840 	.db #0x00	; 0
    00000795 00                    1841 	.db #0x00	; 0
    00000796                       1842 _spr_rei_attack_data:
    00000796 00                    1843 	.db #0x00	; 0
    00000797 00                    1844 	.db #0x00	; 0
    00000798 00                    1845 	.db #0x00	; 0
    00000799 00                    1846 	.db #0x00	; 0
    0000079A 01                    1847 	.db #0x01	; 1
    0000079B 00                    1848 	.db #0x00	; 0
    0000079C 06                    1849 	.db #0x06	; 6
    0000079D 01                    1850 	.db #0x01	; 1
    0000079E 38                    1851 	.db #0x38	; 56	'8'
    0000079F 03                    1852 	.db #0x03	; 3
    000007A0 10                    1853 	.db #0x10	; 16
    000007A1 23                    1854 	.db #0x23	; 35
    000007A2 F0                    1855 	.db #0xf0	; 240
    000007A3 03                    1856 	.db #0x03	; 3
    000007A4 38                    1857 	.db #0x38	; 56	'8'
    000007A5 C3                    1858 	.db #0xc3	; 195
    000007A6 00                    1859 	.db #0x00	; 0
    000007A7 00                    1860 	.db #0x00	; 0
    000007A8 0C                    1861 	.db #0x0c	; 12
    000007A9 00                    1862 	.db #0x00	; 0
    000007AA F0                    1863 	.db #0xf0	; 240
    000007AB 08                    1864 	.db #0x08	; 8
    000007AC 08                    1865 	.db #0x08	; 8
    000007AD F0                    1866 	.db #0xf0	; 240
    000007AE 02                    1867 	.db #0x02	; 2
    000007AF FC                    1868 	.db #0xfc	; 252
    000007B0 2B                    1869 	.db #0x2b	; 43
    000007B1 FC                    1870 	.db #0xfc	; 252
    000007B2 1A                    1871 	.db #0x1a	; 26
    000007B3 FC                    1872 	.db #0xfc	; 252
    000007B4 64                    1873 	.db #0x64	; 100	'd'
    000007B5 FE                    1874 	.db #0xfe	; 254
    000007B6 04                    1875 	.db #0x04	; 4
    000007B7 FB                    1876 	.db #0xfb	; 251
    000007B8 A0                    1877 	.db #0xa0	; 160
    000007B9 1F                    1878 	.db #0x1f	; 31
    000007BA 7E                    1879 	.db #0x7e	; 126
    000007BB 1F                    1880 	.db #0x1f	; 31
    000007BC 66                    1881 	.db #0x66	; 102	'f'
    000007BD 1F                    1882 	.db #0x1f	; 31
    000007BE 37                    1883 	.db #0x37	; 55	'7'
    000007BF 03                    1884 	.db #0x03	; 3
    000007C0 01                    1885 	.db #0x01	; 1
    000007C1 03                    1886 	.db #0x03	; 3
    000007C2 02                    1887 	.db #0x02	; 2
    000007C3 01                    1888 	.db #0x01	; 1
    000007C4 02                    1889 	.db #0x02	; 2
    000007C5 01                    1890 	.db #0x01	; 1
    000007C6 31                    1891 	.db #0x31	; 49	'1'
    000007C7 FE                    1892 	.db #0xfe	; 254
    000007C8 B2                    1893 	.db #0xb2	; 178
    000007C9 CD                    1894 	.db #0xcd	; 205
    000007CA 8B                    1895 	.db #0x8b	; 139
    000007CB C4                    1896 	.db #0xc4	; 196
    000007CC 0A                    1897 	.db #0x0a	; 10
    000007CD C4                    1898 	.db #0xc4	; 196
    000007CE 62                    1899 	.db #0x62	; 98	'b'
    000007CF C4                    1900 	.db #0xc4	; 196
    000007D0 C8                    1901 	.db #0xc8	; 200
    000007D1 C4                    1902 	.db #0xc4	; 196
    000007D2 F8                    1903 	.db #0xf8	; 248
    000007D3 C0                    1904 	.db #0xc0	; 192
    000007D4 E0                    1905 	.db #0xe0	; 224
    000007D5 C0                    1906 	.db #0xc0	; 192
    000007D6 02                    1907 	.db #0x02	; 2
    000007D7 01                    1908 	.db #0x01	; 1
    000007D8 00                    1909 	.db #0x00	; 0
    000007D9 03                    1910 	.db #0x03	; 3
    000007DA 04                    1911 	.db #0x04	; 4
    000007DB 03                    1912 	.db #0x03	; 3
    000007DC 08                    1913 	.db #0x08	; 8
    000007DD 07                    1914 	.db #0x07	; 7
    000007DE 01                    1915 	.db #0x01	; 1
    000007DF 0F                    1916 	.db #0x0f	; 15
    000007E0 17                    1917 	.db #0x17	; 23
    000007E1 0E                    1918 	.db #0x0e	; 14
    000007E2 08                    1919 	.db #0x08	; 8
    000007E3 1C                    1920 	.db #0x1c	; 28
    000007E4 3C                    1921 	.db #0x3c	; 60
    000007E5 18                    1922 	.db #0x18	; 24
    000007E6 7B                    1923 	.db #0x7b	; 123
    000007E7 E4                    1924 	.db #0xe4	; 228
    000007E8 3D                    1925 	.db #0x3d	; 61
    000007E9 FF                    1926 	.db #0xff	; 255
    000007EA E3                    1927 	.db #0xe3	; 227
    000007EB FE                    1928 	.db #0xfe	; 254
    000007EC F4                    1929 	.db #0xf4	; 244
    000007ED FE                    1930 	.db #0xfe	; 254
    000007EE 78                    1931 	.db #0x78	; 120	'x'
    000007EF F6                    1932 	.db #0xf6	; 246
    000007F0 78                    1933 	.db #0x78	; 120	'x'
    000007F1 38                    1934 	.db #0x38	; 56	'8'
    000007F2 3C                    1935 	.db #0x3c	; 60
    000007F3 1C                    1936 	.db #0x1c	; 28
    000007F4 1C                    1937 	.db #0x1c	; 28
    000007F5 0E                    1938 	.db #0x0e	; 14
    000007F6                       1939 _spr_boss_p1_data:
    000007F6 03                    1940 	.db #0x03	; 3
    000007F7 00                    1941 	.db #0x00	; 0
    000007F8 14                    1942 	.db #0x14	; 20
    000007F9 0F                    1943 	.db #0x0f	; 15
    000007FA 78                    1944 	.db #0x78	; 120	'x'
    000007FB 1F                    1945 	.db #0x1f	; 31
    000007FC 70                    1946 	.db #0x70	; 112	'p'
    000007FD FF                    1947 	.db #0xff	; 255
    000007FE F0                    1948 	.db #0xf0	; 240
    000007FF 7F                    1949 	.db #0x7f	; 127
    00000800 70                    1950 	.db #0x70	; 112	'p'
    00000801 3F                    1951 	.db #0x3f	; 63
    00000802 10                    1952 	.db #0x10	; 16
    00000803 3F                    1953 	.db #0x3f	; 63
    00000804 13                    1954 	.db #0x13	; 19
    00000805 0F                    1955 	.db #0x0f	; 15
    00000806 FF                    1956 	.db #0xff	; 255
    00000807 00                    1957 	.db #0x00	; 0
    00000808 07                    1958 	.db #0x07	; 7
    00000809 FF                    1959 	.db #0xff	; 255
    0000080A 00                    1960 	.db #0x00	; 0
    0000080B FF                    1961 	.db #0xff	; 255
    0000080C 01                    1962 	.db #0x01	; 1
    0000080D FF                    1963 	.db #0xff	; 255
    0000080E 0E                    1964 	.db #0x0e	; 14
    0000080F FF                    1965 	.db #0xff	; 255
    00000810 9F                    1966 	.db #0x9f	; 159
    00000811 7F                    1967 	.db #0x7f	; 127
    00000812 07                    1968 	.db #0x07	; 7
    00000813 FF                    1969 	.db #0xff	; 255
    00000814 0A                    1970 	.db #0x0a	; 10
    00000815 FF                    1971 	.db #0xff	; 255
    00000816 80                    1972 	.db #0x80	; 128
    00000817 00                    1973 	.db #0x00	; 0
    00000818 90                    1974 	.db #0x90	; 144
    00000819 E0                    1975 	.db #0xe0	; 224
    0000081A 08                    1976 	.db #0x08	; 8
    0000081B F0                    1977 	.db #0xf0	; 240
    0000081C A0                    1978 	.db #0xa0	; 160
    0000081D C1                    1979 	.db #0xc1	; 193
    0000081E 98                    1980 	.db #0x98	; 152
    0000081F 01                    1981 	.db #0x01	; 1
    00000820 21                    1982 	.db #0x21	; 33
    00000821 F0                    1983 	.db #0xf0	; 240
    00000822 25                    1984 	.db #0x25	; 37
    00000823 F8                    1985 	.db #0xf8	; 248
    00000824 10                    1986 	.db #0x10	; 16
    00000825 F8                    1987 	.db #0xf8	; 248
    00000826 00                    1988 	.db #0x00	; 0
    00000827 00                    1989 	.db #0x00	; 0
    00000828 00                    1990 	.db #0x00	; 0
    00000829 00                    1991 	.db #0x00	; 0
    0000082A 30                    1992 	.db #0x30	; 48	'0'
    0000082B 00                    1993 	.db #0x00	; 0
    0000082C C3                    1994 	.db #0xc3	; 195
    0000082D 60                    1995 	.db #0x60	; 96
    0000082E C0                    1996 	.db #0xc0	; 192
    0000082F FE                    1997 	.db #0xfe	; 254
    00000830 F4                    1998 	.db #0xf4	; 244
    00000831 F8                    1999 	.db #0xf8	; 248
    00000832 C0                    2000 	.db #0xc0	; 192
    00000833 80                    2001 	.db #0x80	; 128
    00000834 50                    2002 	.db #0x50	; 80	'P'
    00000835 E0                    2003 	.db #0xe0	; 224
    00000836 1C                    2004 	.db #0x1c	; 28
    00000837 0F                    2005 	.db #0x0f	; 15
    00000838 0A                    2006 	.db #0x0a	; 10
    00000839 04                    2007 	.db #0x04	; 4
    0000083A 02                    2008 	.db #0x02	; 2
    0000083B 01                    2009 	.db #0x01	; 1
    0000083C 0F                    2010 	.db #0x0f	; 15
    0000083D 03                    2011 	.db #0x03	; 3
    0000083E 3F                    2012 	.db #0x3f	; 63
    0000083F 7E                    2013 	.db #0x7e	; 126
    00000840 50                    2014 	.db #0x50	; 80	'P'
    00000841 26                    2015 	.db #0x26	; 38
    00000842 0C                    2016 	.db #0x0c	; 12
    00000843 00                    2017 	.db #0x00	; 0
    00000844 00                    2018 	.db #0x00	; 0
    00000845 00                    2019 	.db #0x00	; 0
    00000846 71                    2020 	.db #0x71	; 113	'q'
    00000847 FF                    2021 	.db #0xff	; 255
    00000848 71                    2022 	.db #0x71	; 113	'q'
    00000849 FF                    2023 	.db #0xff	; 255
    0000084A FF                    2024 	.db #0xff	; 255
    0000084B E7                    2025 	.db #0xe7	; 231
    0000084C B6                    2026 	.db #0xb6	; 182
    0000084D CF                    2027 	.db #0xcf	; 207
    0000084E 38                    2028 	.db #0x38	; 56	'8'
    0000084F 1F                    2029 	.db #0x1f	; 31
    00000850 50                    2030 	.db #0x50	; 80	'P'
    00000851 2F                    2031 	.db #0x2f	; 47
    00000852 6C                    2032 	.db #0x6c	; 108	'l'
    00000853 01                    2033 	.db #0x01	; 1
    00000854 00                    2034 	.db #0x00	; 0
    00000855 00                    2035 	.db #0x00	; 0
    00000856 0E                    2036 	.db #0x0e	; 14
    00000857 F8                    2037 	.db #0xf8	; 248
    00000858 8D                    2038 	.db #0x8d	; 141
    00000859 FE                    2039 	.db #0xfe	; 254
    0000085A 07                    2040 	.db #0x07	; 7
    0000085B FF                    2041 	.db #0xff	; 255
    0000085C 3F                    2042 	.db #0x3f	; 63
    0000085D FF                    2043 	.db #0xff	; 255
    0000085E 27                    2044 	.db #0x27	; 39
    0000085F FF                    2045 	.db #0xff	; 255
    00000860 1A                    2046 	.db #0x1a	; 26
    00000861 87                    2047 	.db #0x87	; 135
    00000862 0B                    2048 	.db #0x0b	; 11
    00000863 87                    2049 	.db #0x87	; 135
    00000864 0E                    2050 	.db #0x0e	; 14
    00000865 00                    2051 	.db #0x00	; 0
    00000866 5C                    2052 	.db #0x5c	; 92
    00000867 38                    2053 	.db #0x38	; 56	'8'
    00000868 0E                    2054 	.db #0x0e	; 14
    00000869 1C                    2055 	.db #0x1c	; 28
    0000086A 1E                    2056 	.db #0x1e	; 30
    0000086B FC                    2057 	.db #0xfc	; 252
    0000086C F8                    2058 	.db #0xf8	; 248
    0000086D FC                    2059 	.db #0xfc	; 252
    0000086E 88                    2060 	.db #0x88	; 136
    0000086F F0                    2061 	.db #0xf0	; 240
    00000870 00                    2062 	.db #0x00	; 0
    00000871 00                    2063 	.db #0x00	; 0
    00000872 80                    2064 	.db #0x80	; 128
    00000873 00                    2065 	.db #0x00	; 0
    00000874 80                    2066 	.db #0x80	; 128
    00000875 00                    2067 	.db #0x00	; 0
    00000876                       2068 _spr_boss_p2_data:
    00000876 00                    2069 	.db #0x00	; 0
    00000877 00                    2070 	.db #0x00	; 0
    00000878 00                    2071 	.db #0x00	; 0
    00000879 00                    2072 	.db #0x00	; 0
    0000087A 00                    2073 	.db #0x00	; 0
    0000087B 01                    2074 	.db #0x01	; 1
    0000087C 00                    2075 	.db #0x00	; 0
    0000087D 00                    2076 	.db #0x00	; 0
    0000087E 00                    2077 	.db #0x00	; 0
    0000087F 00                    2078 	.db #0x00	; 0
    00000880 00                    2079 	.db #0x00	; 0
    00000881 00                    2080 	.db #0x00	; 0
    00000882 00                    2081 	.db #0x00	; 0
    00000883 00                    2082 	.db #0x00	; 0
    00000884 01                    2083 	.db #0x01	; 1
    00000885 00                    2084 	.db #0x00	; 0
    00000886 04                    2085 	.db #0x04	; 4
    00000887 00                    2086 	.db #0x00	; 0
    00000888 9F                    2087 	.db #0x9f	; 159
    00000889 00                    2088 	.db #0x00	; 0
    0000088A 00                    2089 	.db #0x00	; 0
    0000088B FF                    2090 	.db #0xff	; 255
    0000088C A0                    2091 	.db #0xa0	; 160
    0000088D 7F                    2092 	.db #0x7f	; 127
    0000088E 21                    2093 	.db #0x21	; 33
    0000088F 7F                    2094 	.db #0x7f	; 127
    00000890 DC                    2095 	.db #0xdc	; 220
    00000891 3F                    2096 	.db #0x3f	; 63
    00000892 AC                    2097 	.db #0xac	; 172
    00000893 1F                    2098 	.db #0x1f	; 31
    00000894 0C                    2099 	.db #0x0c	; 12
    00000895 1F                    2100 	.db #0x1f	; 31
    00000896 60                    2101 	.db #0x60	; 96
    00000897 00                    2102 	.db #0x00	; 0
    00000898 5D                    2103 	.db #0x5d	; 93
    00000899 80                    2104 	.db #0x80	; 128
    0000089A 07                    2105 	.db #0x07	; 7
    0000089B F8                    2106 	.db #0xf8	; 248
    0000089C F0                    2107 	.db #0xf0	; 240
    0000089D FF                    2108 	.db #0xff	; 255
    0000089E C0                    2109 	.db #0xc0	; 192
    0000089F FF                    2110 	.db #0xff	; 255
    000008A0 00                    2111 	.db #0x00	; 0
    000008A1 FF                    2112 	.db #0xff	; 255
    000008A2 E4                    2113 	.db #0xe4	; 228
    000008A3 1F                    2114 	.db #0x1f	; 31
    000008A4 16                    2115 	.db #0x16	; 22
    000008A5 0F                    2116 	.db #0x0f	; 15
    000008A6 00                    2117 	.db #0x00	; 0
    000008A7 00                    2118 	.db #0x00	; 0
    000008A8 80                    2119 	.db #0x80	; 128
    000008A9 00                    2120 	.db #0x00	; 0
    000008AA 00                    2121 	.db #0x00	; 0
    000008AB 00                    2122 	.db #0x00	; 0
    000008AC E0                    2123 	.db #0xe0	; 224
    000008AD 00                    2124 	.db #0x00	; 0
    000008AE FC                    2125 	.db #0xfc	; 252
    000008AF C0                    2126 	.db #0xc0	; 192
    000008B0 48                    2127 	.db #0x48	; 72	'H'
    000008B1 F0                    2128 	.db #0xf0	; 240
    000008B2 C3                    2129 	.db #0xc3	; 195
    000008B3 E0                    2130 	.db #0xe0	; 224
    000008B4 2D                    2131 	.db #0x2d	; 45
    000008B5 F2                    2132 	.db #0xf2	; 242
    000008B6 00                    2133 	.db #0x00	; 0
    000008B7 00                    2134 	.db #0x00	; 0
    000008B8 00                    2135 	.db #0x00	; 0
    000008B9 01                    2136 	.db #0x01	; 1
    000008BA 05                    2137 	.db #0x05	; 5
    000008BB 03                    2138 	.db #0x03	; 3
    000008BC 1E                    2139 	.db #0x1e	; 30
    000008BD 0F                    2140 	.db #0x0f	; 15
    000008BE 32                    2141 	.db #0x32	; 50	'2'
    000008BF 7F                    2142 	.db #0x7f	; 127
    000008C0 40                    2143 	.db #0x40	; 64
    000008C1 E3                    2144 	.db #0xe3	; 227
    000008C2 06                    2145 	.db #0x06	; 6
    000008C3 C0                    2146 	.db #0xc0	; 192
    000008C4 40                    2147 	.db #0x40	; 64
    000008C5 00                    2148 	.db #0x00	; 0
    000008C6 5C                    2149 	.db #0x5c	; 92
    000008C7 B9                    2150 	.db #0xb9	; 185
    000008C8 F0                    2151 	.db #0xf0	; 240
    000008C9 F9                    2152 	.db #0xf9	; 249
    000008CA C8                    2153 	.db #0xc8	; 200
    000008CB F3                    2154 	.db #0xf3	; 243
    000008CC 80                    2155 	.db #0x80	; 128
    000008CD 0F                    2156 	.db #0x0f	; 15
    000008CE 2F                    2157 	.db #0x2f	; 47
    000008CF 1F                    2158 	.db #0x1f	; 31
    000008D0 3F                    2159 	.db #0x3f	; 63
    000008D1 7F                    2160 	.db #0x7f	; 127
    000008D2 7F                    2161 	.db #0x7f	; 127
    000008D3 FF                    2162 	.db #0xff	; 255
    000008D4 FF                    2163 	.db #0xff	; 255
    000008D5 00                    2164 	.db #0x00	; 0
    000008D6 05                    2165 	.db #0x05	; 5
    000008D7 FE                    2166 	.db #0xfe	; 254
    000008D8 9E                    2167 	.db #0x9e	; 158
    000008D9 FC                    2168 	.db #0xfc	; 252
    000008DA 1E                    2169 	.db #0x1e	; 30
    000008DB FD                    2170 	.db #0xfd	; 253
    000008DC 36                    2171 	.db #0x36	; 54	'6'
    000008DD FF                    2172 	.db #0xff	; 255
    000008DE 9E                    2173 	.db #0x9e	; 158
    000008DF FF                    2174 	.db #0xff	; 255
    000008E0 FC                    2175 	.db #0xfc	; 252
    000008E1 FF                    2176 	.db #0xff	; 255
    000008E2 FD                    2177 	.db #0xfd	; 253
    000008E3 FF                    2178 	.db #0xff	; 255
    000008E4 FF                    2179 	.db #0xff	; 255
    000008E5 00                    2180 	.db #0x00	; 0
    000008E6 40                    2181 	.db #0x40	; 64
    000008E7 3E                    2182 	.db #0x3e	; 62
    000008E8 57                    2183 	.db #0x57	; 87	'W'
    000008E9 2C                    2184 	.db #0x2c	; 44
    000008EA A4                    2185 	.db #0xa4	; 164
    000008EB 1E                    2186 	.db #0x1e	; 30
    000008EC 78                    2187 	.db #0x78	; 120	'x'
    000008ED 0C                    2188 	.db #0x0c	; 12
    000008EE 4C                    2189 	.db #0x4c	; 76	'L'
    000008EF B8                    2190 	.db #0xb8	; 184
    000008F0 E6                    2191 	.db #0xe6	; 230
    000008F1 D8                    2192 	.db #0xd8	; 216
    000008F2 90                    2193 	.db #0x90	; 144
    000008F3 FC                    2194 	.db #0xfc	; 252
    000008F4 30                    2195 	.db #0x30	; 48	'0'
    000008F5 00                    2196 	.db #0x00	; 0
    000008F6                       2197 _spr_boss_p3_data:
    000008F6 00                    2198 	.db #0x00	; 0
    000008F7 00                    2199 	.db #0x00	; 0
    000008F8 02                    2200 	.db #0x02	; 2
    000008F9 00                    2201 	.db #0x00	; 0
    000008FA 08                    2202 	.db #0x08	; 8
    000008FB 00                    2203 	.db #0x00	; 0
    000008FC 01                    2204 	.db #0x01	; 1
    000008FD 00                    2205 	.db #0x00	; 0
    000008FE 0A                    2206 	.db #0x0a	; 10
    000008FF 01                    2207 	.db #0x01	; 1
    00000900 02                    2208 	.db #0x02	; 2
    00000901 09                    2209 	.db #0x09	; 9
    00000902 07                    2210 	.db #0x07	; 7
    00000903 09                    2211 	.db #0x09	; 9
    00000904 30                    2212 	.db #0x30	; 48	'0'
    00000905 07                    2213 	.db #0x07	; 7
    00000906 18                    2214 	.db #0x18	; 24
    00000907 00                    2215 	.db #0x00	; 0
    00000908 78                    2216 	.db #0x78	; 120	'x'
    00000909 00                    2217 	.db #0x00	; 0
    0000090A 0A                    2218 	.db #0x0a	; 10
    0000090B C0                    2219 	.db #0xc0	; 192
    0000090C 34                    2220 	.db #0x34	; 52	'4'
    0000090D 80                    2221 	.db #0x80	; 128
    0000090E 9F                    2222 	.db #0x9f	; 159
    0000090F 20                    2223 	.db #0x20	; 32
    00000910 82                    2224 	.db #0x82	; 130
    00000911 3F                    2225 	.db #0x3f	; 63
    00000912 52                    2226 	.db #0x52	; 82	'R'
    00000913 BF                    2227 	.db #0xbf	; 191
    00000914 CB                    2228 	.db #0xcb	; 203
    00000915 FF                    2229 	.db #0xff	; 255
    00000916 30                    2230 	.db #0x30	; 48	'0'
    00000917 00                    2231 	.db #0x00	; 0
    00000918 1A                    2232 	.db #0x1a	; 26
    00000919 04                    2233 	.db #0x04	; 4
    0000091A 67                    2234 	.db #0x67	; 103	'g'
    0000091B 00                    2235 	.db #0x00	; 0
    0000091C 28                    2236 	.db #0x28	; 40
    0000091D 01                    2237 	.db #0x01	; 1
    0000091E 7D                    2238 	.db #0x7d	; 125
    0000091F 80                    2239 	.db #0x80	; 128
    00000920 43                    2240 	.db #0x43	; 67	'C'
    00000921 FC                    2241 	.db #0xfc	; 252
    00000922 48                    2242 	.db #0x48	; 72	'H'
    00000923 FF                    2243 	.db #0xff	; 255
    00000924 D3                    2244 	.db #0xd3	; 211
    00000925 FF                    2245 	.db #0xff	; 255
    00000926 00                    2246 	.db #0x00	; 0
    00000927 00                    2247 	.db #0x00	; 0
    00000928 00                    2248 	.db #0x00	; 0
    00000929 00                    2249 	.db #0x00	; 0
    0000092A 30                    2250 	.db #0x30	; 48	'0'
    0000092B 00                    2251 	.db #0x00	; 0
    0000092C 80                    2252 	.db #0x80	; 128
    0000092D 10                    2253 	.db #0x10	; 16
    0000092E 40                    2254 	.db #0x40	; 64
    0000092F 90                    2255 	.db #0x90	; 144
    00000930 60                    2256 	.db #0x60	; 96
    00000931 90                    2257 	.db #0x90	; 144
    00000932 40                    2258 	.db #0x40	; 64
    00000933 B0                    2259 	.db #0xb0	; 176
    00000934 04                    2260 	.db #0x04	; 4
    00000935 E0                    2261 	.db #0xe0	; 224
    00000936 14                    2262 	.db #0x14	; 20
    00000937 03                    2263 	.db #0x03	; 3
    00000938 3C                    2264 	.db #0x3c	; 60
    00000939 03                    2265 	.db #0x03	; 3
    0000093A 1B                    2266 	.db #0x1b	; 27
    0000093B 07                    2267 	.db #0x07	; 7
    0000093C 02                    2268 	.db #0x02	; 2
    0000093D 01                    2269 	.db #0x01	; 1
    0000093E 00                    2270 	.db #0x00	; 0
    0000093F 00                    2271 	.db #0x00	; 0
    00000940 00                    2272 	.db #0x00	; 0
    00000941 00                    2273 	.db #0x00	; 0
    00000942 00                    2274 	.db #0x00	; 0
    00000943 00                    2275 	.db #0x00	; 0
    00000944 00                    2276 	.db #0x00	; 0
    00000945 00                    2277 	.db #0x00	; 0
    00000946 FE                    2278 	.db #0xfe	; 254
    00000947 FF                    2279 	.db #0xff	; 255
    00000948 FA                    2280 	.db #0xfa	; 250
    00000949 FC                    2281 	.db #0xfc	; 252
    0000094A FC                    2282 	.db #0xfc	; 252
    0000094B F8                    2283 	.db #0xf8	; 248
    0000094C E4                    2284 	.db #0xe4	; 228
    0000094D F8                    2285 	.db #0xf8	; 248
    0000094E 70                    2286 	.db #0x70	; 112	'p'
    0000094F E0                    2287 	.db #0xe0	; 224
    00000950 20                    2288 	.db #0x20	; 32
    00000951 E0                    2289 	.db #0xe0	; 224
    00000952 10                    2290 	.db #0x10	; 16
    00000953 20                    2291 	.db #0x20	; 32
    00000954 10                    2292 	.db #0x10	; 16
    00000955 00                    2293 	.db #0x00	; 0
    00000956 7E                    2294 	.db #0x7e	; 126
    00000957 FF                    2295 	.db #0xff	; 255
    00000958 5F                    2296 	.db #0x5f	; 95
    00000959 3F                    2297 	.db #0x3f	; 63
    0000095A 1F                    2298 	.db #0x1f	; 31
    0000095B 3F                    2299 	.db #0x3f	; 63
    0000095C 37                    2300 	.db #0x37	; 55	'7'
    0000095D 0F                    2301 	.db #0x0f	; 15
    0000095E 0E                    2302 	.db #0x0e	; 14
    0000095F 07                    2303 	.db #0x07	; 7
    00000960 08                    2304 	.db #0x08	; 8
    00000961 07                    2305 	.db #0x07	; 7
    00000962 00                    2306 	.db #0x00	; 0
    00000963 0C                    2307 	.db #0x0c	; 12
    00000964 18                    2308 	.db #0x18	; 24
    00000965 00                    2309 	.db #0x00	; 0
    00000966 6C                    2310 	.db #0x6c	; 108	'l'
    00000967 80                    2311 	.db #0x80	; 128
    00000968 3C                    2312 	.db #0x3c	; 60
    00000969 C0                    2313 	.db #0xc0	; 192
    0000096A D8                    2314 	.db #0xd8	; 216
    0000096B E0                    2315 	.db #0xe0	; 224
    0000096C E0                    2316 	.db #0xe0	; 224
    0000096D 00                    2317 	.db #0x00	; 0
    0000096E 00                    2318 	.db #0x00	; 0
    0000096F 00                    2319 	.db #0x00	; 0
    00000970 00                    2320 	.db #0x00	; 0
    00000971 00                    2321 	.db #0x00	; 0
    00000972 00                    2322 	.db #0x00	; 0
    00000973 00                    2323 	.db #0x00	; 0
    00000974 00                    2324 	.db #0x00	; 0
    00000975 00                    2325 	.db #0x00	; 0
    00000976                       2326 _spr_minion_data:
    00000976 00                    2327 	.db #0x00	; 0
    00000977 00                    2328 	.db #0x00	; 0
    00000978 04                    2329 	.db #0x04	; 4
    00000979 00                    2330 	.db #0x00	; 0
    0000097A 0C                    2331 	.db #0x0c	; 12
    0000097B 00                    2332 	.db #0x00	; 0
    0000097C 10                    2333 	.db #0x10	; 16
    0000097D 08                    2334 	.db #0x08	; 8
    0000097E 30                    2335 	.db #0x30	; 48	'0'
    0000097F 08                    2336 	.db #0x08	; 8
    00000980 44                    2337 	.db #0x44	; 68	'D'
    00000981 38                    2338 	.db #0x38	; 56	'8'
    00000982 07                    2339 	.db #0x07	; 7
    00000983 78                    2340 	.db #0x78	; 120	'x'
    00000984 67                    2341 	.db #0x67	; 103	'g'
    00000985 38                    2342 	.db #0x38	; 56	'8'
    00000986 00                    2343 	.db #0x00	; 0
    00000987 00                    2344 	.db #0x00	; 0
    00000988 20                    2345 	.db #0x20	; 32
    00000989 00                    2346 	.db #0x00	; 0
    0000098A 30                    2347 	.db #0x30	; 48	'0'
    0000098B 00                    2348 	.db #0x00	; 0
    0000098C 08                    2349 	.db #0x08	; 8
    0000098D 10                    2350 	.db #0x10	; 16
    0000098E 0C                    2351 	.db #0x0c	; 12
    0000098F 10                    2352 	.db #0x10	; 16
    00000990 22                    2353 	.db #0x22	; 34
    00000991 1C                    2354 	.db #0x1c	; 28
    00000992 A0                    2355 	.db #0xa0	; 160
    00000993 5E                    2356 	.db #0x5e	; 94
    00000994 E6                    2357 	.db #0xe6	; 230
    00000995 1C                    2358 	.db #0x1c	; 28
    00000996 13                    2359 	.db #0x13	; 19
    00000997 38                    2360 	.db #0x38	; 56	'8'
    00000998 10                    2361 	.db #0x10	; 16
    00000999 0F                    2362 	.db #0x0f	; 15
    0000099A 0B                    2363 	.db #0x0b	; 11
    0000099B 04                    2364 	.db #0x04	; 4
    0000099C 0C                    2365 	.db #0x0c	; 12
    0000099D 07                    2366 	.db #0x07	; 7
    0000099E 0B                    2367 	.db #0x0b	; 11
    0000099F 07                    2368 	.db #0x07	; 7
    000009A0 19                    2369 	.db #0x19	; 25
    000009A1 0F                    2370 	.db #0x0f	; 15
    000009A2 05                    2371 	.db #0x05	; 5
    000009A3 18                    2372 	.db #0x18	; 24
    000009A4 00                    2373 	.db #0x00	; 0
    000009A5 00                    2374 	.db #0x00	; 0
    000009A6 C8                    2375 	.db #0xc8	; 200
    000009A7 1C                    2376 	.db #0x1c	; 28
    000009A8 08                    2377 	.db #0x08	; 8
    000009A9 F0                    2378 	.db #0xf0	; 240
    000009AA D0                    2379 	.db #0xd0	; 208
    000009AB 20                    2380 	.db #0x20	; 32
    000009AC 30                    2381 	.db #0x30	; 48	'0'
    000009AD E0                    2382 	.db #0xe0	; 224
    000009AE D0                    2383 	.db #0xd0	; 208
    000009AF E0                    2384 	.db #0xe0	; 224
    000009B0 98                    2385 	.db #0x98	; 152
    000009B1 F0                    2386 	.db #0xf0	; 240
    000009B2 A0                    2387 	.db #0xa0	; 160
    000009B3 18                    2388 	.db #0x18	; 24
    000009B4 00                    2389 	.db #0x00	; 0
    000009B5 00                    2390 	.db #0x00	; 0
    000009B6                       2391 _spr_fx_hit_data:
    000009B6 00                    2392 	.db #0x00	; 0
    000009B7 00                    2393 	.db #0x00	; 0
    000009B8 18                    2394 	.db #0x18	; 24
    000009B9 00                    2395 	.db #0x00	; 0
    000009BA 0F                    2396 	.db #0x0f	; 15
    000009BB 00                    2397 	.db #0x00	; 0
    000009BC 05                    2398 	.db #0x05	; 5
    000009BD 03                    2399 	.db #0x03	; 3
    000009BE 04                    2400 	.db #0x04	; 4
    000009BF 03                    2401 	.db #0x03	; 3
    000009C0 1F                    2402 	.db #0x1f	; 31
    000009C1 00                    2403 	.db #0x00	; 0
    000009C2 30                    2404 	.db #0x30	; 48	'0'
    000009C3 00                    2405 	.db #0x00	; 0
    000009C4 00                    2406 	.db #0x00	; 0
    000009C5 00                    2407 	.db #0x00	; 0
    000009C6 00                    2408 	.db #0x00	; 0
    000009C7 00                    2409 	.db #0x00	; 0
    000009C8 8C                    2410 	.db #0x8c	; 140
    000009C9 00                    2411 	.db #0x00	; 0
    000009CA F8                    2412 	.db #0xf8	; 248
    000009CB 00                    2413 	.db #0x00	; 0
    000009CC 20                    2414 	.db #0x20	; 32
    000009CD C0                    2415 	.db #0xc0	; 192
    000009CE A8                    2416 	.db #0xa8	; 168
    000009CF C0                    2417 	.db #0xc0	; 192
    000009D0 F0                    2418 	.db #0xf0	; 240
    000009D1 00                    2419 	.db #0x00	; 0
    000009D2 18                    2420 	.db #0x18	; 24
    000009D3 00                    2421 	.db #0x00	; 0
    000009D4 00                    2422 	.db #0x00	; 0
    000009D5 00                    2423 	.db #0x00	; 0
    000009D6                       2424 _spr_fx_nano_data:
    000009D6 00                    2425 	.db #0x00	; 0
    000009D7 00                    2426 	.db #0x00	; 0
    000009D8 00                    2427 	.db #0x00	; 0
    000009D9 00                    2428 	.db #0x00	; 0
    000009DA 09                    2429 	.db #0x09	; 9
    000009DB 07                    2430 	.db #0x07	; 7
    000009DC 16                    2431 	.db #0x16	; 22
    000009DD 0F                    2432 	.db #0x0f	; 15
    000009DE 16                    2433 	.db #0x16	; 22
    000009DF 0F                    2434 	.db #0x0f	; 15
    000009E0 09                    2435 	.db #0x09	; 9
    000009E1 07                    2436 	.db #0x07	; 7
    000009E2 00                    2437 	.db #0x00	; 0
    000009E3 00                    2438 	.db #0x00	; 0
    000009E4 00                    2439 	.db #0x00	; 0
    000009E5 00                    2440 	.db #0x00	; 0
    000009E6 00                    2441 	.db #0x00	; 0
    000009E7 00                    2442 	.db #0x00	; 0
    000009E8 00                    2443 	.db #0x00	; 0
    000009E9 00                    2444 	.db #0x00	; 0
    000009EA 90                    2445 	.db #0x90	; 144
    000009EB E0                    2446 	.db #0xe0	; 224
    000009EC 68                    2447 	.db #0x68	; 104	'h'
    000009ED F0                    2448 	.db #0xf0	; 240
    000009EE 68                    2449 	.db #0x68	; 104	'h'
    000009EF F0                    2450 	.db #0xf0	; 240
    000009F0 10                    2451 	.db #0x10	; 16
    000009F1 E0                    2452 	.db #0xe0	; 224
    000009F2 00                    2453 	.db #0x00	; 0
    000009F3 00                    2454 	.db #0x00	; 0
    000009F4 00                    2455 	.db #0x00	; 0
    000009F5 00                    2456 	.db #0x00	; 0
    000009F6                       2457 _spr_cinematic_a:
    000009F6 06                    2458 	.db #0x06	; 6
    000009F7 FF                    2459 	.db #0xff	; 255
    000009F8 07                    2460 	.db #0x07	; 7
    000009F9 FF                    2461 	.db #0xff	; 255
    000009FA 03                    2462 	.db #0x03	; 3
    000009FB FF                    2463 	.db #0xff	; 255
    000009FC 03                    2464 	.db #0x03	; 3
    000009FD FF                    2465 	.db #0xff	; 255
    000009FE 01                    2466 	.db #0x01	; 1
    000009FF FF                    2467 	.db #0xff	; 255
    00000A00 00                    2468 	.db #0x00	; 0
    00000A01 FF                    2469 	.db #0xff	; 255
    00000A02 00                    2470 	.db #0x00	; 0
    00000A03 FF                    2471 	.db #0xff	; 255
    00000A04 00                    2472 	.db #0x00	; 0
    00000A05 FF                    2473 	.db #0xff	; 255
    00000A06 0F                    2474 	.db #0x0f	; 15
    00000A07 F0                    2475 	.db #0xf0	; 240
    00000A08 FF                    2476 	.db #0xff	; 255
    00000A09 00                    2477 	.db #0x00	; 0
    00000A0A 7F                    2478 	.db #0x7f	; 127
    00000A0B 80                    2479 	.db #0x80	; 128
    00000A0C C0                    2480 	.db #0xc0	; 192
    00000A0D FF                    2481 	.db #0xff	; 255
    00000A0E C1                    2482 	.db #0xc1	; 193
    00000A0F FF                    2483 	.db #0xff	; 255
    00000A10 F9                    2484 	.db #0xf9	; 249
    00000A11 FF                    2485 	.db #0xff	; 255
    00000A12 3F                    2486 	.db #0x3f	; 63
    00000A13 FF                    2487 	.db #0xff	; 255
    00000A14 1F                    2488 	.db #0x1f	; 31
    00000A15 FF                    2489 	.db #0xff	; 255
    00000A16 F0                    2490 	.db #0xf0	; 240
    00000A17 0F                    2491 	.db #0x0f	; 15
    00000A18 C0                    2492 	.db #0xc0	; 192
    00000A19 3F                    2493 	.db #0x3f	; 63
    00000A1A 80                    2494 	.db #0x80	; 128
    00000A1B 7F                    2495 	.db #0x7f	; 127
    00000A1C 00                    2496 	.db #0x00	; 0
    00000A1D FF                    2497 	.db #0xff	; 255
    00000A1E 03                    2498 	.db #0x03	; 3
    00000A1F FF                    2499 	.db #0xff	; 255
    00000A20 E7                    2500 	.db #0xe7	; 231
    00000A21 FF                    2501 	.db #0xff	; 255
    00000A22 FF                    2502 	.db #0xff	; 255
    00000A23 FF                    2503 	.db #0xff	; 255
    00000A24 F8                    2504 	.db #0xf8	; 248
    00000A25 FF                    2505 	.db #0xff	; 255
    00000A26 00                    2506 	.db #0x00	; 0
    00000A27 FF                    2507 	.db #0xff	; 255
    00000A28 00                    2508 	.db #0x00	; 0
    00000A29 FF                    2509 	.db #0xff	; 255
    00000A2A E0                    2510 	.db #0xe0	; 224
    00000A2B FF                    2511 	.db #0xff	; 255
    00000A2C E0                    2512 	.db #0xe0	; 224
    00000A2D FF                    2513 	.db #0xff	; 255
    00000A2E C0                    2514 	.db #0xc0	; 192
    00000A2F FF                    2515 	.db #0xff	; 255
    00000A30 80                    2516 	.db #0x80	; 128
    00000A31 FF                    2517 	.db #0xff	; 255
    00000A32 00                    2518 	.db #0x00	; 0
    00000A33 FF                    2519 	.db #0xff	; 255
    00000A34 7C                    2520 	.db #0x7c	; 124
    00000A35 83                    2521 	.db #0x83	; 131
    00000A36 FE                    2522 	.db #0xfe	; 254
    00000A37 01                    2523 	.db #0x01	; 1
    00000A38 FF                    2524 	.db #0xff	; 255
    00000A39 00                    2525 	.db #0x00	; 0
    00000A3A FF                    2526 	.db #0xff	; 255
    00000A3B 00                    2527 	.db #0x00	; 0
    00000A3C FF                    2528 	.db #0xff	; 255
    00000A3D 00                    2529 	.db #0x00	; 0
    00000A3E FF                    2530 	.db #0xff	; 255
    00000A3F 00                    2531 	.db #0x00	; 0
    00000A40 FF                    2532 	.db #0xff	; 255
    00000A41 00                    2533 	.db #0x00	; 0
    00000A42 FF                    2534 	.db #0xff	; 255
    00000A43 00                    2535 	.db #0x00	; 0
    00000A44 00                    2536 	.db #0x00	; 0
    00000A45 00                    2537 	.db #0x00	; 0
    00000A46 0F                    2538 	.db #0x0f	; 15
    00000A47 FF                    2539 	.db #0xff	; 255
    00000A48 F7                    2540 	.db #0xf7	; 247
    00000A49 0F                    2541 	.db #0x0f	; 15
    00000A4A FF                    2542 	.db #0xff	; 255
    00000A4B 03                    2543 	.db #0x03	; 3
    00000A4C FB                    2544 	.db #0xfb	; 251
    00000A4D 07                    2545 	.db #0x07	; 7
    00000A4E F7                    2546 	.db #0xf7	; 247
    00000A4F 0F                    2547 	.db #0x0f	; 15
    00000A50 EF                    2548 	.db #0xef	; 239
    00000A51 1F                    2549 	.db #0x1f	; 31
    00000A52 CE                    2550 	.db #0xce	; 206
    00000A53 1F                    2551 	.db #0x1f	; 31
    00000A54 2C                    2552 	.db #0x2c	; 44
    00000A55 1E                    2553 	.db #0x1e	; 30
    00000A56 E9                    2554 	.db #0xe9	; 233
    00000A57 F0                    2555 	.db #0xf0	; 240
    00000A58 F0                    2556 	.db #0xf0	; 240
    00000A59 E0                    2557 	.db #0xe0	; 224
    00000A5A E3                    2558 	.db #0xe3	; 227
    00000A5B C0                    2559 	.db #0xc0	; 192
    00000A5C DE                    2560 	.db #0xde	; 222
    00000A5D E1                    2561 	.db #0xe1	; 225
    00000A5E EC                    2562 	.db #0xec	; 236
    00000A5F F3                    2563 	.db #0xf3	; 243
    00000A60 FF                    2564 	.db #0xff	; 255
    00000A61 F8                    2565 	.db #0xf8	; 248
    00000A62 FB                    2566 	.db #0xfb	; 251
    00000A63 7C                    2567 	.db #0x7c	; 124
    00000A64 5C                    2568 	.db #0x5c	; 92
    00000A65 3E                    2569 	.db #0x3e	; 62
    00000A66 F8                    2570 	.db #0xf8	; 248
    00000A67 07                    2571 	.db #0x07	; 7
    00000A68 70                    2572 	.db #0x70	; 112	'p'
    00000A69 0F                    2573 	.db #0x0f	; 15
    00000A6A E0                    2574 	.db #0xe0	; 224
    00000A6B 1F                    2575 	.db #0x1f	; 31
    00000A6C 00                    2576 	.db #0x00	; 0
    00000A6D FF                    2577 	.db #0xff	; 255
    00000A6E 00                    2578 	.db #0x00	; 0
    00000A6F FF                    2579 	.db #0xff	; 255
    00000A70 FF                    2580 	.db #0xff	; 255
    00000A71 00                    2581 	.db #0x00	; 0
    00000A72 FF                    2582 	.db #0xff	; 255
    00000A73 00                    2583 	.db #0x00	; 0
    00000A74 FF                    2584 	.db #0xff	; 255
    00000A75 00                    2585 	.db #0x00	; 0
    00000A76 00                    2586 	.db #0x00	; 0
    00000A77 00                    2587 	.db #0x00	; 0
    00000A78 00                    2588 	.db #0x00	; 0
    00000A79 00                    2589 	.db #0x00	; 0
    00000A7A FF                    2590 	.db #0xff	; 255
    00000A7B 00                    2591 	.db #0x00	; 0
    00000A7C 00                    2592 	.db #0x00	; 0
    00000A7D FF                    2593 	.db #0xff	; 255
    00000A7E 06                    2594 	.db #0x06	; 6
    00000A7F F9                    2595 	.db #0xf9	; 249
    00000A80 70                    2596 	.db #0x70	; 112	'p'
    00000A81 80                    2597 	.db #0x80	; 128
    00000A82 7F                    2598 	.db #0x7f	; 127
    00000A83 80                    2599 	.db #0x80	; 128
    00000A84 FF                    2600 	.db #0xff	; 255
    00000A85 FF                    2601 	.db #0xff	; 255
    00000A86 7C                    2602 	.db #0x7c	; 124
    00000A87 3C                    2603 	.db #0x3c	; 60
    00000A88 3C                    2604 	.db #0x3c	; 60
    00000A89 7C                    2605 	.db #0x7c	; 124
    00000A8A BB                    2606 	.db #0xbb	; 187
    00000A8B 7C                    2607 	.db #0x7c	; 124
    00000A8C 38                    2608 	.db #0x38	; 56	'8'
    00000A8D FF                    2609 	.db #0xff	; 255
    00000A8E 78                    2610 	.db #0x78	; 120	'x'
    00000A8F FF                    2611 	.db #0xff	; 255
    00000A90 30                    2612 	.db #0x30	; 48	'0'
    00000A91 78                    2613 	.db #0x78	; 120	'x'
    00000A92 78                    2614 	.db #0x78	; 120	'x'
    00000A93 3C                    2615 	.db #0x3c	; 60
    00000A94 7C                    2616 	.db #0x7c	; 124
    00000A95 FF                    2617 	.db #0xff	; 255
    00000A96 3E                    2618 	.db #0x3e	; 62
    00000A97 1C                    2619 	.db #0x1c	; 28
    00000A98 3E                    2620 	.db #0x3e	; 62
    00000A99 3C                    2621 	.db #0x3c	; 60
    00000A9A FD                    2622 	.db #0xfd	; 253
    00000A9B 3E                    2623 	.db #0x3e	; 62
    00000A9C 1E                    2624 	.db #0x1e	; 30
    00000A9D FF                    2625 	.db #0xff	; 255
    00000A9E 1E                    2626 	.db #0x1e	; 30
    00000A9F FF                    2627 	.db #0xff	; 255
    00000AA0 3F                    2628 	.db #0x3f	; 63
    00000AA1 1C                    2629 	.db #0x1c	; 28
    00000AA2 3F                    2630 	.db #0x3f	; 63
    00000AA3 3C                    2631 	.db #0x3c	; 60
    00000AA4 3D                    2632 	.db #0x3d	; 61
    00000AA5 FE                    2633 	.db #0xfe	; 254
    00000AA6 80                    2634 	.db #0x80	; 128
    00000AA7 00                    2635 	.db #0x00	; 0
    00000AA8 00                    2636 	.db #0x00	; 0
    00000AA9 00                    2637 	.db #0x00	; 0
    00000AAA 70                    2638 	.db #0x70	; 112	'p'
    00000AAB 8F                    2639 	.db #0x8f	; 143
    00000AAC 00                    2640 	.db #0x00	; 0
    00000AAD FF                    2641 	.db #0xff	; 255
    00000AAE 00                    2642 	.db #0x00	; 0
    00000AAF FF                    2643 	.db #0xff	; 255
    00000AB0 FF                    2644 	.db #0xff	; 255
    00000AB1 00                    2645 	.db #0x00	; 0
    00000AB2 FF                    2646 	.db #0xff	; 255
    00000AB3 00                    2647 	.db #0x00	; 0
    00000AB4 C0                    2648 	.db #0xc0	; 192
    00000AB5 3F                    2649 	.db #0x3f	; 63
    00000AB6                       2650 _spr_cinematic_b:
    00000AB6 01                    2651 	.db #0x01	; 1
    00000AB7 FE                    2652 	.db #0xfe	; 254
    00000AB8 03                    2653 	.db #0x03	; 3
    00000AB9 FC                    2654 	.db #0xfc	; 252
    00000ABA 72                    2655 	.db #0x72	; 114	'r'
    00000ABB 80                    2656 	.db #0x80	; 128
    00000ABC E0                    2657 	.db #0xe0	; 224
    00000ABD 00                    2658 	.db #0x00	; 0
    00000ABE FE                    2659 	.db #0xfe	; 254
    00000ABF 00                    2660 	.db #0x00	; 0
    00000AC0 F8                    2661 	.db #0xf8	; 248
    00000AC1 00                    2662 	.db #0x00	; 0
    00000AC2 FC                    2663 	.db #0xfc	; 252
    00000AC3 00                    2664 	.db #0x00	; 0
    00000AC4 BC                    2665 	.db #0xbc	; 188
    00000AC5 40                    2666 	.db #0x40	; 64
    00000AC6 C0                    2667 	.db #0xc0	; 192
    00000AC7 00                    2668 	.db #0x00	; 0
    00000AC8 0C                    2669 	.db #0x0c	; 12
    00000AC9 00                    2670 	.db #0x00	; 0
    00000ACA 74                    2671 	.db #0x74	; 116	't'
    00000ACB 08                    2672 	.db #0x08	; 8
    00000ACC 11                    2673 	.db #0x11	; 17
    00000ACD 78                    2674 	.db #0x78	; 120	'x'
    00000ACE B7                    2675 	.db #0xb7	; 183
    00000ACF 78                    2676 	.db #0x78	; 120	'x'
    00000AD0 FE                    2677 	.db #0xfe	; 254
    00000AD1 7F                    2678 	.db #0x7f	; 127
    00000AD2 AF                    2679 	.db #0xaf	; 175
    00000AD3 5F                    2680 	.db #0x5f	; 95
    00000AD4 1F                    2681 	.db #0x1f	; 31
    00000AD5 0F                    2682 	.db #0x0f	; 15
    00000AD6 01                    2683 	.db #0x01	; 1
    00000AD7 00                    2684 	.db #0x00	; 0
    00000AD8 1F                    2685 	.db #0x1f	; 31
    00000AD9 00                    2686 	.db #0x00	; 0
    00000ADA 37                    2687 	.db #0x37	; 55	'7'
    00000ADB 00                    2688 	.db #0x00	; 0
    00000ADC 13                    2689 	.db #0x13	; 19
    00000ADD 20                    2690 	.db #0x20	; 32
    00000ADE 02                    2691 	.db #0x02	; 2
    00000ADF 64                    2692 	.db #0x64	; 100	'd'
    00000AE0 53                    2693 	.db #0x53	; 83	'S'
    00000AE1 EC                    2694 	.db #0xec	; 236
    00000AE2 17                    2695 	.db #0x17	; 23
    00000AE3 F8                    2696 	.db #0xf8	; 248
    00000AE4 33                    2697 	.db #0x33	; 51	'3'
    00000AE5 FC                    2698 	.db #0xfc	; 252
    00000AE6 E0                    2699 	.db #0xe0	; 224
    00000AE7 1F                    2700 	.db #0x1f	; 31
    00000AE8 C0                    2701 	.db #0xc0	; 192
    00000AE9 3F                    2702 	.db #0x3f	; 63
    00000AEA B8                    2703 	.db #0xb8	; 184
    00000AEB 47                    2704 	.db #0x47	; 71	'G'
    00000AEC F0                    2705 	.db #0xf0	; 240
    00000AED 0F                    2706 	.db #0x0f	; 15
    00000AEE F0                    2707 	.db #0xf0	; 240
    00000AEF 0F                    2708 	.db #0x0f	; 15
    00000AF0 F0                    2709 	.db #0xf0	; 240
    00000AF1 0F                    2710 	.db #0x0f	; 15
    00000AF2 E0                    2711 	.db #0xe0	; 224
    00000AF3 1F                    2712 	.db #0x1f	; 31
    00000AF4 00                    2713 	.db #0x00	; 0
    00000AF5 FF                    2714 	.db #0xff	; 255
    00000AF6 FF                    2715 	.db #0xff	; 255
    00000AF7 00                    2716 	.db #0x00	; 0
    00000AF8 FE                    2717 	.db #0xfe	; 254
    00000AF9 00                    2718 	.db #0x00	; 0
    00000AFA 7F                    2719 	.db #0x7f	; 127
    00000AFB 80                    2720 	.db #0x80	; 128
    00000AFC 0F                    2721 	.db #0x0f	; 15
    00000AFD F0                    2722 	.db #0xf0	; 240
    00000AFE 07                    2723 	.db #0x07	; 7
    00000AFF F8                    2724 	.db #0xf8	; 248
    00000B00 00                    2725 	.db #0x00	; 0
    00000B01 FF                    2726 	.db #0xff	; 255
    00000B02 01                    2727 	.db #0x01	; 1
    00000B03 FF                    2728 	.db #0xff	; 255
    00000B04 80                    2729 	.db #0x80	; 128
    00000B05 7F                    2730 	.db #0x7f	; 127
    00000B06 E5                    2731 	.db #0xe5	; 229
    00000B07 1F                    2732 	.db #0x1f	; 31
    00000B08 E1                    2733 	.db #0xe1	; 225
    00000B09 1F                    2734 	.db #0x1f	; 31
    00000B0A 9F                    2735 	.db #0x9f	; 159
    00000B0B 0F                    2736 	.db #0x0f	; 15
    00000B0C FF                    2737 	.db #0xff	; 255
    00000B0D 0F                    2738 	.db #0x0f	; 15
    00000B0E 99                    2739 	.db #0x99	; 153
    00000B0F 7F                    2740 	.db #0x7f	; 127
    00000B10 4D                    2741 	.db #0x4d	; 77	'M'
    00000B11 F3                    2742 	.db #0xf3	; 243
    00000B12 BB                    2743 	.db #0xbb	; 187
    00000B13 C7                    2744 	.db #0xc7	; 199
    00000B14 0F                    2745 	.db #0x0f	; 15
    00000B15 FF                    2746 	.db #0xff	; 255
    00000B16 FB                    2747 	.db #0xfb	; 251
    00000B17 FC                    2748 	.db #0xfc	; 252
    00000B18 FC                    2749 	.db #0xfc	; 252
    00000B19 FF                    2750 	.db #0xff	; 255
    00000B1A E5                    2751 	.db #0xe5	; 229
    00000B1B FF                    2752 	.db #0xff	; 255
    00000B1C DA                    2753 	.db #0xda	; 218
    00000B1D E7                    2754 	.db #0xe7	; 231
    00000B1E DC                    2755 	.db #0xdc	; 220
    00000B1F E3                    2756 	.db #0xe3	; 227
    00000B20 F7                    2757 	.db #0xf7	; 247
    00000B21 F9                    2758 	.db #0xf9	; 249
    00000B22 F5                    2759 	.db #0xf5	; 245
    00000B23 FB                    2760 	.db #0xfb	; 251
    00000B24 D2                    2761 	.db #0xd2	; 210
    00000B25 FD                    2762 	.db #0xfd	; 253
    00000B26 00                    2763 	.db #0x00	; 0
    00000B27 FF                    2764 	.db #0xff	; 255
    00000B28 00                    2765 	.db #0x00	; 0
    00000B29 FF                    2766 	.db #0xff	; 255
    00000B2A 40                    2767 	.db #0x40	; 64
    00000B2B FF                    2768 	.db #0xff	; 255
    00000B2C 80                    2769 	.db #0x80	; 128
    00000B2D FF                    2770 	.db #0xff	; 255
    00000B2E D0                    2771 	.db #0xd0	; 208
    00000B2F EF                    2772 	.db #0xef	; 239
    00000B30 BF                    2773 	.db #0xbf	; 191
    00000B31 C0                    2774 	.db #0xc0	; 192
    00000B32 BF                    2775 	.db #0xbf	; 191
    00000B33 C0                    2776 	.db #0xc0	; 192
    00000B34 BF                    2777 	.db #0xbf	; 191
    00000B35 C0                    2778 	.db #0xc0	; 192
    00000B36 C0                    2779 	.db #0xc0	; 192
    00000B37 3F                    2780 	.db #0x3f	; 63
    00000B38 FF                    2781 	.db #0xff	; 255
    00000B39 00                    2782 	.db #0x00	; 0
    00000B3A FF                    2783 	.db #0xff	; 255
    00000B3B 00                    2784 	.db #0x00	; 0
    00000B3C FF                    2785 	.db #0xff	; 255
    00000B3D 00                    2786 	.db #0x00	; 0
    00000B3E 07                    2787 	.db #0x07	; 7
    00000B3F F8                    2788 	.db #0xf8	; 248
    00000B40 FE                    2789 	.db #0xfe	; 254
    00000B41 00                    2790 	.db #0x00	; 0
    00000B42 FF                    2791 	.db #0xff	; 255
    00000B43 00                    2792 	.db #0x00	; 0
    00000B44 04                    2793 	.db #0x04	; 4
    00000B45 FB                    2794 	.db #0xfb	; 251
    00000B46 5E                    2795 	.db #0x5e	; 94
    00000B47 BF                    2796 	.db #0xbf	; 191
    00000B48 BB                    2797 	.db #0xbb	; 187
    00000B49 7C                    2798 	.db #0x7c	; 124
    00000B4A DE                    2799 	.db #0xde	; 222
    00000B4B 3C                    2800 	.db #0x3c	; 60
    00000B4C CD                    2801 	.db #0xcd	; 205
    00000B4D 1E                    2802 	.db #0x1e	; 30
    00000B4E E0                    2803 	.db #0xe0	; 224
    00000B4F 1F                    2804 	.db #0x1f	; 31
    00000B50 F8                    2805 	.db #0xf8	; 248
    00000B51 07                    2806 	.db #0x07	; 7
    00000B52 E0                    2807 	.db #0xe0	; 224
    00000B53 1F                    2808 	.db #0x1f	; 31
    00000B54 0E                    2809 	.db #0x0e	; 14
    00000B55 FF                    2810 	.db #0xff	; 255
    00000B56 FA                    2811 	.db #0xfa	; 250
    00000B57 FD                    2812 	.db #0xfd	; 253
    00000B58 5B                    2813 	.db #0x5b	; 91
    00000B59 FC                    2814 	.db #0xfc	; 252
    00000B5A EF                    2815 	.db #0xef	; 239
    00000B5B 1E                    2816 	.db #0x1e	; 30
    00000B5C B6                    2817 	.db #0xb6	; 182
    00000B5D 4F                    2818 	.db #0x4f	; 79	'O'
    00000B5E 00                    2819 	.db #0x00	; 0
    00000B5F FF                    2820 	.db #0xff	; 255
    00000B60 01                    2821 	.db #0x01	; 1
    00000B61 FF                    2822 	.db #0xff	; 255
    00000B62 07                    2823 	.db #0x07	; 7
    00000B63 FF                    2824 	.db #0xff	; 255
    00000B64 21                    2825 	.db #0x21	; 33
    00000B65 FF                    2826 	.db #0xff	; 255
    00000B66 3F                    2827 	.db #0x3f	; 63
    00000B67 C0                    2828 	.db #0xc0	; 192
    00000B68 FF                    2829 	.db #0xff	; 255
    00000B69 00                    2830 	.db #0x00	; 0
    00000B6A F8                    2831 	.db #0xf8	; 248
    00000B6B 07                    2832 	.db #0x07	; 7
    00000B6C FF                    2833 	.db #0xff	; 255
    00000B6D 00                    2834 	.db #0x00	; 0
    00000B6E 3F                    2835 	.db #0x3f	; 63
    00000B6F C0                    2836 	.db #0xc0	; 192
    00000B70 30                    2837 	.db #0x30	; 48	'0'
    00000B71 CF                    2838 	.db #0xcf	; 207
    00000B72 07                    2839 	.db #0x07	; 7
    00000B73 FF                    2840 	.db #0xff	; 255
    00000B74 FF                    2841 	.db #0xff	; 255
    00000B75 FF                    2842 	.db #0xff	; 255
                                   2843 ;kaijugaiden.c:760: static void bg_fill(u8 tile) {
                                   2844 ;	---------------------------------
                                   2845 ; Function bg_fill
                                   2846 ; ---------------------------------
    00000B76                       2847 _bg_fill:
    00000B76 3B               [ 8] 2848 	dec	sp
    00000B77 F8 00            [12] 2849 	ldhl	sp,	#0
    00000B79 77               [ 8] 2850 	ld	(hl), a
                                   2851 ;kaijugaiden.c:761: for (u8 y = 0; y < BKG_ROWS; ++y)
    00000B7A 1E 00            [ 8] 2852 	ld	e, #0x00
    00000B7C                       2853 00108$:
    00000B7C 7B               [ 4] 2854 	ld	a, e
    00000B7D D6 12            [ 8] 2855 	sub	a, #0x12
    00000B7F 30 18            [12] 2856 	jr	NC, 00110$
                                   2857 ;kaijugaiden.c:762: for (u8 x = 0; x < BKG_COLS; ++x)
    00000B81 16 00            [ 8] 2858 	ld	d, #0x00
    00000B83                       2859 00105$:
    00000B83 7A               [ 4] 2860 	ld	a, d
    00000B84 D6 14            [ 8] 2861 	sub	a, #0x14
    00000B86 30 0E            [12] 2862 	jr	NC, 00109$
                                   2863 ;kaijugaiden.c:146: set_bkg_tile_xy(x, y, tile);
    00000B88 D5               [16] 2864 	push	de
    00000B89 F8 02            [12] 2865 	ldhl	sp,	#2
    00000B8B 7E               [ 8] 2866 	ld	a, (hl)
    00000B8C F5               [16] 2867 	push	af
    00000B8D 33               [ 8] 2868 	inc	sp
    00000B8E 7A               [ 4] 2869 	ld	a, d
    00000B8F CDr00r00         [24] 2870 	call	_set_bkg_tile_xy
    00000B92 D1               [12] 2871 	pop	de
                                   2872 ;kaijugaiden.c:762: for (u8 x = 0; x < BKG_COLS; ++x)
    00000B93 14               [ 4] 2873 	inc	d
    00000B94 18 ED            [12] 2874 	jr	00105$
    00000B96                       2875 00109$:
                                   2876 ;kaijugaiden.c:761: for (u8 y = 0; y < BKG_ROWS; ++y)
    00000B96 1C               [ 4] 2877 	inc	e
    00000B97 18 E3            [12] 2878 	jr	00108$
    00000B99                       2879 00110$:
                                   2880 ;kaijugaiden.c:764: }
    00000B99 33               [ 8] 2881 	inc	sp
    00000B9A C9               [16] 2882 	ret
                                   2883 ;kaijugaiden.c:766: static u8 bg_char_to_tile(char ch) {
                                   2884 ;	---------------------------------
                                   2885 ; Function bg_char_to_tile
                                   2886 ; ---------------------------------
    00000B9B                       2887 _bg_char_to_tile:
                                   2888 ;kaijugaiden.c:767: if (ch >= '0' && ch <= '9') return (u8)(TILE_FONT_0 + (ch - '0'));
    00000B9B 4F               [ 4] 2889 	ld	c, a
    00000B9C EE 80            [ 8] 2890 	xor	a, #0x80
    00000B9E D6 B0            [ 8] 2891 	sub	a, #0xb0
    00000BA0 38 1B            [12] 2892 	jr	C, 00102$
    00000BA2 59               [ 4] 2893 	ld	e, c
    00000BA3 3E 39            [ 8] 2894 	ld	a,#0x39
    00000BA5 57               [ 4] 2895 	ld	d,a
    00000BA6 91               [ 4] 2896 	sub	a, c
    00000BA7 CB 7B            [ 8] 2897 	bit	7, e
    00000BA9 28 07            [12] 2898 	jr	Z, 00154$
    00000BAB CB 7A            [ 8] 2899 	bit	7, d
    00000BAD 20 08            [12] 2900 	jr	NZ, 00155$
    00000BAF BF               [ 4] 2901 	cp	a, a
    00000BB0 18 05            [12] 2902 	jr	00155$
    00000BB2                       2903 00154$:
    00000BB2 CB 7A            [ 8] 2904 	bit	7, d
    00000BB4 28 01            [12] 2905 	jr	Z, 00155$
    00000BB6 37               [ 4] 2906 	scf
    00000BB7                       2907 00155$:
    00000BB7 38 04            [12] 2908 	jr	C, 00102$
    00000BB9 79               [ 4] 2909 	ld	a, c
    00000BBA C6 F0            [ 8] 2910 	add	a, #0xf0
    00000BBC C9               [16] 2911 	ret
    00000BBD                       2912 00102$:
                                   2913 ;kaijugaiden.c:768: if (ch >= 'A' && ch <= 'Z') return (u8)(TILE_FONT_A + (ch - 'A'));
    00000BBD 79               [ 4] 2914 	ld	a, c
    00000BBE EE 80            [ 8] 2915 	xor	a, #0x80
    00000BC0 D6 C1            [ 8] 2916 	sub	a, #0xc1
    00000BC2 38 1B            [12] 2917 	jr	C, 00105$
    00000BC4 59               [ 4] 2918 	ld	e, c
    00000BC5 3E 5A            [ 8] 2919 	ld	a,#0x5a
    00000BC7 57               [ 4] 2920 	ld	d,a
    00000BC8 91               [ 4] 2921 	sub	a, c
    00000BC9 CB 7B            [ 8] 2922 	bit	7, e
    00000BCB 28 07            [12] 2923 	jr	Z, 00156$
    00000BCD CB 7A            [ 8] 2924 	bit	7, d
    00000BCF 20 08            [12] 2925 	jr	NZ, 00157$
    00000BD1 BF               [ 4] 2926 	cp	a, a
    00000BD2 18 05            [12] 2927 	jr	00157$
    00000BD4                       2928 00156$:
    00000BD4 CB 7A            [ 8] 2929 	bit	7, d
    00000BD6 28 01            [12] 2930 	jr	Z, 00157$
    00000BD8 37               [ 4] 2931 	scf
    00000BD9                       2932 00157$:
    00000BD9 38 04            [12] 2933 	jr	C, 00105$
    00000BDB 79               [ 4] 2934 	ld	a, c
    00000BDC C6 E9            [ 8] 2935 	add	a, #0xe9
    00000BDE C9               [16] 2936 	ret
    00000BDF                       2937 00105$:
                                   2938 ;kaijugaiden.c:769: if (ch >= 'a' && ch <= 'z') return (u8)(TILE_FONT_A + (ch - 'a'));
    00000BDF 79               [ 4] 2939 	ld	a, c
    00000BE0 EE 80            [ 8] 2940 	xor	a, #0x80
    00000BE2 D6 E1            [ 8] 2941 	sub	a, #0xe1
    00000BE4 38 1B            [12] 2942 	jr	C, 00108$
    00000BE6 59               [ 4] 2943 	ld	e, c
    00000BE7 3E 7A            [ 8] 2944 	ld	a,#0x7a
    00000BE9 57               [ 4] 2945 	ld	d,a
    00000BEA 91               [ 4] 2946 	sub	a, c
    00000BEB CB 7B            [ 8] 2947 	bit	7, e
    00000BED 28 07            [12] 2948 	jr	Z, 00158$
    00000BEF CB 7A            [ 8] 2949 	bit	7, d
    00000BF1 20 08            [12] 2950 	jr	NZ, 00159$
    00000BF3 BF               [ 4] 2951 	cp	a, a
    00000BF4 18 05            [12] 2952 	jr	00159$
    00000BF6                       2953 00158$:
    00000BF6 CB 7A            [ 8] 2954 	bit	7, d
    00000BF8 28 01            [12] 2955 	jr	Z, 00159$
    00000BFA 37               [ 4] 2956 	scf
    00000BFB                       2957 00159$:
    00000BFB 38 04            [12] 2958 	jr	C, 00108$
    00000BFD 79               [ 4] 2959 	ld	a, c
    00000BFE C6 C9            [ 8] 2960 	add	a, #0xc9
    00000C00 C9               [16] 2961 	ret
    00000C01                       2962 00108$:
                                   2963 ;kaijugaiden.c:770: return TILE_BLANK;
    00000C01 AF               [ 4] 2964 	xor	a, a
                                   2965 ;kaijugaiden.c:771: }
    00000C02 C9               [16] 2966 	ret
                                   2967 ;kaijugaiden.c:773: static void bg_draw_text(u8 x, u8 y, const char *text) {
                                   2968 ;	---------------------------------
                                   2969 ; Function bg_draw_text
                                   2970 ; ---------------------------------
    00000C03                       2971 _bg_draw_text:
    00000C03 E8 FD            [16] 2972 	add	sp, #-3
    00000C05 F8 01            [12] 2973 	ldhl	sp,	#1
    00000C07 22               [ 8] 2974 	ld	(hl+), a
                                   2975 ;kaijugaiden.c:774: u8 start_x = x;
    00000C08 7B               [ 4] 2976 	ld	a, e
    00000C09 32               [ 8] 2977 	ld	(hl-), a
    00000C0A 3A               [ 8] 2978 	ld	a, (hl-)
    00000C0B 77               [ 8] 2979 	ld	(hl), a
                                   2980 ;kaijugaiden.c:775: while (*text && y < BKG_ROWS) {
    00000C0C F8 05            [12] 2981 	ldhl	sp,	#5
    00000C0E 2A               [ 8] 2982 	ld	a, (hl+)
    00000C0F 4F               [ 4] 2983 	ld	c, a
    00000C10 46               [ 8] 2984 	ld	b, (hl)
    00000C11                       2985 00107$:
    00000C11 0A               [ 8] 2986 	ld	a, (bc)
    00000C12 5F               [ 4] 2987 	ld	e, a
    00000C13 B7               [ 4] 2988 	or	a, a
    00000C14 28 30            [12] 2989 	jr	Z, 00111$
    00000C16 F8 02            [12] 2990 	ldhl	sp,	#2
    00000C18 7E               [ 8] 2991 	ld	a, (hl)
    00000C19 D6 12            [ 8] 2992 	sub	a, #0x12
    00000C1B 30 29            [12] 2993 	jr	NC, 00111$
                                   2994 ;kaijugaiden.c:776: if (*text == '\n') {
    00000C1D 7B               [ 4] 2995 	ld	a, e
    00000C1E D6 0A            [ 8] 2996 	sub	a, #0x0a
    00000C20 20 07            [12] 2997 	jr	NZ, 00104$
                                   2998 ;kaijugaiden.c:777: y++;
    00000C22 34               [12] 2999 	inc	(hl)
                                   3000 ;kaijugaiden.c:778: x = start_x;
    00000C23 2B               [ 8] 3001 	dec	hl
    00000C24 2B               [ 8] 3002 	dec	hl
    00000C25 2A               [ 8] 3003 	ld	a, (hl+)
    00000C26 77               [ 8] 3004 	ld	(hl), a
    00000C27 18 1A            [12] 3005 	jr	00105$
    00000C29                       3006 00104$:
                                   3007 ;kaijugaiden.c:779: } else if (x < BKG_COLS) {
    00000C29 F8 01            [12] 3008 	ldhl	sp,	#1
    00000C2B 7E               [ 8] 3009 	ld	a, (hl)
    00000C2C D6 14            [ 8] 3010 	sub	a, #0x14
    00000C2E 30 13            [12] 3011 	jr	NC, 00105$
                                   3012 ;kaijugaiden.c:780: plat_set_bkg_tile(x, y, bg_char_to_tile(*text));
    00000C30 C5               [16] 3013 	push	bc
    00000C31 7B               [ 4] 3014 	ld	a, e
    00000C32 CDr9Br0B         [24] 3015 	call	_bg_char_to_tile
                                   3016 ;kaijugaiden.c:146: set_bkg_tile_xy(x, y, tile);
    00000C35 F5               [16] 3017 	push	af
    00000C36 33               [ 8] 3018 	inc	sp
    00000C37 F8 05            [12] 3019 	ldhl	sp,	#5
    00000C39 3A               [ 8] 3020 	ld	a, (hl-)
    00000C3A 5F               [ 4] 3021 	ld	e, a
    00000C3B 7E               [ 8] 3022 	ld	a, (hl)
    00000C3C CDr00r00         [24] 3023 	call	_set_bkg_tile_xy
    00000C3F C1               [12] 3024 	pop	bc
                                   3025 ;kaijugaiden.c:781: x++;
    00000C40 F8 01            [12] 3026 	ldhl	sp,	#1
    00000C42 34               [12] 3027 	inc	(hl)
    00000C43                       3028 00105$:
                                   3029 ;kaijugaiden.c:783: text++;
    00000C43 03               [ 8] 3030 	inc	bc
    00000C44 18 CB            [12] 3031 	jr	00107$
    00000C46                       3032 00111$:
                                   3033 ;kaijugaiden.c:785: }
    00000C46 E8 03            [16] 3034 	add	sp, #3
    00000C48 E1               [12] 3035 	pop	hl
    00000C49 F1               [12] 3036 	pop	af
    00000C4A E9               [ 4] 3037 	jp	(hl)
                                   3038 ;kaijugaiden.c:787: static char password_nibble_to_hex(u8 value) {
                                   3039 ;	---------------------------------
                                   3040 ; Function password_nibble_to_hex
                                   3041 ; ---------------------------------
    00000C4B                       3042 _password_nibble_to_hex:
                                   3043 ;kaijugaiden.c:788: value &= 0x0F;
    00000C4B E6 0F            [ 8] 3044 	and	a, #0x0f
                                   3045 ;kaijugaiden.c:789: return (value < 10) ? (char)('0' + value) : (char)('A' + (value - 10));
    00000C4D 4F               [ 4] 3046 	ld	c, a
    00000C4E D6 0A            [ 8] 3047 	sub	a, #0x0a
    00000C50 30 04            [12] 3048 	jr	NC, 00103$
    00000C52 79               [ 4] 3049 	ld	a, c
    00000C53 C6 30            [ 8] 3050 	add	a, #0x30
    00000C55 C9               [16] 3051 	ret
    00000C56                       3052 00103$:
    00000C56 79               [ 4] 3053 	ld	a, c
    00000C57 C6 37            [ 8] 3054 	add	a, #0x37
                                   3055 ;kaijugaiden.c:790: }
    00000C59 C9               [16] 3056 	ret
                                   3057 ;kaijugaiden.c:792: static u8 password_hex_to_nibble(char ch) {
                                   3058 ;	---------------------------------
                                   3059 ; Function password_hex_to_nibble
                                   3060 ; ---------------------------------
    00000C5A                       3061 _password_hex_to_nibble:
                                   3062 ;kaijugaiden.c:793: if (ch >= '0' && ch <= '9') return (u8)(ch - '0');
    00000C5A 4F               [ 4] 3063 	ld	c, a
    00000C5B EE 80            [ 8] 3064 	xor	a, #0x80
    00000C5D D6 B0            [ 8] 3065 	sub	a, #0xb0
    00000C5F 38 1B            [12] 3066 	jr	C, 00102$
    00000C61 59               [ 4] 3067 	ld	e, c
    00000C62 3E 39            [ 8] 3068 	ld	a,#0x39
    00000C64 57               [ 4] 3069 	ld	d,a
    00000C65 91               [ 4] 3070 	sub	a, c
    00000C66 CB 7B            [ 8] 3071 	bit	7, e
    00000C68 28 07            [12] 3072 	jr	Z, 00154$
    00000C6A CB 7A            [ 8] 3073 	bit	7, d
    00000C6C 20 08            [12] 3074 	jr	NZ, 00155$
    00000C6E BF               [ 4] 3075 	cp	a, a
    00000C6F 18 05            [12] 3076 	jr	00155$
    00000C71                       3077 00154$:
    00000C71 CB 7A            [ 8] 3078 	bit	7, d
    00000C73 28 01            [12] 3079 	jr	Z, 00155$
    00000C75 37               [ 4] 3080 	scf
    00000C76                       3081 00155$:
    00000C76 38 04            [12] 3082 	jr	C, 00102$
    00000C78 79               [ 4] 3083 	ld	a, c
    00000C79 C6 D0            [ 8] 3084 	add	a, #0xd0
    00000C7B C9               [16] 3085 	ret
    00000C7C                       3086 00102$:
                                   3087 ;kaijugaiden.c:794: if (ch >= 'A' && ch <= 'F') return (u8)(10 + (ch - 'A'));
    00000C7C 79               [ 4] 3088 	ld	a, c
    00000C7D EE 80            [ 8] 3089 	xor	a, #0x80
    00000C7F D6 C1            [ 8] 3090 	sub	a, #0xc1
    00000C81 38 1B            [12] 3091 	jr	C, 00105$
    00000C83 59               [ 4] 3092 	ld	e, c
    00000C84 3E 46            [ 8] 3093 	ld	a,#0x46
    00000C86 57               [ 4] 3094 	ld	d,a
    00000C87 91               [ 4] 3095 	sub	a, c
    00000C88 CB 7B            [ 8] 3096 	bit	7, e
    00000C8A 28 07            [12] 3097 	jr	Z, 00156$
    00000C8C CB 7A            [ 8] 3098 	bit	7, d
    00000C8E 20 08            [12] 3099 	jr	NZ, 00157$
    00000C90 BF               [ 4] 3100 	cp	a, a
    00000C91 18 05            [12] 3101 	jr	00157$
    00000C93                       3102 00156$:
    00000C93 CB 7A            [ 8] 3103 	bit	7, d
    00000C95 28 01            [12] 3104 	jr	Z, 00157$
    00000C97 37               [ 4] 3105 	scf
    00000C98                       3106 00157$:
    00000C98 38 04            [12] 3107 	jr	C, 00105$
    00000C9A 79               [ 4] 3108 	ld	a, c
    00000C9B C6 C9            [ 8] 3109 	add	a, #0xc9
    00000C9D C9               [16] 3110 	ret
    00000C9E                       3111 00105$:
                                   3112 ;kaijugaiden.c:795: if (ch >= 'a' && ch <= 'f') return (u8)(10 + (ch - 'a'));
    00000C9E 79               [ 4] 3113 	ld	a, c
    00000C9F EE 80            [ 8] 3114 	xor	a, #0x80
    00000CA1 D6 E1            [ 8] 3115 	sub	a, #0xe1
    00000CA3 38 1B            [12] 3116 	jr	C, 00108$
    00000CA5 59               [ 4] 3117 	ld	e, c
    00000CA6 3E 66            [ 8] 3118 	ld	a,#0x66
    00000CA8 57               [ 4] 3119 	ld	d,a
    00000CA9 91               [ 4] 3120 	sub	a, c
    00000CAA CB 7B            [ 8] 3121 	bit	7, e
    00000CAC 28 07            [12] 3122 	jr	Z, 00158$
    00000CAE CB 7A            [ 8] 3123 	bit	7, d
    00000CB0 20 08            [12] 3124 	jr	NZ, 00159$
    00000CB2 BF               [ 4] 3125 	cp	a, a
    00000CB3 18 05            [12] 3126 	jr	00159$
    00000CB5                       3127 00158$:
    00000CB5 CB 7A            [ 8] 3128 	bit	7, d
    00000CB7 28 01            [12] 3129 	jr	Z, 00159$
    00000CB9 37               [ 4] 3130 	scf
    00000CBA                       3131 00159$:
    00000CBA 38 04            [12] 3132 	jr	C, 00108$
    00000CBC 79               [ 4] 3133 	ld	a, c
    00000CBD C6 A9            [ 8] 3134 	add	a, #0xa9
    00000CBF C9               [16] 3135 	ret
    00000CC0                       3136 00108$:
                                   3137 ;kaijugaiden.c:796: return 0xFF;
    00000CC0 3E FF            [ 8] 3138 	ld	a, #0xff
                                   3139 ;kaijugaiden.c:797: }
    00000CC2 C9               [16] 3140 	ret
                                   3141 ;kaijugaiden.c:799: static void password_encode(char *out, u32 cleared_bosses, u32 cyphers) {
                                   3142 ;	---------------------------------
                                   3143 ; Function password_encode
                                   3144 ; ---------------------------------
    00000CC3                       3145 _password_encode:
    00000CC3 E8 FA            [16] 3146 	add	sp, #-6
    00000CC5 4B               [ 4] 3147 	ld	c, e
    00000CC6 42               [ 4] 3148 	ld	b, d
                                   3149 ;kaijugaiden.c:800: for (u8 i = 0; i < 8; ++i) {
    00000CC7 F8 05            [12] 3150 	ldhl	sp,	#5
    00000CC9 36 00            [12] 3151 	ld	(hl), #0x00
    00000CCB                       3152 00103$:
    00000CCB F8 05            [12] 3153 	ldhl	sp,	#5
    00000CCD 7E               [ 8] 3154 	ld	a, (hl)
    00000CCE D6 08            [ 8] 3155 	sub	a, #0x08
    00000CD0 D2r69r0D         [16] 3156 	jp	NC, 00101$
                                   3157 ;kaijugaiden.c:801: u8 shift = (u8)((7 - i) * 4);
    00000CD3 3E 07            [ 8] 3158 	ld	a, #0x07
    00000CD5 96               [ 8] 3159 	sub	a, (hl)
    00000CD6 2B               [ 8] 3160 	dec	hl
    00000CD7 87               [ 4] 3161 	add	a, a
    00000CD8 87               [ 4] 3162 	add	a, a
                                   3163 ;kaijugaiden.c:802: out[i]     = password_nibble_to_hex((u8)((cleared_bosses >> shift) & 0x0F));
    00000CD9 22               [ 8] 3164 	ld	(hl+), a
    00000CDA 6E               [ 8] 3165 	ld	l, (hl)
    00000CDB 26 00            [ 8] 3166 	ld	h, #0x00
    00000CDD 09               [ 8] 3167 	add	hl, bc
    00000CDE 5D               [ 4] 3168 	ld	e, l
    00000CDF 54               [ 4] 3169 	ld	d, h
    00000CE0 F8 04            [12] 3170 	ldhl	sp,	#4
    00000CE2 7E               [ 8] 3171 	ld	a, (hl)
    00000CE3 F5               [16] 3172 	push	af
    00000CE4 F8 0A            [12] 3173 	ldhl	sp,	#10
    00000CE6 7E               [ 8] 3174 	ld	a, (hl)
    00000CE7 F8 02            [12] 3175 	ldhl	sp,	#2
    00000CE9 77               [ 8] 3176 	ld	(hl), a
    00000CEA F8 0B            [12] 3177 	ldhl	sp,	#11
    00000CEC 7E               [ 8] 3178 	ld	a, (hl)
    00000CED F8 03            [12] 3179 	ldhl	sp,	#3
    00000CEF 77               [ 8] 3180 	ld	(hl), a
    00000CF0 F8 0C            [12] 3181 	ldhl	sp,	#12
    00000CF2 7E               [ 8] 3182 	ld	a, (hl)
    00000CF3 F8 04            [12] 3183 	ldhl	sp,	#4
    00000CF5 77               [ 8] 3184 	ld	(hl), a
    00000CF6 F8 0D            [12] 3185 	ldhl	sp,	#13
    00000CF8 7E               [ 8] 3186 	ld	a, (hl)
    00000CF9 F8 05            [12] 3187 	ldhl	sp,	#5
    00000CFB 77               [ 8] 3188 	ld	(hl), a
    00000CFC F1               [12] 3189 	pop	af
    00000CFD 3C               [ 4] 3190 	inc	a
    00000CFE 18 0D            [12] 3191 	jr	00123$
    00000D00                       3192 00122$:
    00000D00 F8 03            [12] 3193 	ldhl	sp,	#3
    00000D02 CB 3E            [16] 3194 	srl	(hl)
    00000D04 2B               [ 8] 3195 	dec	hl
    00000D05 CB 1E            [16] 3196 	rr	(hl)
    00000D07 2B               [ 8] 3197 	dec	hl
    00000D08 CB 1E            [16] 3198 	rr	(hl)
    00000D0A 2B               [ 8] 3199 	dec	hl
    00000D0B CB 1E            [16] 3200 	rr	(hl)
    00000D0D                       3201 00123$:
    00000D0D 3D               [ 4] 3202 	dec	a
    00000D0E 20 F0            [12] 3203 	jr	NZ, 00122$
    00000D10 F8 00            [12] 3204 	ldhl	sp,	#0
    00000D12 7E               [ 8] 3205 	ld	a, (hl)
    00000D13 E6 0F            [ 8] 3206 	and	a, #0x0f
    00000D15 C5               [16] 3207 	push	bc
    00000D16 D5               [16] 3208 	push	de
    00000D17 CDr4Br0C         [24] 3209 	call	_password_nibble_to_hex
    00000D1A D1               [12] 3210 	pop	de
    00000D1B C1               [12] 3211 	pop	bc
    00000D1C 12               [ 8] 3212 	ld	(de), a
                                   3213 ;kaijugaiden.c:803: out[8 + i] = password_nibble_to_hex((u8)((cyphers >> shift) & 0x0F));
    00000D1D F8 05            [12] 3214 	ldhl	sp,	#5
    00000D1F 3A               [ 8] 3215 	ld	a, (hl-)
    00000D20 C6 08            [ 8] 3216 	add	a, #0x08
    00000D22 81               [ 4] 3217 	add	a, c
    00000D23 5F               [ 4] 3218 	ld	e, a
    00000D24 3E 00            [ 8] 3219 	ld	a, #0x00
    00000D26 88               [ 4] 3220 	adc	a, b
    00000D27 57               [ 4] 3221 	ld	d, a
    00000D28 7E               [ 8] 3222 	ld	a, (hl)
    00000D29 F5               [16] 3223 	push	af
    00000D2A F8 0E            [12] 3224 	ldhl	sp,	#14
    00000D2C 7E               [ 8] 3225 	ld	a, (hl)
    00000D2D F8 03            [12] 3226 	ldhl	sp,	#3
    00000D2F 77               [ 8] 3227 	ld	(hl), a
    00000D30 F8 0F            [12] 3228 	ldhl	sp,	#15
    00000D32 7E               [ 8] 3229 	ld	a, (hl)
    00000D33 F8 04            [12] 3230 	ldhl	sp,	#4
    00000D35 77               [ 8] 3231 	ld	(hl), a
    00000D36 F8 10            [12] 3232 	ldhl	sp,	#16
    00000D38 7E               [ 8] 3233 	ld	a, (hl)
    00000D39 F8 05            [12] 3234 	ldhl	sp,	#5
    00000D3B 77               [ 8] 3235 	ld	(hl), a
    00000D3C F8 11            [12] 3236 	ldhl	sp,	#17
    00000D3E 7E               [ 8] 3237 	ld	a, (hl)
    00000D3F F8 06            [12] 3238 	ldhl	sp,	#6
    00000D41 77               [ 8] 3239 	ld	(hl), a
    00000D42 F1               [12] 3240 	pop	af
    00000D43 3C               [ 4] 3241 	inc	a
    00000D44 18 0D            [12] 3242 	jr	00125$
    00000D46                       3243 00124$:
    00000D46 F8 04            [12] 3244 	ldhl	sp,	#4
    00000D48 CB 3E            [16] 3245 	srl	(hl)
    00000D4A 2B               [ 8] 3246 	dec	hl
    00000D4B CB 1E            [16] 3247 	rr	(hl)
    00000D4D 2B               [ 8] 3248 	dec	hl
    00000D4E CB 1E            [16] 3249 	rr	(hl)
    00000D50 2B               [ 8] 3250 	dec	hl
    00000D51 CB 1E            [16] 3251 	rr	(hl)
    00000D53                       3252 00125$:
    00000D53 3D               [ 4] 3253 	dec	a
    00000D54 20 F0            [12] 3254 	jr	NZ, 00124$
    00000D56 F8 01            [12] 3255 	ldhl	sp,	#1
    00000D58 7E               [ 8] 3256 	ld	a, (hl)
    00000D59 E6 0F            [ 8] 3257 	and	a, #0x0f
    00000D5B C5               [16] 3258 	push	bc
    00000D5C D5               [16] 3259 	push	de
    00000D5D CDr4Br0C         [24] 3260 	call	_password_nibble_to_hex
    00000D60 D1               [12] 3261 	pop	de
    00000D61 C1               [12] 3262 	pop	bc
    00000D62 12               [ 8] 3263 	ld	(de), a
                                   3264 ;kaijugaiden.c:800: for (u8 i = 0; i < 8; ++i) {
    00000D63 F8 05            [12] 3265 	ldhl	sp,	#5
    00000D65 34               [12] 3266 	inc	(hl)
    00000D66 C3rCBr0C         [16] 3267 	jp	00103$
    00000D69                       3268 00101$:
                                   3269 ;kaijugaiden.c:805: out[PASSWORD_LEN] = '\0';
    00000D69 21 10 00         [12] 3270 	ld	hl, #0x0010
    00000D6C 09               [ 8] 3271 	add	hl, bc
    00000D6D 36 00            [12] 3272 	ld	(hl), #0x00
                                   3273 ;kaijugaiden.c:806: }
    00000D6F E8 06            [16] 3274 	add	sp, #6
    00000D71 E1               [12] 3275 	pop	hl
    00000D72 E8 08            [16] 3276 	add	sp, #8
    00000D74 E9               [ 4] 3277 	jp	(hl)
                                   3278 ;kaijugaiden.c:808: static int password_decode(const char *pwd, u32 *out_cleared_bosses, u32 *out_cyphers) {
                                   3279 ;	---------------------------------
                                   3280 ; Function password_decode
                                   3281 ; ---------------------------------
    00000D75                       3282 _password_decode:
    00000D75 E8 EF            [16] 3283 	add	sp, #-17
    00000D77 F8 0F            [12] 3284 	ldhl	sp,	#15
    00000D79 7B               [ 4] 3285 	ld	a, e
    00000D7A 22               [ 8] 3286 	ld	(hl+), a
    00000D7B 72               [ 8] 3287 	ld	(hl), d
    00000D7C F8 0D            [12] 3288 	ldhl	sp,	#13
    00000D7E 79               [ 4] 3289 	ld	a, c
    00000D7F 22               [ 8] 3290 	ld	(hl+), a
    00000D80 70               [ 8] 3291 	ld	(hl), b
                                   3292 ;kaijugaiden.c:809: u32 cleared_bosses = 0;
    00000D81 AF               [ 4] 3293 	xor	a, a
    00000D82 F8 00            [12] 3294 	ldhl	sp,	#0
    00000D84 22               [ 8] 3295 	ld	(hl+), a
    00000D85 22               [ 8] 3296 	ld	(hl+), a
    00000D86 22               [ 8] 3297 	ld	(hl+), a
                                   3298 ;kaijugaiden.c:810: u32 cyphers = 0;
    00000D87 22               [ 8] 3299 	ld	(hl+), a
    00000D88 AF               [ 4] 3300 	xor	a, a
    00000D89 22               [ 8] 3301 	ld	(hl+), a
    00000D8A 22               [ 8] 3302 	ld	(hl+), a
    00000D8B 22               [ 8] 3303 	ld	(hl+), a
    00000D8C 77               [ 8] 3304 	ld	(hl), a
                                   3305 ;kaijugaiden.c:811: for (u8 i = 0; i < 8; ++i) {
    00000D8D 0E 00            [ 8] 3306 	ld	c, #0x00
    00000D8F                       3307 00110$:
    00000D8F 79               [ 4] 3308 	ld	a, c
    00000D90 D6 08            [ 8] 3309 	sub	a, #0x08
    00000D92 D2r68r0E         [16] 3310 	jp	NC, 00104$
                                   3311 ;kaijugaiden.c:812: u8 high = password_hex_to_nibble(pwd[i]);
    00000D95 F8 0F            [12] 3312 	ldhl	sp,#15
    00000D97 2A               [ 8] 3313 	ld	a, (hl+)
    00000D98 5F               [ 4] 3314 	ld	e, a
    00000D99 56               [ 8] 3315 	ld	d, (hl)
    00000D9A 69               [ 4] 3316 	ld	l, c
    00000D9B 26 00            [ 8] 3317 	ld	h, #0x00
    00000D9D 19               [ 8] 3318 	add	hl, de
    00000D9E 5D               [ 4] 3319 	ld	e, l
    00000D9F 54               [ 4] 3320 	ld	d, h
    00000DA0 1A               [ 8] 3321 	ld	a, (de)
    00000DA1 C5               [16] 3322 	push	bc
    00000DA2 CDr5Ar0C         [24] 3323 	call	_password_hex_to_nibble
    00000DA5 C1               [12] 3324 	pop	bc
    00000DA6 47               [ 4] 3325 	ld	b, a
                                   3326 ;kaijugaiden.c:813: u8 low  = password_hex_to_nibble(pwd[8 + i]);
    00000DA7 79               [ 4] 3327 	ld	a, c
    00000DA8 C6 08            [ 8] 3328 	add	a, #0x08
    00000DAA 5F               [ 4] 3329 	ld	e, a
    00000DAB 16 00            [ 8] 3330 	ld	d, #0x00
    00000DAD F8 0F            [12] 3331 	ldhl	sp,	#15
    00000DAF 2A               [ 8] 3332 	ld	a,	(hl+)
    00000DB0 66               [ 8] 3333 	ld	h, (hl)
    00000DB1 6F               [ 4] 3334 	ld	l, a
    00000DB2 19               [ 8] 3335 	add	hl, de
    00000DB3 5D               [ 4] 3336 	ld	e, l
    00000DB4 54               [ 4] 3337 	ld	d, h
    00000DB5 1A               [ 8] 3338 	ld	a, (de)
    00000DB6 C5               [16] 3339 	push	bc
    00000DB7 CDr5Ar0C         [24] 3340 	call	_password_hex_to_nibble
    00000DBA F8 0A            [12] 3341 	ldhl	sp,	#10
    00000DBC 77               [ 8] 3342 	ld	(hl), a
    00000DBD C1               [12] 3343 	pop	bc
                                   3344 ;kaijugaiden.c:814: if (high == 0xFF || low == 0xFF) return -1;
    00000DBE 78               [ 4] 3345 	ld	a, b
    00000DBF 3C               [ 4] 3346 	inc	a
    00000DC0 28 06            [12] 3347 	jr	Z, 00101$
    00000DC2 F8 08            [12] 3348 	ldhl	sp,	#8
    00000DC4 7E               [ 8] 3349 	ld	a, (hl)
    00000DC5 3C               [ 4] 3350 	inc	a
    00000DC6 20 06            [12] 3351 	jr	NZ, 00102$
    00000DC8                       3352 00101$:
    00000DC8 01 FF FF         [12] 3353 	ld	bc, #0xffff
    00000DCB C3r97r0E         [16] 3354 	jp	00112$
    00000DCE                       3355 00102$:
                                   3356 ;kaijugaiden.c:815: cleared_bosses = (cleared_bosses << 4) | high;
    00000DCE F5               [16] 3357 	push	af
    00000DCF F8 02            [12] 3358 	ldhl	sp,	#2
    00000DD1 7E               [ 8] 3359 	ld	a, (hl)
    00000DD2 F8 0B            [12] 3360 	ldhl	sp,	#11
    00000DD4 77               [ 8] 3361 	ld	(hl), a
    00000DD5 F8 03            [12] 3362 	ldhl	sp,	#3
    00000DD7 7E               [ 8] 3363 	ld	a, (hl)
    00000DD8 F8 0C            [12] 3364 	ldhl	sp,	#12
    00000DDA 77               [ 8] 3365 	ld	(hl), a
    00000DDB F8 04            [12] 3366 	ldhl	sp,	#4
    00000DDD 7E               [ 8] 3367 	ld	a, (hl)
    00000DDE F8 0D            [12] 3368 	ldhl	sp,	#13
    00000DE0 77               [ 8] 3369 	ld	(hl), a
    00000DE1 F8 05            [12] 3370 	ldhl	sp,	#5
    00000DE3 7E               [ 8] 3371 	ld	a, (hl)
    00000DE4 F8 0E            [12] 3372 	ldhl	sp,	#14
    00000DE6 77               [ 8] 3373 	ld	(hl), a
    00000DE7 F1               [12] 3374 	pop	af
    00000DE8 3E 04            [ 8] 3375 	ld	a, #0x04
    00000DEA                       3376 00152$:
    00000DEA F8 09            [12] 3377 	ldhl	sp,	#9
    00000DEC CB 26            [16] 3378 	sla	(hl)
    00000DEE 23               [ 8] 3379 	inc	hl
    00000DEF CB 16            [16] 3380 	rl	(hl)
    00000DF1 23               [ 8] 3381 	inc	hl
    00000DF2 CB 16            [16] 3382 	rl	(hl)
    00000DF4 23               [ 8] 3383 	inc	hl
    00000DF5 CB 16            [16] 3384 	rl	(hl)
    00000DF7 3D               [ 4] 3385 	dec	a
    00000DF8 20 F0            [12] 3386 	jr	NZ,00152$
    00000DFA 58               [ 4] 3387 	ld	e, b
    00000DFB AF               [ 4] 3388 	xor	a, a
    00000DFC 57               [ 4] 3389 	ld	d, a
    00000DFD F5               [16] 3390 	push	af
    00000DFE F8 0B            [12] 3391 	ldhl	sp,	#11
    00000E00 7E               [ 8] 3392 	ld	a, (hl)
    00000E01 B3               [ 4] 3393 	or	a, e
    00000E02 F8 02            [12] 3394 	ldhl	sp,	#2
    00000E04 77               [ 8] 3395 	ld	(hl), a
    00000E05 F8 0C            [12] 3396 	ldhl	sp,	#12
    00000E07 7E               [ 8] 3397 	ld	a, (hl)
    00000E08 B2               [ 4] 3398 	or	a, d
    00000E09 F8 03            [12] 3399 	ldhl	sp,	#3
    00000E0B 77               [ 8] 3400 	ld	(hl), a
    00000E0C F1               [12] 3401 	pop	af
    00000E0D F8 0B            [12] 3402 	ldhl	sp,	#11
    00000E0F 7E               [ 8] 3403 	ld	a, (hl)
    00000E10 F8 02            [12] 3404 	ldhl	sp,	#2
    00000E12 77               [ 8] 3405 	ld	(hl), a
    00000E13 F8 0C            [12] 3406 	ldhl	sp,	#12
    00000E15 7E               [ 8] 3407 	ld	a, (hl)
    00000E16 F8 03            [12] 3408 	ldhl	sp,	#3
                                   3409 ;kaijugaiden.c:816: cyphers        = (cyphers << 4) | low;
    00000E18 22               [ 8] 3410 	ld	(hl+), a
    00000E19 F5               [16] 3411 	push	af
    00000E1A 7E               [ 8] 3412 	ld	a, (hl)
    00000E1B F8 0B            [12] 3413 	ldhl	sp,	#11
    00000E1D 77               [ 8] 3414 	ld	(hl), a
    00000E1E F8 07            [12] 3415 	ldhl	sp,	#7
    00000E20 7E               [ 8] 3416 	ld	a, (hl)
    00000E21 F8 0C            [12] 3417 	ldhl	sp,	#12
    00000E23 77               [ 8] 3418 	ld	(hl), a
    00000E24 F8 08            [12] 3419 	ldhl	sp,	#8
    00000E26 7E               [ 8] 3420 	ld	a, (hl)
    00000E27 F8 0D            [12] 3421 	ldhl	sp,	#13
    00000E29 77               [ 8] 3422 	ld	(hl), a
    00000E2A F8 09            [12] 3423 	ldhl	sp,	#9
    00000E2C 7E               [ 8] 3424 	ld	a, (hl)
    00000E2D F8 0E            [12] 3425 	ldhl	sp,	#14
    00000E2F 77               [ 8] 3426 	ld	(hl), a
    00000E30 F1               [12] 3427 	pop	af
    00000E31 3E 04            [ 8] 3428 	ld	a, #0x04
    00000E33                       3429 00154$:
    00000E33 F8 09            [12] 3430 	ldhl	sp,	#9
    00000E35 CB 26            [16] 3431 	sla	(hl)
    00000E37 23               [ 8] 3432 	inc	hl
    00000E38 CB 16            [16] 3433 	rl	(hl)
    00000E3A 23               [ 8] 3434 	inc	hl
    00000E3B CB 16            [16] 3435 	rl	(hl)
    00000E3D 23               [ 8] 3436 	inc	hl
    00000E3E CB 16            [16] 3437 	rl	(hl)
    00000E40 3D               [ 4] 3438 	dec	a
    00000E41 20 F0            [12] 3439 	jr	NZ,00154$
    00000E43 F8 08            [12] 3440 	ldhl	sp,	#8
    00000E45 2A               [ 8] 3441 	ld	a, (hl+)
    00000E46 5F               [ 4] 3442 	ld	e, a
    00000E47 AF               [ 4] 3443 	xor	a, a
    00000E48 57               [ 4] 3444 	ld	d, a
    00000E49 47               [ 4] 3445 	ld	b, a
    00000E4A F5               [16] 3446 	push	af
    00000E4B 7E               [ 8] 3447 	ld	a, (hl)
    00000E4C B3               [ 4] 3448 	or	a, e
    00000E4D F8 06            [12] 3449 	ldhl	sp,	#6
    00000E4F 77               [ 8] 3450 	ld	(hl), a
    00000E50 F8 0C            [12] 3451 	ldhl	sp,	#12
    00000E52 7E               [ 8] 3452 	ld	a, (hl)
    00000E53 B2               [ 4] 3453 	or	a, d
    00000E54 F8 07            [12] 3454 	ldhl	sp,	#7
    00000E56 77               [ 8] 3455 	ld	(hl), a
    00000E57 F1               [12] 3456 	pop	af
    00000E58 F8 0B            [12] 3457 	ldhl	sp,	#11
    00000E5A 7E               [ 8] 3458 	ld	a, (hl)
    00000E5B F8 06            [12] 3459 	ldhl	sp,	#6
    00000E5D 77               [ 8] 3460 	ld	(hl), a
    00000E5E F8 0C            [12] 3461 	ldhl	sp,	#12
    00000E60 7E               [ 8] 3462 	ld	a, (hl)
    00000E61 F8 07            [12] 3463 	ldhl	sp,	#7
    00000E63 77               [ 8] 3464 	ld	(hl), a
                                   3465 ;kaijugaiden.c:811: for (u8 i = 0; i < 8; ++i) {
    00000E64 0C               [ 4] 3466 	inc	c
    00000E65 C3r8Fr0D         [16] 3467 	jp	00110$
    00000E68                       3468 00104$:
                                   3469 ;kaijugaiden.c:818: if (out_cleared_bosses) *out_cleared_bosses = cleared_bosses;
    00000E68 F8 0E            [12] 3470 	ldhl	sp,	#14
    00000E6A 3A               [ 8] 3471 	ld	a, (hl-)
    00000E6B B6               [ 8] 3472 	or	a, (hl)
    00000E6C 28 10            [12] 3473 	jr	Z, 00106$
    00000E6E 2A               [ 8] 3474 	ld	a, (hl+)
    00000E6F 5F               [ 4] 3475 	ld	e, a
    00000E70 56               [ 8] 3476 	ld	d, (hl)
    00000E71 F8 00            [12] 3477 	ldhl	sp,	#0
    00000E73 2A               [ 8] 3478 	ld	a, (hl+)
    00000E74 12               [ 8] 3479 	ld	(de), a
    00000E75 13               [ 8] 3480 	inc	de
    00000E76 2A               [ 8] 3481 	ld	a, (hl+)
    00000E77 12               [ 8] 3482 	ld	(de), a
    00000E78 13               [ 8] 3483 	inc	de
    00000E79 2A               [ 8] 3484 	ld	a, (hl+)
    00000E7A 12               [ 8] 3485 	ld	(de), a
    00000E7B 13               [ 8] 3486 	inc	de
    00000E7C 7E               [ 8] 3487 	ld	a, (hl)
    00000E7D 12               [ 8] 3488 	ld	(de), a
    00000E7E                       3489 00106$:
                                   3490 ;kaijugaiden.c:819: if (out_cyphers) *out_cyphers = cyphers;
    00000E7E F8 14            [12] 3491 	ldhl	sp,	#20
    00000E80 3A               [ 8] 3492 	ld	a, (hl-)
    00000E81 B6               [ 8] 3493 	or	a, (hl)
    00000E82 28 10            [12] 3494 	jr	Z, 00108$
    00000E84 2A               [ 8] 3495 	ld	a, (hl+)
    00000E85 4F               [ 4] 3496 	ld	c, a
    00000E86 46               [ 8] 3497 	ld	b, (hl)
    00000E87 F8 04            [12] 3498 	ldhl	sp,	#4
    00000E89 2A               [ 8] 3499 	ld	a, (hl+)
    00000E8A 02               [ 8] 3500 	ld	(bc), a
    00000E8B 03               [ 8] 3501 	inc	bc
    00000E8C 2A               [ 8] 3502 	ld	a, (hl+)
    00000E8D 02               [ 8] 3503 	ld	(bc), a
    00000E8E 03               [ 8] 3504 	inc	bc
    00000E8F 2A               [ 8] 3505 	ld	a, (hl+)
    00000E90 02               [ 8] 3506 	ld	(bc), a
    00000E91 03               [ 8] 3507 	inc	bc
    00000E92 7E               [ 8] 3508 	ld	a, (hl)
    00000E93 02               [ 8] 3509 	ld	(bc), a
    00000E94                       3510 00108$:
                                   3511 ;kaijugaiden.c:820: return 0;
    00000E94 01 00 00         [12] 3512 	ld	bc, #0x0000
    00000E97                       3513 00112$:
                                   3514 ;kaijugaiden.c:821: }
    00000E97 E8 11            [16] 3515 	add	sp, #17
    00000E99 E1               [12] 3516 	pop	hl
    00000E9A F1               [12] 3517 	pop	af
    00000E9B E9               [ 4] 3518 	jp	(hl)
                                   3519 ;kaijugaiden.c:829: static void bg_draw_beach_rows(u8 row_start, u8 row_end) {
                                   3520 ;	---------------------------------
                                   3521 ; Function bg_draw_beach_rows
                                   3522 ; ---------------------------------
    00000E9C                       3523 _bg_draw_beach_rows:
    00000E9C E8 F5            [16] 3524 	add	sp, #-11
    00000E9E 4F               [ 4] 3525 	ld	c, a
    00000E9F F8 08            [12] 3526 	ldhl	sp,	#8
    00000EA1 73               [ 8] 3527 	ld	(hl), e
                                   3528 ;kaijugaiden.c:830: s8 bg_x = gs.camera_bg_x;
    00000EA2 FAr7Cr00         [16] 3529 	ld	a, (#(_gs + 124) + 0)
    00000EA5 F8 0A            [12] 3530 	ldhl	sp,	#10
    00000EA7 77               [ 8] 3531 	ld	(hl), a
                                   3532 ;kaijugaiden.c:831: s8 bg_y = gs.camera_bg_y;
    00000EA8 21r7Dr00         [12] 3533 	ld	hl, #_gs + 125
    00000EAB 46               [ 8] 3534 	ld	b, (hl)
                                   3535 ;kaijugaiden.c:832: u8 water_tile = ((gs.anim_tick >> 3) & 1) ? TILE_WATER_A : TILE_WATER_B;
    00000EAC FAr76r00         [16] 3536 	ld	a, (#_gs + 118)
    00000EAF 0F               [ 4] 3537 	rrca
    00000EB0 0F               [ 4] 3538 	rrca
    00000EB1 0F               [ 4] 3539 	rrca
    00000EB2 E6 01            [ 8] 3540 	and	a, #0x01
    00000EB4 3E 03            [ 8] 3541 	ld	a, #0x03
    00000EB6 20 02            [12] 3542 	jr	NZ, 00124$
    00000EB8 3E 04            [ 8] 3543 	ld	a, #0x04
    00000EBA                       3544 00124$:
    00000EBA F8 02            [12] 3545 	ldhl	sp,	#2
    00000EBC 77               [ 8] 3546 	ld	(hl), a
                                   3547 ;kaijugaiden.c:833: u8 water_start = (bg_y <= -1) ? 10 : (bg_y >= 1) ? 12 : 11;
    00000EBD 58               [ 4] 3548 	ld	e, b
    00000EBE 3E FF            [ 8] 3549 	ld	a,#0xff
    00000EC0 57               [ 4] 3550 	ld	d,a
    00000EC1 90               [ 4] 3551 	sub	a, b
    00000EC2 CB 7B            [ 8] 3552 	bit	7, e
    00000EC4 28 07            [12] 3553 	jr	Z, 00253$
    00000EC6 CB 7A            [ 8] 3554 	bit	7, d
    00000EC8 20 08            [12] 3555 	jr	NZ, 00254$
    00000ECA BF               [ 4] 3556 	cp	a, a
    00000ECB 18 05            [12] 3557 	jr	00254$
    00000ECD                       3558 00253$:
    00000ECD CB 7A            [ 8] 3559 	bit	7, d
    00000ECF 28 01            [12] 3560 	jr	Z, 00254$
    00000ED1 37               [ 4] 3561 	scf
    00000ED2                       3562 00254$:
    00000ED2 38 04            [12] 3563 	jr	C, 00125$
    00000ED4 3E 0A            [ 8] 3564 	ld	a, #0x0a
    00000ED6 18 0D            [12] 3565 	jr	00126$
    00000ED8                       3566 00125$:
    00000ED8 78               [ 4] 3567 	ld	a, b
    00000ED9 EE 80            [ 8] 3568 	xor	a, #0x80
    00000EDB D6 81            [ 8] 3569 	sub	a, #0x81
    00000EDD 38 04            [12] 3570 	jr	C, 00127$
    00000EDF 3E 0C            [ 8] 3571 	ld	a, #0x0c
    00000EE1 18 02            [12] 3572 	jr	00128$
    00000EE3                       3573 00127$:
    00000EE3 3E 0B            [ 8] 3574 	ld	a, #0x0b
    00000EE5                       3575 00128$:
    00000EE5                       3576 00126$:
    00000EE5 F8 03            [12] 3577 	ldhl	sp,	#3
    00000EE7 77               [ 8] 3578 	ld	(hl), a
                                   3579 ;kaijugaiden.c:834: u8 ground_split = (bg_x <= -1) ? 9 : (bg_x >= 1) ? 11 : 10;
    00000EE8 F8 0A            [12] 3580 	ldhl	sp,	#10
    00000EEA 5E               [ 8] 3581 	ld	e, (hl)
    00000EEB 3E FF            [ 8] 3582 	ld	a,#0xff
    00000EED 57               [ 4] 3583 	ld	d,a
    00000EEE 96               [ 8] 3584 	sub	a, (hl)
    00000EEF CB 7B            [ 8] 3585 	bit	7, e
    00000EF1 28 07            [12] 3586 	jr	Z, 00255$
    00000EF3 CB 7A            [ 8] 3587 	bit	7, d
    00000EF5 20 08            [12] 3588 	jr	NZ, 00256$
    00000EF7 BF               [ 4] 3589 	cp	a, a
    00000EF8 18 05            [12] 3590 	jr	00256$
    00000EFA                       3591 00255$:
    00000EFA CB 7A            [ 8] 3592 	bit	7, d
    00000EFC 28 01            [12] 3593 	jr	Z, 00256$
    00000EFE 37               [ 4] 3594 	scf
    00000EFF                       3595 00256$:
    00000EFF 38 04            [12] 3596 	jr	C, 00129$
    00000F01 3E 09            [ 8] 3597 	ld	a, #0x09
    00000F03 18 0F            [12] 3598 	jr	00130$
    00000F05                       3599 00129$:
    00000F05 F8 0A            [12] 3600 	ldhl	sp,	#10
    00000F07 7E               [ 8] 3601 	ld	a, (hl)
    00000F08 EE 80            [ 8] 3602 	xor	a, #0x80
    00000F0A D6 81            [ 8] 3603 	sub	a, #0x81
    00000F0C 38 04            [12] 3604 	jr	C, 00131$
    00000F0E 3E 0B            [ 8] 3605 	ld	a, #0x0b
    00000F10 18 02            [12] 3606 	jr	00132$
    00000F12                       3607 00131$:
    00000F12 3E 0A            [ 8] 3608 	ld	a, #0x0a
    00000F14                       3609 00132$:
    00000F14                       3610 00130$:
    00000F14 F8 04            [12] 3611 	ldhl	sp,	#4
    00000F16 77               [ 8] 3612 	ld	(hl), a
                                   3613 ;kaijugaiden.c:835: if (row_end > BKG_ROWS) row_end = BKG_ROWS;
    00000F17 3E 12            [ 8] 3614 	ld	a, #0x12
    00000F19 F8 08            [12] 3615 	ldhl	sp,	#8
    00000F1B 96               [ 8] 3616 	sub	a, (hl)
    00000F1C 30 02            [12] 3617 	jr	NC, 00154$
    00000F1E 36 12            [12] 3618 	ld	(hl), #0x12
                                   3619 ;kaijugaiden.c:836: for (u8 row = row_start; row < row_end; ++row) {
    00000F20                       3620 00154$:
    00000F20 F8 0A            [12] 3621 	ldhl	sp,	#10
    00000F22 7E               [ 8] 3622 	ld	a, (hl)
    00000F23 D6 01            [ 8] 3623 	sub	a, #0x01
    00000F25 3E 00            [ 8] 3624 	ld	a, #0x00
    00000F27 17               [ 4] 3625 	rla
    00000F28 EE 01            [ 8] 3626 	xor	a, #0x01
    00000F2A F8 05            [12] 3627 	ldhl	sp,	#5
    00000F2C 77               [ 8] 3628 	ld	(hl), a
    00000F2D F8 09            [12] 3629 	ldhl	sp,	#9
    00000F2F 71               [ 8] 3630 	ld	(hl), c
    00000F30                       3631 00119$:
    00000F30 F8 09            [12] 3632 	ldhl	sp,	#9
    00000F32 3A               [ 8] 3633 	ld	a, (hl-)
    00000F33 96               [ 8] 3634 	sub	a, (hl)
    00000F34 D2rE8r0F         [16] 3635 	jp	NC, 00121$
                                   3636 ;kaijugaiden.c:837: for (u8 col = 0; col < BKG_COLS; ++col) {
    00000F37 23               [ 8] 3637 	inc	hl
    00000F38 7E               [ 8] 3638 	ld	a, (hl)
    00000F39 F8 03            [12] 3639 	ldhl	sp,	#3
    00000F3B 96               [ 8] 3640 	sub	a, (hl)
    00000F3C 3E 00            [ 8] 3641 	ld	a, #0x00
    00000F3E 17               [ 4] 3642 	rla
    00000F3F F8 06            [12] 3643 	ldhl	sp,	#6
    00000F41 77               [ 8] 3644 	ld	(hl), a
    00000F42 F8 0A            [12] 3645 	ldhl	sp,	#10
    00000F44 36 00            [12] 3646 	ld	(hl), #0x00
    00000F46                       3647 00116$:
    00000F46 F8 0A            [12] 3648 	ldhl	sp,	#10
    00000F48 7E               [ 8] 3649 	ld	a, (hl)
    00000F49 D6 14            [ 8] 3650 	sub	a, #0x14
    00000F4B D2rE2r0F         [16] 3651 	jp	NC, 00120$
                                   3652 ;kaijugaiden.c:839: if (row < water_start)       t = ((row + col + (bg_x != 0)) % 2) ? TILE_SKY_A : TILE_SKY_B;
    00000F4E F8 06            [12] 3653 	ldhl	sp,	#6
    00000F50 7E               [ 8] 3654 	ld	a, (hl)
    00000F51 B7               [ 4] 3655 	or	a, a
    00000F52 28 35            [12] 3656 	jr	Z, 00110$
    00000F54 F8 09            [12] 3657 	ldhl	sp,	#9
    00000F56 2A               [ 8] 3658 	ld	a, (hl+)
    00000F57 4F               [ 4] 3659 	ld	c, a
    00000F58 06 00            [ 8] 3660 	ld	b, #0x00
    00000F5A 7E               [ 8] 3661 	ld	a, (hl)
    00000F5B 1E 00            [ 8] 3662 	ld	e, #0x00
    00000F5D 81               [ 4] 3663 	add	a, c
    00000F5E 4F               [ 4] 3664 	ld	c, a
    00000F5F 7B               [ 4] 3665 	ld	a, e
    00000F60 88               [ 4] 3666 	adc	a, b
    00000F61 47               [ 4] 3667 	ld	b, a
    00000F62 F8 05            [12] 3668 	ldhl	sp,	#5
    00000F64 7E               [ 8] 3669 	ld	a, (hl)
    00000F65 16 00            [ 8] 3670 	ld	d, #0x00
    00000F67 81               [ 4] 3671 	add	a, c
    00000F68 5F               [ 4] 3672 	ld	e, a
    00000F69 7A               [ 4] 3673 	ld	a, d
    00000F6A 88               [ 4] 3674 	adc	a, b
    00000F6B 01 02 00         [12] 3675 	ld	bc, #0x0002
    00000F6E 57               [ 4] 3676 	ld	d, a
    00000F6F CDr00r00         [24] 3677 	call	__modsint
    00000F72 E1               [12] 3678 	pop	hl
    00000F73 C5               [16] 3679 	push	bc
    00000F74 F8 01            [12] 3680 	ldhl	sp,	#1
    00000F76 3A               [ 8] 3681 	ld	a, (hl-)
    00000F77 B6               [ 8] 3682 	or	a, (hl)
    00000F78 28 06            [12] 3683 	jr	Z, 00133$
    00000F7A F8 07            [12] 3684 	ldhl	sp,	#7
    00000F7C 36 07            [12] 3685 	ld	(hl), #0x07
    00000F7E 18 04            [12] 3686 	jr	00134$
    00000F80                       3687 00133$:
    00000F80 F8 07            [12] 3688 	ldhl	sp,	#7
    00000F82 36 08            [12] 3689 	ld	(hl), #0x08
    00000F84                       3690 00134$:
    00000F84 F8 07            [12] 3691 	ldhl	sp,	#7
    00000F86 7E               [ 8] 3692 	ld	a, (hl)
    00000F87 18 49            [12] 3693 	jr	00111$
    00000F89                       3694 00110$:
                                   3695 ;kaijugaiden.c:840: else if (row < water_start + 3)  t = water_tile;
    00000F89 F8 03            [12] 3696 	ldhl	sp,	#3
    00000F8B 5E               [ 8] 3697 	ld	e, (hl)
    00000F8C 43               [ 4] 3698 	ld	b, e
    00000F8D 04               [ 4] 3699 	inc	b
    00000F8E 04               [ 4] 3700 	inc	b
    00000F8F 04               [ 4] 3701 	inc	b
    00000F90 F8 09            [12] 3702 	ldhl	sp,	#9
    00000F92 4E               [ 8] 3703 	ld	c, (hl)
    00000F93 79               [ 4] 3704 	ld	a, c
    00000F94 90               [ 4] 3705 	sub	a, b
    00000F95 30 05            [12] 3706 	jr	NC, 00107$
    00000F97 F8 02            [12] 3707 	ldhl	sp,	#2
    00000F99 7E               [ 8] 3708 	ld	a, (hl)
    00000F9A 18 36            [12] 3709 	jr	00111$
    00000F9C                       3710 00107$:
                                   3711 ;kaijugaiden.c:841: else if (row < water_start + 5)  t = (col < ground_split) ? TILE_GROUND_L : TILE_GROUND_R;
    00000F9C 7B               [ 4] 3712 	ld	a, e
    00000F9D C6 05            [ 8] 3713 	add	a, #0x05
    00000F9F 47               [ 4] 3714 	ld	b, a
    00000FA0 F8 0A            [12] 3715 	ldhl	sp,	#10
    00000FA2 7E               [ 8] 3716 	ld	a, (hl)
    00000FA3 F8 04            [12] 3717 	ldhl	sp,	#4
    00000FA5 96               [ 8] 3718 	sub	a, (hl)
    00000FA6 3E 00            [ 8] 3719 	ld	a, #0x00
    00000FA8 17               [ 4] 3720 	rla
    00000FA9 5F               [ 4] 3721 	ld	e, a
    00000FAA 79               [ 4] 3722 	ld	a, c
    00000FAB 90               [ 4] 3723 	sub	a, b
    00000FAC 30 13            [12] 3724 	jr	NC, 00104$
    00000FAE 7B               [ 4] 3725 	ld	a, e
    00000FAF B7               [ 4] 3726 	or	a, a
    00000FB0 28 06            [12] 3727 	jr	Z, 00135$
    00000FB2 F8 07            [12] 3728 	ldhl	sp,	#7
    00000FB4 36 01            [12] 3729 	ld	(hl), #0x01
    00000FB6 18 04            [12] 3730 	jr	00136$
    00000FB8                       3731 00135$:
    00000FB8 F8 07            [12] 3732 	ldhl	sp,	#7
    00000FBA 36 02            [12] 3733 	ld	(hl), #0x02
    00000FBC                       3734 00136$:
    00000FBC F8 07            [12] 3735 	ldhl	sp,	#7
    00000FBE 7E               [ 8] 3736 	ld	a, (hl)
    00000FBF 18 11            [12] 3737 	jr	00111$
    00000FC1                       3738 00104$:
                                   3739 ;kaijugaiden.c:842: else                             t = (col < ground_split) ? TILE_CLIFF_A  : TILE_CLIFF_B;
    00000FC1 7B               [ 4] 3740 	ld	a, e
    00000FC2 B7               [ 4] 3741 	or	a, a
    00000FC3 28 06            [12] 3742 	jr	Z, 00137$
    00000FC5 F8 07            [12] 3743 	ldhl	sp,	#7
    00000FC7 36 05            [12] 3744 	ld	(hl), #0x05
    00000FC9 18 04            [12] 3745 	jr	00138$
    00000FCB                       3746 00137$:
    00000FCB F8 07            [12] 3747 	ldhl	sp,	#7
    00000FCD 36 06            [12] 3748 	ld	(hl), #0x06
    00000FCF                       3749 00138$:
    00000FCF F8 07            [12] 3750 	ldhl	sp,	#7
    00000FD1 7E               [ 8] 3751 	ld	a, (hl)
    00000FD2                       3752 00111$:
                                   3753 ;kaijugaiden.c:146: set_bkg_tile_xy(x, y, tile);
    00000FD2 F5               [16] 3754 	push	af
    00000FD3 33               [ 8] 3755 	inc	sp
    00000FD4 F8 0A            [12] 3756 	ldhl	sp,	#10
    00000FD6 2A               [ 8] 3757 	ld	a, (hl+)
    00000FD7 5F               [ 4] 3758 	ld	e, a
    00000FD8 7E               [ 8] 3759 	ld	a, (hl)
    00000FD9 CDr00r00         [24] 3760 	call	_set_bkg_tile_xy
                                   3761 ;kaijugaiden.c:837: for (u8 col = 0; col < BKG_COLS; ++col) {
    00000FDC F8 0A            [12] 3762 	ldhl	sp,	#10
    00000FDE 34               [12] 3763 	inc	(hl)
    00000FDF C3r46r0F         [16] 3764 	jp	00116$
    00000FE2                       3765 00120$:
                                   3766 ;kaijugaiden.c:836: for (u8 row = row_start; row < row_end; ++row) {
    00000FE2 F8 09            [12] 3767 	ldhl	sp,	#9
    00000FE4 34               [12] 3768 	inc	(hl)
    00000FE5 C3r30r0F         [16] 3769 	jp	00119$
    00000FE8                       3770 00121$:
                                   3771 ;kaijugaiden.c:846: }
    00000FE8 E8 0B            [16] 3772 	add	sp, #11
    00000FEA C9               [16] 3773 	ret
                                   3774 ;kaijugaiden.c:848: static void bg_draw_beach(void) {
                                   3775 ;	---------------------------------
                                   3776 ; Function bg_draw_beach
                                   3777 ; ---------------------------------
    00000FEB                       3778 _bg_draw_beach:
                                   3779 ;kaijugaiden.c:849: bg_draw_beach_rows(0, BKG_ROWS);
    00000FEB 1E 12            [ 8] 3780 	ld	e, #0x12
    00000FED AF               [ 4] 3781 	xor	a, a
                                   3782 ;kaijugaiden.c:850: }
    00000FEE C3r9Cr0E         [16] 3783 	jp	_bg_draw_beach_rows
                                   3784 ;kaijugaiden.c:852: static void bg_draw_beach_water_only(void) {
                                   3785 ;	---------------------------------
                                   3786 ; Function bg_draw_beach_water_only
                                   3787 ; ---------------------------------
    00000FF1                       3788 _bg_draw_beach_water_only:
                                   3789 ;kaijugaiden.c:853: u8 water_start = (gs.camera_bg_y <= -1) ? 10 : (gs.camera_bg_y >= 1) ? 12 : 11;
    00000FF1 21r7Dr00         [12] 3790 	ld	hl, #(_gs + 125)
    00000FF4 4E               [ 8] 3791 	ld	c, (hl)
    00000FF5 59               [ 4] 3792 	ld	e, c
    00000FF6 3E FF            [ 8] 3793 	ld	a,#0xff
    00000FF8 57               [ 4] 3794 	ld	d,a
    00000FF9 91               [ 4] 3795 	sub	a, c
    00000FFA CB 7B            [ 8] 3796 	bit	7, e
    00000FFC 28 07            [12] 3797 	jr	Z, 00121$
    00000FFE CB 7A            [ 8] 3798 	bit	7, d
    00001000 20 08            [12] 3799 	jr	NZ, 00122$
    00001002 BF               [ 4] 3800 	cp	a, a
    00001003 18 05            [12] 3801 	jr	00122$
    00001005                       3802 00121$:
    00001005 CB 7A            [ 8] 3803 	bit	7, d
    00001007 28 01            [12] 3804 	jr	Z, 00122$
    00001009 37               [ 4] 3805 	scf
    0000100A                       3806 00122$:
    0000100A 38 04            [12] 3807 	jr	C, 00103$
    0000100C 0E 0A            [ 8] 3808 	ld	c, #0x0a
    0000100E 18 0D            [12] 3809 	jr	00104$
    00001010                       3810 00103$:
    00001010 79               [ 4] 3811 	ld	a, c
    00001011 EE 80            [ 8] 3812 	xor	a, #0x80
    00001013 D6 81            [ 8] 3813 	sub	a, #0x81
    00001015 38 04            [12] 3814 	jr	C, 00105$
    00001017 0E 0C            [ 8] 3815 	ld	c, #0x0c
    00001019 18 02            [12] 3816 	jr	00106$
    0000101B                       3817 00105$:
    0000101B 0E 0B            [ 8] 3818 	ld	c, #0x0b
    0000101D                       3819 00106$:
    0000101D                       3820 00104$:
                                   3821 ;kaijugaiden.c:854: bg_draw_beach_rows(water_start, (u8)(water_start + 3));
    0000101D 79               [ 4] 3822 	ld	a, c
    0000101E C6 03            [ 8] 3823 	add	a, #0x03
    00001020 5F               [ 4] 3824 	ld	e, a
    00001021 79               [ 4] 3825 	ld	a, c
                                   3826 ;kaijugaiden.c:855: }
    00001022 C3r9Cr0E         [16] 3827 	jp	_bg_draw_beach_rows
                                   3828 ;kaijugaiden.c:858: static void bg_draw_splash(void) {
                                   3829 ;	---------------------------------
                                   3830 ; Function bg_draw_splash
                                   3831 ; ---------------------------------
    00001025                       3832 _bg_draw_splash:
                                   3833 ;kaijugaiden.c:859: bg_fill(TILE_BLANK);
    00001025 AF               [ 4] 3834 	xor	a, a
    00001026 CDr76r0B         [24] 3835 	call	_bg_fill
                                   3836 ;kaijugaiden.c:862: for (u8 row = 0; row < 2; ++row)
    00001029 0E 00            [ 8] 3837 	ld	c, #0x00
    0000102B                       3838 00111$:
    0000102B 79               [ 4] 3839 	ld	a, c
    0000102C D6 02            [ 8] 3840 	sub	a, #0x02
    0000102E 30 23            [12] 3841 	jr	NC, 00102$
                                   3842 ;kaijugaiden.c:863: for (u8 col = 0; col < 4; ++col)
    00001030 06 00            [ 8] 3843 	ld	b, #0x00
    00001032                       3844 00108$:
    00001032 78               [ 4] 3845 	ld	a, b
    00001033 D6 04            [ 8] 3846 	sub	a, #0x04
    00001035 30 19            [12] 3847 	jr	NC, 00112$
                                   3848 ;kaijugaiden.c:864: plat_set_bkg_tile(8 + col, 6 + row, start_tile + row * 4 + col);
    00001037 79               [ 4] 3849 	ld	a, c
    00001038 87               [ 4] 3850 	add	a, a
    00001039 87               [ 4] 3851 	add	a, a
    0000103A C6 09            [ 8] 3852 	add	a, #0x09
    0000103C 68               [ 4] 3853 	ld	l, b
    0000103D 85               [ 4] 3854 	add	a, l
    0000103E 57               [ 4] 3855 	ld	d, a
    0000103F 79               [ 4] 3856 	ld	a, c
    00001040 C6 06            [ 8] 3857 	add	a, #0x06
    00001042 5F               [ 4] 3858 	ld	e, a
    00001043 7D               [ 4] 3859 	ld	a, l
    00001044 C6 08            [ 8] 3860 	add	a, #0x08
                                   3861 ;kaijugaiden.c:146: set_bkg_tile_xy(x, y, tile);
    00001046 C5               [16] 3862 	push	bc
    00001047 D5               [16] 3863 	push	de
    00001048 33               [ 8] 3864 	inc	sp
    00001049 CDr00r00         [24] 3865 	call	_set_bkg_tile_xy
    0000104C C1               [12] 3866 	pop	bc
                                   3867 ;kaijugaiden.c:863: for (u8 col = 0; col < 4; ++col)
    0000104D 04               [ 4] 3868 	inc	b
    0000104E 18 E2            [12] 3869 	jr	00108$
    00001050                       3870 00112$:
                                   3871 ;kaijugaiden.c:862: for (u8 row = 0; row < 2; ++row)
    00001050 0C               [ 4] 3872 	inc	c
    00001051 18 D8            [12] 3873 	jr	00111$
    00001053                       3874 00102$:
                                   3875 ;kaijugaiden.c:146: set_bkg_tile_xy(x, y, tile);
    00001053 3E 2F            [ 8] 3876 	ld	a, #0x2f
    00001055 F5               [16] 3877 	push	af
    00001056 33               [ 8] 3878 	inc	sp
    00001057 1E 0A            [ 8] 3879 	ld	e, #0x0a
    00001059 3E 07            [ 8] 3880 	ld	a, #0x07
    0000105B CDr00r00         [24] 3881 	call	_set_bkg_tile_xy
    0000105E 3E 2A            [ 8] 3882 	ld	a, #0x2a
    00001060 F5               [16] 3883 	push	af
    00001061 33               [ 8] 3884 	inc	sp
    00001062 1E 0A            [ 8] 3885 	ld	e, #0x0a
    00001064 3E 08            [ 8] 3886 	ld	a, #0x08
    00001066 CDr00r00         [24] 3887 	call	_set_bkg_tile_xy
    00001069 3E 37            [ 8] 3888 	ld	a, #0x37
    0000106B F5               [16] 3889 	push	af
    0000106C 33               [ 8] 3890 	inc	sp
    0000106D 1E 0A            [ 8] 3891 	ld	e, #0x0a
    0000106F 3E 09            [ 8] 3892 	ld	a, #0x09
    00001071 CDr00r00         [24] 3893 	call	_set_bkg_tile_xy
                                   3894 ;kaijugaiden.c:868: plat_set_bkg_tile(9, 10, TILE_FONT_A + 13);  /* n */
                                   3895 ;kaijugaiden.c:869: }
    00001074 C9               [16] 3896 	ret
                                   3897 ;kaijugaiden.c:872: static void bg_draw_title(void) {
                                   3898 ;	---------------------------------
                                   3899 ; Function bg_draw_title
                                   3900 ; ---------------------------------
    00001075                       3901 _bg_draw_title:
                                   3902 ;kaijugaiden.c:873: bg_fill(TILE_BLANK);
    00001075 AF               [ 4] 3903 	xor	a, a
    00001076 CDr76r0B         [24] 3904 	call	_bg_fill
                                   3905 ;kaijugaiden.c:876: for (u8 row = 0; row < 4; ++row)
    00001079 0E 00            [ 8] 3906 	ld	c, #0x00
    0000107B                       3907 00109$:
    0000107B 79               [ 4] 3908 	ld	a, c
    0000107C D6 04            [ 8] 3909 	sub	a, #0x04
    0000107E 30 24            [12] 3910 	jr	NC, 00102$
                                   3911 ;kaijugaiden.c:877: for (u8 col = 0; col < 3; ++col)
    00001080 06 00            [ 8] 3912 	ld	b, #0x00
    00001082                       3913 00106$:
    00001082 78               [ 4] 3914 	ld	a, b
    00001083 D6 03            [ 8] 3915 	sub	a, #0x03
    00001085 30 1A            [12] 3916 	jr	NC, 00110$
                                   3917 ;kaijugaiden.c:878: plat_set_bkg_tile(8 + col, 3 + row, start + row * 3 + col);
    00001087 79               [ 4] 3918 	ld	a, c
    00001088 5F               [ 4] 3919 	ld	e, a
    00001089 87               [ 4] 3920 	add	a, a
    0000108A 83               [ 4] 3921 	add	a, e
    0000108B C6 11            [ 8] 3922 	add	a, #0x11
    0000108D 68               [ 4] 3923 	ld	l, b
    0000108E 85               [ 4] 3924 	add	a, l
    0000108F 57               [ 4] 3925 	ld	d, a
    00001090 79               [ 4] 3926 	ld	a, c
    00001091 C6 03            [ 8] 3927 	add	a, #0x03
    00001093 5F               [ 4] 3928 	ld	e, a
    00001094 7D               [ 4] 3929 	ld	a, l
    00001095 C6 08            [ 8] 3930 	add	a, #0x08
                                   3931 ;kaijugaiden.c:146: set_bkg_tile_xy(x, y, tile);
    00001097 C5               [16] 3932 	push	bc
    00001098 D5               [16] 3933 	push	de
    00001099 33               [ 8] 3934 	inc	sp
    0000109A CDr00r00         [24] 3935 	call	_set_bkg_tile_xy
    0000109D C1               [12] 3936 	pop	bc
                                   3937 ;kaijugaiden.c:877: for (u8 col = 0; col < 3; ++col)
    0000109E 04               [ 4] 3938 	inc	b
    0000109F 18 E1            [12] 3939 	jr	00106$
    000010A1                       3940 00110$:
                                   3941 ;kaijugaiden.c:876: for (u8 row = 0; row < 4; ++row)
    000010A1 0C               [ 4] 3942 	inc	c
    000010A2 18 D7            [12] 3943 	jr	00109$
    000010A4                       3944 00102$:
                                   3945 ;kaijugaiden.c:879: bg_draw_text(7, 9, "START");
    000010A4 11rCAr10         [12] 3946 	ld	de, #___str_0
    000010A7 D5               [16] 3947 	push	de
    000010A8 1E 09            [ 8] 3948 	ld	e, #0x09
    000010AA 3E 07            [ 8] 3949 	ld	a, #0x07
    000010AC CDr03r0C         [24] 3950 	call	_bg_draw_text
                                   3951 ;kaijugaiden.c:880: bg_draw_text(5, 10, "PASSWORD");
    000010AF 11rD0r10         [12] 3952 	ld	de, #___str_1
    000010B2 D5               [16] 3953 	push	de
    000010B3 1E 0A            [ 8] 3954 	ld	e, #0x0a
    000010B5 3E 05            [ 8] 3955 	ld	a, #0x05
    000010B7 CDr03r0C         [24] 3956 	call	_bg_draw_text
                                   3957 ;kaijugaiden.c:881: plat_set_bkg_tile(4, 9 + gs.menu_sel, TILE_CLIFF_A);
    000010BA FAr52r00         [16] 3958 	ld	a, (#(_gs + 82) + 0)
    000010BD C6 09            [ 8] 3959 	add	a, #0x09
                                   3960 ;kaijugaiden.c:146: set_bkg_tile_xy(x, y, tile);
    000010BF 26 05            [ 8] 3961 	ld	h, #0x05
    000010C1 E5               [16] 3962 	push	hl
    000010C2 33               [ 8] 3963 	inc	sp
    000010C3 5F               [ 4] 3964 	ld	e, a
    000010C4 3E 04            [ 8] 3965 	ld	a, #0x04
    000010C6 CDr00r00         [24] 3966 	call	_set_bkg_tile_xy
                                   3967 ;kaijugaiden.c:881: plat_set_bkg_tile(4, 9 + gs.menu_sel, TILE_CLIFF_A);
                                   3968 ;kaijugaiden.c:882: }
    000010C9 C9               [16] 3969 	ret
    000010CA                       3970 ___str_0:
    000010CA 53 54 41 52 54        3971 	.ascii "START"
    000010CF 00                    3972 	.db 0x00
    000010D0                       3973 ___str_1:
    000010D0 50 41 53 53 57 4F 52  3974 	.ascii "PASSWORD"
             44
    000010D8 00                    3975 	.db 0x00
                                   3976 ;kaijugaiden.c:885: static void bg_draw_number_2(u8 tx, u8 ty, u8 val) {
                                   3977 ;	---------------------------------
                                   3978 ; Function bg_draw_number_2
                                   3979 ; ---------------------------------
    000010D9                       3980 _bg_draw_number_2:
    000010D9 3B               [ 8] 3981 	dec	sp
    000010DA 4F               [ 4] 3982 	ld	c, a
    000010DB F8 00            [12] 3983 	ldhl	sp,	#0
    000010DD 73               [ 8] 3984 	ld	(hl), e
                                   3985 ;kaijugaiden.c:886: plat_set_bkg_tile(tx,   ty, TILE_FONT_0 + (val / 10) % 10);
    000010DE F8 03            [12] 3986 	ldhl	sp,	#3
    000010E0 46               [ 8] 3987 	ld	b, (hl)
    000010E1 C5               [16] 3988 	push	bc
    000010E2 1E 0A            [ 8] 3989 	ld	e, #0x0a
    000010E4 78               [ 4] 3990 	ld	a, b
    000010E5 CDr00r00         [24] 3991 	call	__divuchar
    000010E8 79               [ 4] 3992 	ld	a, c
    000010E9 1E 0A            [ 8] 3993 	ld	e, #0x0a
    000010EB CDr00r00         [24] 3994 	call	__moduchar
    000010EE 79               [ 4] 3995 	ld	a, c
    000010EF C1               [12] 3996 	pop	bc
    000010F0 C6 20            [ 8] 3997 	add	a, #0x20
                                   3998 ;kaijugaiden.c:146: set_bkg_tile_xy(x, y, tile);
    000010F2 C5               [16] 3999 	push	bc
    000010F3 F5               [16] 4000 	push	af
    000010F4 33               [ 8] 4001 	inc	sp
    000010F5 F8 03            [12] 4002 	ldhl	sp,	#3
    000010F7 5E               [ 8] 4003 	ld	e, (hl)
    000010F8 79               [ 4] 4004 	ld	a, c
    000010F9 CDr00r00         [24] 4005 	call	_set_bkg_tile_xy
    000010FC C1               [12] 4006 	pop	bc
                                   4007 ;kaijugaiden.c:887: plat_set_bkg_tile(tx+1, ty, TILE_FONT_0 + val % 10);
    000010FD C5               [16] 4008 	push	bc
    000010FE 1E 0A            [ 8] 4009 	ld	e, #0x0a
    00001100 78               [ 4] 4010 	ld	a, b
    00001101 CDr00r00         [24] 4011 	call	__moduchar
    00001104 79               [ 4] 4012 	ld	a, c
    00001105 C1               [12] 4013 	pop	bc
    00001106 C6 20            [ 8] 4014 	add	a, #0x20
    00001108 0C               [ 4] 4015 	inc	c
                                   4016 ;kaijugaiden.c:146: set_bkg_tile_xy(x, y, tile);
    00001109 F5               [16] 4017 	push	af
    0000110A 33               [ 8] 4018 	inc	sp
    0000110B F8 01            [12] 4019 	ldhl	sp,	#1
    0000110D 5E               [ 8] 4020 	ld	e, (hl)
    0000110E 79               [ 4] 4021 	ld	a, c
    0000110F CDr00r00         [24] 4022 	call	_set_bkg_tile_xy
                                   4023 ;kaijugaiden.c:887: plat_set_bkg_tile(tx+1, ty, TILE_FONT_0 + val % 10);
                                   4024 ;kaijugaiden.c:888: }
    00001112 33               [ 8] 4025 	inc	sp
    00001113 E1               [12] 4026 	pop	hl
    00001114 33               [ 8] 4027 	inc	sp
    00001115 E9               [ 4] 4028 	jp	(hl)
                                   4029 ;kaijugaiden.c:890: static void bg_clear_row(u8 y) {
                                   4030 ;	---------------------------------
                                   4031 ; Function bg_clear_row
                                   4032 ; ---------------------------------
    00001116                       4033 _bg_clear_row:
    00001116 5F               [ 4] 4034 	ld	e, a
                                   4035 ;kaijugaiden.c:891: for (u8 x = 0; x < BKG_COLS; ++x)
    00001117 16 00            [ 8] 4036 	ld	d, #0x00
    00001119                       4037 00104$:
    00001119 7A               [ 4] 4038 	ld	a, d
    0000111A D6 14            [ 8] 4039 	sub	a, #0x14
    0000111C D0               [20] 4040 	ret	NC
                                   4041 ;kaijugaiden.c:146: set_bkg_tile_xy(x, y, tile);
    0000111D D5               [16] 4042 	push	de
    0000111E AF               [ 4] 4043 	xor	a, a
    0000111F F5               [16] 4044 	push	af
    00001120 33               [ 8] 4045 	inc	sp
    00001121 7A               [ 4] 4046 	ld	a, d
    00001122 CDr00r00         [24] 4047 	call	_set_bkg_tile_xy
    00001125 D1               [12] 4048 	pop	de
                                   4049 ;kaijugaiden.c:891: for (u8 x = 0; x < BKG_COLS; ++x)
    00001126 14               [ 4] 4050 	inc	d
                                   4051 ;kaijugaiden.c:893: }
    00001127 18 F0            [12] 4052 	jr	00104$
                                   4053 ;kaijugaiden.c:895: static u8 combat_minions_alive(void) {
                                   4054 ;	---------------------------------
                                   4055 ; Function combat_minions_alive
                                   4056 ; ---------------------------------
    00001129                       4057 _combat_minions_alive:
                                   4058 ;kaijugaiden.c:897: for (u8 i = 0; i < MINION_MAX; ++i)
    00001129 01 00 00         [12] 4059 	ld	bc, #0x0
    0000112C                       4060 00105$:
    0000112C 79               [ 4] 4061 	ld	a, c
    0000112D D6 05            [ 8] 4062 	sub	a, #0x05
    0000112F 30 13            [12] 4063 	jr	NC, 00103$
                                   4064 ;kaijugaiden.c:898: if (gs.minions[i].active) count++;
    00001131 69               [ 4] 4065 	ld	l, c
    00001132 29               [ 8] 4066 	add	hl, hl
    00001133 29               [ 8] 4067 	add	hl, hl
    00001134 29               [ 8] 4068 	add	hl, hl
    00001135 09               [ 8] 4069 	add	hl, bc
    00001136 26 00            [ 8] 4070 	ld	h, #0x00
    00001138 11r1Fr00         [12] 4071 	ld	de, #(_gs + 31)
    0000113B 19               [ 8] 4072 	add	hl, de
    0000113C 7E               [ 8] 4073 	ld	a, (hl)
    0000113D B7               [ 4] 4074 	or	a, a
    0000113E 28 01            [12] 4075 	jr	Z, 00106$
    00001140 04               [ 4] 4076 	inc	b
    00001141                       4077 00106$:
                                   4078 ;kaijugaiden.c:897: for (u8 i = 0; i < MINION_MAX; ++i)
    00001141 0C               [ 4] 4079 	inc	c
    00001142 18 E8            [12] 4080 	jr	00105$
    00001144                       4081 00103$:
                                   4082 ;kaijugaiden.c:899: return count;
    00001144 78               [ 4] 4083 	ld	a, b
                                   4084 ;kaijugaiden.c:900: }
    00001145 C9               [16] 4085 	ret
                                   4086 ;kaijugaiden.c:902: static u8 attack_hits_target(s16 player_center, u8 facing_left, s16 target_center, u8 forward_range, u8 rear_range) {
                                   4087 ;	---------------------------------
                                   4088 ; Function attack_hits_target
                                   4089 ; ---------------------------------
    00001146                       4090 _attack_hits_target:
    00001146 E8 FD            [16] 4091 	add	sp, #-3
    00001148 4B               [ 4] 4092 	ld	c, e
    00001149 42               [ 4] 4093 	ld	b, d
    0000114A F8 02            [12] 4094 	ldhl	sp,	#2
    0000114C 77               [ 8] 4095 	ld	(hl), a
                                   4096 ;kaijugaiden.c:903: s16 delta = target_center - player_center;
    0000114D F8 05            [12] 4097 	ldhl	sp,#5
    0000114F 2A               [ 8] 4098 	ld	a, (hl+)
    00001150 5F               [ 4] 4099 	ld	e, a
    00001151 56               [ 8] 4100 	ld	d, (hl)
    00001152 7B               [ 4] 4101 	ld	a, e
    00001153 91               [ 4] 4102 	sub	a, c
    00001154 5F               [ 4] 4103 	ld	e, a
    00001155 7A               [ 4] 4104 	ld	a, d
    00001156 98               [ 4] 4105 	sbc	a, b
    00001157 47               [ 4] 4106 	ld	b, a
    00001158 4B               [ 4] 4107 	ld	c, e
                                   4108 ;kaijugaiden.c:904: if (facing_left) delta = -delta;
    00001159 F8 02            [12] 4109 	ldhl	sp,	#2
    0000115B 7E               [ 8] 4110 	ld	a, (hl)
    0000115C B7               [ 4] 4111 	or	a, a
    0000115D 28 06            [12] 4112 	jr	Z, 00102$
    0000115F AF               [ 4] 4113 	xor	a, a
    00001160 91               [ 4] 4114 	sub	a, c
    00001161 4F               [ 4] 4115 	ld	c, a
    00001162 9F               [ 4] 4116 	sbc	a, a
    00001163 90               [ 4] 4117 	sub	a, b
    00001164 47               [ 4] 4118 	ld	b, a
    00001165                       4119 00102$:
                                   4120 ;kaijugaiden.c:905: if (delta >= 0) return delta <= forward_range;
    00001165 60               [ 4] 4121 	ld	h, b
    00001166 CB 7C            [ 8] 4122 	bit	7, h
    00001168 20 26            [12] 4123 	jr	NZ, 00104$
    0000116A F8 07            [12] 4124 	ldhl	sp,	#7
    0000116C 7E               [ 8] 4125 	ld	a, (hl)
    0000116D F8 00            [12] 4126 	ldhl	sp,	#0
    0000116F 22               [ 8] 4127 	ld	(hl+), a
    00001170 AF               [ 4] 4128 	xor	a, a
    00001171 32               [ 8] 4129 	ld	(hl-), a
    00001172 2A               [ 8] 4130 	ld	a, (hl+)
    00001173 91               [ 4] 4131 	sub	a, c
    00001174 7E               [ 8] 4132 	ld	a, (hl)
    00001175 98               [ 4] 4133 	sbc	a, b
    00001176 56               [ 8] 4134 	ld	d, (hl)
    00001177 78               [ 4] 4135 	ld	a, b
    00001178 5F               [ 4] 4136 	ld	e, a
    00001179 CB 7B            [ 8] 4137 	bit	7, e
    0000117B 28 07            [12] 4138 	jr	Z, 00121$
    0000117D CB 7A            [ 8] 4139 	bit	7, d
    0000117F 20 08            [12] 4140 	jr	NZ, 00122$
    00001181 BF               [ 4] 4141 	cp	a, a
    00001182 18 05            [12] 4142 	jr	00122$
    00001184                       4143 00121$:
    00001184 CB 7A            [ 8] 4144 	bit	7, d
    00001186 28 01            [12] 4145 	jr	Z, 00122$
    00001188 37               [ 4] 4146 	scf
    00001189                       4147 00122$:
    00001189 3E 00            [ 8] 4148 	ld	a, #0x00
    0000118B 17               [ 4] 4149 	rla
    0000118C EE 01            [ 8] 4150 	xor	a, #0x01
    0000118E 18 2A            [12] 4151 	jr	00105$
    00001190                       4152 00104$:
                                   4153 ;kaijugaiden.c:906: return (-delta) <= rear_range;
    00001190 AF               [ 4] 4154 	xor	a, a
    00001191 91               [ 4] 4155 	sub	a, c
    00001192 4F               [ 4] 4156 	ld	c, a
    00001193 9F               [ 4] 4157 	sbc	a, a
    00001194 90               [ 4] 4158 	sub	a, b
    00001195 47               [ 4] 4159 	ld	b, a
    00001196 F8 08            [12] 4160 	ldhl	sp,	#8
    00001198 7E               [ 8] 4161 	ld	a, (hl)
    00001199 F8 00            [12] 4162 	ldhl	sp,	#0
    0000119B 22               [ 8] 4163 	ld	(hl+), a
    0000119C AF               [ 4] 4164 	xor	a, a
    0000119D 32               [ 8] 4165 	ld	(hl-), a
    0000119E 2A               [ 8] 4166 	ld	a, (hl+)
    0000119F 91               [ 4] 4167 	sub	a, c
    000011A0 7E               [ 8] 4168 	ld	a, (hl)
    000011A1 98               [ 4] 4169 	sbc	a, b
    000011A2 56               [ 8] 4170 	ld	d, (hl)
    000011A3 78               [ 4] 4171 	ld	a, b
    000011A4 5F               [ 4] 4172 	ld	e, a
    000011A5 CB 7B            [ 8] 4173 	bit	7, e
    000011A7 28 07            [12] 4174 	jr	Z, 00123$
    000011A9 CB 7A            [ 8] 4175 	bit	7, d
    000011AB 20 08            [12] 4176 	jr	NZ, 00124$
    000011AD BF               [ 4] 4177 	cp	a, a
    000011AE 18 05            [12] 4178 	jr	00124$
    000011B0                       4179 00123$:
    000011B0 CB 7A            [ 8] 4180 	bit	7, d
    000011B2 28 01            [12] 4181 	jr	Z, 00124$
    000011B4 37               [ 4] 4182 	scf
    000011B5                       4183 00124$:
    000011B5 3E 00            [ 8] 4184 	ld	a, #0x00
    000011B7 17               [ 4] 4185 	rla
    000011B8 EE 01            [ 8] 4186 	xor	a, #0x01
    000011BA                       4187 00105$:
                                   4188 ;kaijugaiden.c:907: }
    000011BA E8 03            [16] 4189 	add	sp, #3
    000011BC E1               [12] 4190 	pop	hl
    000011BD E8 04            [16] 4191 	add	sp, #4
    000011BF E9               [ 4] 4192 	jp	(hl)
                                   4193 ;kaijugaiden.c:909: static u8 abs_distance_u8(s16 a, s16 b) {
                                   4194 ;	---------------------------------
                                   4195 ; Function abs_distance_u8
                                   4196 ; ---------------------------------
    000011C0                       4197 _abs_distance_u8:
    000011C0 7B               [ 4] 4198 	ld	a, e
                                   4199 ;kaijugaiden.c:910: s16 d = a - b;
    000011C1 91               [ 4] 4200 	sub	a, c
    000011C2 4F               [ 4] 4201 	ld	c, a
    000011C3 7A               [ 4] 4202 	ld	a, d
    000011C4 98               [ 4] 4203 	sbc	a, b
                                   4204 ;kaijugaiden.c:911: if (d < 0) d = -d;
    000011C5 CB 7F            [ 8] 4205 	bit	7,a
    000011C7 28 03            [12] 4206 	jr	Z, 00102$
    000011C9 AF               [ 4] 4207 	xor	a, a
    000011CA 91               [ 4] 4208 	sub	a, c
    000011CB 4F               [ 4] 4209 	ld	c, a
    000011CC                       4210 00102$:
                                   4211 ;kaijugaiden.c:912: return (u8)d;
    000011CC 79               [ 4] 4212 	ld	a, c
                                   4213 ;kaijugaiden.c:913: }
    000011CD C9               [16] 4214 	ret
                                   4215 ;kaijugaiden.c:915: static s8 clamp_s8(s16 value, s8 min_value, s8 max_value) {
                                   4216 ;	---------------------------------
                                   4217 ; Function clamp_s8
                                   4218 ; ---------------------------------
    000011CE                       4219 _clamp_s8:
    000011CE E8 FD            [16] 4220 	add	sp, #-3
    000011D0 F8 01            [12] 4221 	ldhl	sp,	#1
    000011D2 73               [ 8] 4222 	ld	(hl), e
    000011D3 23               [ 8] 4223 	inc	hl
    000011D4 72               [ 8] 4224 	ld	(hl), d
    000011D5 2B               [ 8] 4225 	dec	hl
    000011D6 2B               [ 8] 4226 	dec	hl
                                   4227 ;kaijugaiden.c:916: if (value < min_value) return min_value;
    000011D7 22               [ 8] 4228 	ld	(hl+), a
    000011D8 4F               [ 4] 4229 	ld	c, a
    000011D9 07               [ 4] 4230 	rlca
    000011DA 9F               [ 4] 4231 	sbc	a, a
    000011DB 47               [ 4] 4232 	ld	b, a
    000011DC 2A               [ 8] 4233 	ld	a, (hl+)
    000011DD 91               [ 4] 4234 	sub	a, c
    000011DE 7E               [ 8] 4235 	ld	a, (hl)
    000011DF 98               [ 4] 4236 	sbc	a, b
    000011E0 56               [ 8] 4237 	ld	d, (hl)
    000011E1 78               [ 4] 4238 	ld	a, b
    000011E2 5F               [ 4] 4239 	ld	e, a
    000011E3 CB 7B            [ 8] 4240 	bit	7, e
    000011E5 28 07            [12] 4241 	jr	Z, 00121$
    000011E7 CB 7A            [ 8] 4242 	bit	7, d
    000011E9 20 08            [12] 4243 	jr	NZ, 00122$
    000011EB BF               [ 4] 4244 	cp	a, a
    000011EC 18 05            [12] 4245 	jr	00122$
    000011EE                       4246 00121$:
    000011EE CB 7A            [ 8] 4247 	bit	7, d
    000011F0 28 01            [12] 4248 	jr	Z, 00122$
    000011F2 37               [ 4] 4249 	scf
    000011F3                       4250 00122$:
    000011F3 30 05            [12] 4251 	jr	NC, 00102$
    000011F5 F8 00            [12] 4252 	ldhl	sp,	#0
    000011F7 7E               [ 8] 4253 	ld	a, (hl)
    000011F8 18 2B            [12] 4254 	jr	00105$
    000011FA                       4255 00102$:
                                   4256 ;kaijugaiden.c:917: if (value > max_value) return max_value;
    000011FA F8 05            [12] 4257 	ldhl	sp,	#5
    000011FC 7E               [ 8] 4258 	ld	a, (hl)
    000011FD 4F               [ 4] 4259 	ld	c, a
    000011FE 07               [ 4] 4260 	rlca
    000011FF 9F               [ 4] 4261 	sbc	a, a
    00001200 47               [ 4] 4262 	ld	b, a
    00001201 F8 01            [12] 4263 	ldhl	sp,	#1
    00001203 79               [ 4] 4264 	ld	a, c
    00001204 96               [ 8] 4265 	sub	a, (hl)
    00001205 23               [ 8] 4266 	inc	hl
    00001206 78               [ 4] 4267 	ld	a, b
    00001207 9E               [ 8] 4268 	sbc	a, (hl)
    00001208 78               [ 4] 4269 	ld	a, b
    00001209 57               [ 4] 4270 	ld	d, a
    0000120A 5E               [ 8] 4271 	ld	e, (hl)
    0000120B CB 7B            [ 8] 4272 	bit	7, e
    0000120D 28 07            [12] 4273 	jr	Z, 00123$
    0000120F CB 7A            [ 8] 4274 	bit	7, d
    00001211 20 08            [12] 4275 	jr	NZ, 00124$
    00001213 BF               [ 4] 4276 	cp	a, a
    00001214 18 05            [12] 4277 	jr	00124$
    00001216                       4278 00123$:
    00001216 CB 7A            [ 8] 4279 	bit	7, d
    00001218 28 01            [12] 4280 	jr	Z, 00124$
    0000121A 37               [ 4] 4281 	scf
    0000121B                       4282 00124$:
    0000121B 30 05            [12] 4283 	jr	NC, 00104$
    0000121D F8 05            [12] 4284 	ldhl	sp,	#5
    0000121F 7E               [ 8] 4285 	ld	a, (hl)
    00001220 18 03            [12] 4286 	jr	00105$
    00001222                       4287 00104$:
                                   4288 ;kaijugaiden.c:918: return (s8)value;
    00001222 F8 01            [12] 4289 	ldhl	sp,	#1
    00001224 7E               [ 8] 4290 	ld	a, (hl)
    00001225                       4291 00105$:
                                   4292 ;kaijugaiden.c:919: }
    00001225 E8 03            [16] 4293 	add	sp, #3
    00001227 E1               [12] 4294 	pop	hl
    00001228 33               [ 8] 4295 	inc	sp
    00001229 E9               [ 4] 4296 	jp	(hl)
                                   4297 ;kaijugaiden.c:921: static void combat_set_banner(u8 kind, u8 timer) {
                                   4298 ;	---------------------------------
                                   4299 ; Function combat_set_banner
                                   4300 ; ---------------------------------
    0000122A                       4301 _combat_set_banner:
    0000122A 4F               [ 4] 4302 	ld	c, a
                                   4303 ;kaijugaiden.c:922: gs.banner_kind = kind;
    0000122B 21r78r00         [12] 4304 	ld	hl, #_gs + 120
    0000122E 71               [ 8] 4305 	ld	(hl), c
                                   4306 ;kaijugaiden.c:923: gs.banner_timer = timer;
    0000122F 21r77r00         [12] 4307 	ld	hl, #_gs + 119
    00001232 73               [ 8] 4308 	ld	(hl), e
                                   4309 ;kaijugaiden.c:924: }
    00001233 C9               [16] 4310 	ret
                                   4311 ;kaijugaiden.c:926: static void input_capture_frame(void) {
                                   4312 ;	---------------------------------
                                   4313 ; Function input_capture_frame
                                   4314 ; ---------------------------------
    00001234                       4315 _input_capture_frame:
    00001234 3B               [ 8] 4316 	dec	sp
    00001235 3B               [ 8] 4317 	dec	sp
                                   4318 ;kaijugaiden.c:928: gs.input_held_mask = plat_input_mask();
                                   4319 ;kaijugaiden.c:140: static inline u16 plat_input_mask(void) { return (u16)_joy_cur; }
    00001236 FAr01r00         [16] 4320 	ld	a, (__joy_cur)
    00001239 4F               [ 4] 4321 	ld	c, a
    0000123A 06 00            [ 8] 4322 	ld	b, #0x00
                                   4323 ;kaijugaiden.c:928: gs.input_held_mask = plat_input_mask();
    0000123C 21r80r00         [12] 4324 	ld	hl, #(_gs + 128)
    0000123F 79               [ 4] 4325 	ld	a, c
    00001240 22               [ 8] 4326 	ld	(hl+), a
    00001241 70               [ 8] 4327 	ld	(hl), b
                                   4328 ;kaijugaiden.c:929: gs.input_pressed_mask = plat_pressed_mask();
                                   4329 ;kaijugaiden.c:141: static inline u16 plat_pressed_mask(void) { return (u16)(_joy_cur & (u8)(~_joy_prev)); }
    00001242 FAr00r00         [16] 4330 	ld	a, (#__joy_prev)
    00001245 2F               [ 4] 4331 	cpl
    00001246 21r01r00         [12] 4332 	ld	hl, #__joy_cur
    00001249 A6               [ 8] 4333 	and	a, (hl)
    0000124A 4F               [ 4] 4334 	ld	c, a
    0000124B 06 00            [ 8] 4335 	ld	b, #0x00
                                   4336 ;kaijugaiden.c:929: gs.input_pressed_mask = plat_pressed_mask();
    0000124D 21r82r00         [12] 4337 	ld	hl, #(_gs + 130)
    00001250 79               [ 4] 4338 	ld	a, c
    00001251 22               [ 8] 4339 	ld	(hl+), a
    00001252 70               [ 8] 4340 	ld	(hl), b
                                   4341 ;kaijugaiden.c:930: edge_mask = gs.input_pressed_mask;
    00001253 33               [ 8] 4342 	inc	sp
    00001254 33               [ 8] 4343 	inc	sp
    00001255 C5               [16] 4344 	push	bc
                                   4345 ;kaijugaiden.c:931: if (gs.input_held_mask != 0) gs.input_active_frames++;
    00001256 21r80r00         [12] 4346 	ld	hl, #(_gs + 128)
    00001259 2A               [ 8] 4347 	ld	a, (hl+)
    0000125A B6               [ 8] 4348 	or	a, (hl)
    0000125B 28 0D            [12] 4349 	jr	Z, 00103$
    0000125D 21r86r00         [12] 4350 	ld	hl, #(_gs + 134)
    00001260 2A               [ 8] 4351 	ld	a, (hl+)
    00001261 4F               [ 4] 4352 	ld	c, a
    00001262 46               [ 8] 4353 	ld	b, (hl)
    00001263 03               [ 8] 4354 	inc	bc
    00001264 21r86r00         [12] 4355 	ld	hl, #(_gs + 134)
    00001267 79               [ 4] 4356 	ld	a, c
    00001268 22               [ 8] 4357 	ld	(hl+), a
    00001269 70               [ 8] 4358 	ld	(hl), b
                                   4359 ;kaijugaiden.c:932: while (edge_mask != 0) {
    0000126A                       4360 00103$:
    0000126A AF               [ 4] 4361 	xor	a, a
    0000126B F8 00            [12] 4362 	ldhl	sp,	#0
    0000126D B6               [ 8] 4363 	or	a, (hl)
    0000126E 28 19            [12] 4364 	jr	Z, 00108$
                                   4365 ;kaijugaiden.c:933: gs.input_edge_total++;
    00001270 21r84r00         [12] 4366 	ld	hl, #(_gs + 132)
    00001273 2A               [ 8] 4367 	ld	a, (hl+)
    00001274 4F               [ 4] 4368 	ld	c, a
    00001275 46               [ 8] 4369 	ld	b, (hl)
    00001276 03               [ 8] 4370 	inc	bc
    00001277 21r84r00         [12] 4371 	ld	hl, #(_gs + 132)
    0000127A 79               [ 4] 4372 	ld	a, c
    0000127B 22               [ 8] 4373 	ld	(hl+), a
    0000127C 70               [ 8] 4374 	ld	(hl), b
                                   4375 ;kaijugaiden.c:934: edge_mask &= (u16)(edge_mask - 1);
    0000127D C1               [12] 4376 	pop	bc
    0000127E C5               [16] 4377 	push	bc
    0000127F 0B               [ 8] 4378 	dec	bc
    00001280 F8 00            [12] 4379 	ldhl	sp,	#0
    00001282 7E               [ 8] 4380 	ld	a, (hl)
    00001283 A1               [ 4] 4381 	and	a, c
    00001284 22               [ 8] 4382 	ld	(hl+), a
    00001285 36 00            [12] 4383 	ld	(hl), #0x00
    00001287 18 E1            [12] 4384 	jr	00103$
    00001289                       4385 00108$:
                                   4386 ;kaijugaiden.c:936: }
    00001289 33               [ 8] 4387 	inc	sp
    0000128A 33               [ 8] 4388 	inc	sp
    0000128B C9               [16] 4389 	ret
                                   4390 ;kaijugaiden.c:938: static void camera_reset(void) {
                                   4391 ;	---------------------------------
                                   4392 ; Function camera_reset
                                   4393 ; ---------------------------------
    0000128C                       4394 _camera_reset:
                                   4395 ;kaijugaiden.c:939: gs.camera_x = 0;
    0000128C 21r79r00         [12] 4396 	ld	hl, #_gs + 121
    0000128F 36 00            [12] 4397 	ld	(hl), #0x00
                                   4398 ;kaijugaiden.c:940: gs.camera_y = 0;
    00001291 21r7Ar00         [12] 4399 	ld	hl, #_gs + 122
    00001294 36 00            [12] 4400 	ld	(hl), #0x00
                                   4401 ;kaijugaiden.c:941: gs.camera_travel_bias = 0;
    00001296 21r7Br00         [12] 4402 	ld	hl, #_gs + 123
    00001299 36 00            [12] 4403 	ld	(hl), #0x00
                                   4404 ;kaijugaiden.c:942: gs.camera_bg_x = 0;
    0000129B 21r7Cr00         [12] 4405 	ld	hl, #_gs + 124
    0000129E 36 00            [12] 4406 	ld	(hl), #0x00
                                   4407 ;kaijugaiden.c:943: gs.camera_bg_y = 0;
    000012A0 21r7Dr00         [12] 4408 	ld	hl, #_gs + 125
    000012A3 36 00            [12] 4409 	ld	(hl), #0x00
                                   4410 ;kaijugaiden.c:944: gs.camera_shake_timer = 0;
    000012A5 21r7Er00         [12] 4411 	ld	hl, #_gs + 126
    000012A8 36 00            [12] 4412 	ld	(hl), #0x00
                                   4413 ;kaijugaiden.c:945: gs.camera_shake_mag = 0;
    000012AA 21r7Fr00         [12] 4414 	ld	hl, #_gs + 127
    000012AD 36 00            [12] 4415 	ld	(hl), #0x00
                                   4416 ;kaijugaiden.c:946: }
    000012AF C9               [16] 4417 	ret
                                   4418 ;kaijugaiden.c:948: static void camera_punch(u8 magnitude, u8 timer) {
                                   4419 ;	---------------------------------
                                   4420 ; Function camera_punch
                                   4421 ; ---------------------------------
    000012B0                       4422 _camera_punch:
    000012B0 4F               [ 4] 4423 	ld	c, a
                                   4424 ;kaijugaiden.c:949: if (magnitude > gs.camera_shake_mag) gs.camera_shake_mag = magnitude;
    000012B1 21r7Fr00         [12] 4425 	ld	hl, #_gs + 127
    000012B4 7E               [ 8] 4426 	ld	a, (hl)
    000012B5 91               [ 4] 4427 	sub	a, c
    000012B6 30 01            [12] 4428 	jr	NC, 00102$
    000012B8 71               [ 8] 4429 	ld	(hl), c
    000012B9                       4430 00102$:
                                   4431 ;kaijugaiden.c:950: if (timer > gs.camera_shake_timer) gs.camera_shake_timer = timer;
    000012B9 21r7Er00         [12] 4432 	ld	hl, #_gs + 126
    000012BC 7E               [ 8] 4433 	ld	a, (hl)
    000012BD 93               [ 4] 4434 	sub	a, e
    000012BE D0               [20] 4435 	ret	NC
    000012BF 73               [ 8] 4436 	ld	(hl), e
                                   4437 ;kaijugaiden.c:951: }
    000012C0 C9               [16] 4438 	ret
                                   4439 ;kaijugaiden.c:953: static s8 camera_shake_x(void) {
                                   4440 ;	---------------------------------
                                   4441 ; Function camera_shake_x
                                   4442 ; ---------------------------------
    000012C1                       4443 _camera_shake_x:
                                   4444 ;kaijugaiden.c:954: if (gs.camera_shake_timer == 0 || gs.camera_shake_mag == 0) return 0;
    000012C1 FAr7Er00         [16] 4445 	ld	a, (#(_gs + 126) + 0)
    000012C4 B7               [ 4] 4446 	or	a, a
    000012C5 28 08            [12] 4447 	jr	Z, 00101$
    000012C7 21r7Fr00         [12] 4448 	ld	hl, #_gs + 127
    000012CA 4E               [ 8] 4449 	ld	c, (hl)
    000012CB 79               [ 4] 4450 	ld	a, c
    000012CC B7               [ 4] 4451 	or	a, a
    000012CD 20 02            [12] 4452 	jr	NZ, 00102$
    000012CF                       4453 00101$:
    000012CF AF               [ 4] 4454 	xor	a, a
    000012D0 C9               [16] 4455 	ret
    000012D1                       4456 00102$:
                                   4457 ;kaijugaiden.c:955: return (gs.anim_tick & 0x01) ? (s8)gs.camera_shake_mag : (s8)(-(s8)gs.camera_shake_mag);
    000012D1 FAr76r00         [16] 4458 	ld	a, (#(_gs + 118) + 0)
    000012D4 0F               [ 4] 4459 	rrca
    000012D5 38 03            [12] 4460 	jr	C, 00107$
    000012D7 AF               [ 4] 4461 	xor	a, a
    000012D8 91               [ 4] 4462 	sub	a, c
    000012D9 4F               [ 4] 4463 	ld	c, a
    000012DA                       4464 00107$:
    000012DA 79               [ 4] 4465 	ld	a, c
                                   4466 ;kaijugaiden.c:956: }
    000012DB C9               [16] 4467 	ret
                                   4468 ;kaijugaiden.c:958: static s8 camera_shake_y(void) {
                                   4469 ;	---------------------------------
                                   4470 ; Function camera_shake_y
                                   4471 ; ---------------------------------
    000012DC                       4472 _camera_shake_y:
                                   4473 ;kaijugaiden.c:959: if (gs.camera_shake_timer == 0 || gs.camera_shake_mag == 0) return 0;
    000012DC FAr7Er00         [16] 4474 	ld	a, (#(_gs + 126) + 0)
    000012DF B7               [ 4] 4475 	or	a, a
    000012E0 28 08            [12] 4476 	jr	Z, 00101$
    000012E2 21r7Fr00         [12] 4477 	ld	hl, #_gs + 127
    000012E5 4E               [ 8] 4478 	ld	c, (hl)
    000012E6 79               [ 4] 4479 	ld	a, c
    000012E7 B7               [ 4] 4480 	or	a, a
    000012E8 20 02            [12] 4481 	jr	NZ, 00102$
    000012EA                       4482 00101$:
    000012EA AF               [ 4] 4483 	xor	a, a
    000012EB C9               [16] 4484 	ret
    000012EC                       4485 00102$:
                                   4486 ;kaijugaiden.c:960: return (gs.anim_tick & 0x02) ? (s8)(gs.camera_shake_mag >> 1) : 0;
    000012EC FAr76r00         [16] 4487 	ld	a, (#(_gs + 118) + 0)
    000012EF CB 4F            [ 8] 4488 	bit	1, a
    000012F1 28 04            [12] 4489 	jr	Z, 00106$
    000012F3 79               [ 4] 4490 	ld	a, c
    000012F4 CB 3F            [ 8] 4491 	srl	a
    000012F6 C9               [16] 4492 	ret
    000012F7                       4493 00106$:
    000012F7 AF               [ 4] 4494 	xor	a, a
                                   4495 ;kaijugaiden.c:961: }
    000012F8 C9               [16] 4496 	ret
                                   4497 ;kaijugaiden.c:963: static s16 camera_apply_x(s16 x) {
                                   4498 ;	---------------------------------
                                   4499 ; Function camera_apply_x
                                   4500 ; ---------------------------------
    000012F9                       4501 _camera_apply_x:
                                   4502 ;kaijugaiden.c:964: return x - gs.camera_x + camera_shake_x();
    000012F9 01r79r00         [12] 4503 	ld	bc, #_gs+121
    000012FC 0A               [ 8] 4504 	ld	a, (bc)
    000012FD 4F               [ 4] 4505 	ld	c, a
    000012FE 07               [ 4] 4506 	rlca
    000012FF 9F               [ 4] 4507 	sbc	a, a
    00001300 47               [ 4] 4508 	ld	b, a
    00001301 7B               [ 4] 4509 	ld	a, e
    00001302 91               [ 4] 4510 	sub	a, c
    00001303 4F               [ 4] 4511 	ld	c, a
    00001304 7A               [ 4] 4512 	ld	a, d
    00001305 98               [ 4] 4513 	sbc	a, b
    00001306 47               [ 4] 4514 	ld	b, a
    00001307 C5               [16] 4515 	push	bc
    00001308 CDrC1r12         [24] 4516 	call	_camera_shake_x
    0000130B C1               [12] 4517 	pop	bc
    0000130C 6F               [ 4] 4518 	ld	l, a
    0000130D 07               [ 4] 4519 	rlca
    0000130E 9F               [ 4] 4520 	sbc	a, a
    0000130F 67               [ 4] 4521 	ld	h, a
    00001310 09               [ 8] 4522 	add	hl, bc
    00001311 4D               [ 4] 4523 	ld	c, l
    00001312 44               [ 4] 4524 	ld	b, h
                                   4525 ;kaijugaiden.c:965: }
    00001313 C9               [16] 4526 	ret
                                   4527 ;kaijugaiden.c:967: static s16 camera_apply_y(s16 y) {
                                   4528 ;	---------------------------------
                                   4529 ; Function camera_apply_y
                                   4530 ; ---------------------------------
    00001314                       4531 _camera_apply_y:
                                   4532 ;kaijugaiden.c:968: return y - gs.camera_y + camera_shake_y();
    00001314 01r7Ar00         [12] 4533 	ld	bc, #_gs+122
    00001317 0A               [ 8] 4534 	ld	a, (bc)
    00001318 4F               [ 4] 4535 	ld	c, a
    00001319 07               [ 4] 4536 	rlca
    0000131A 9F               [ 4] 4537 	sbc	a, a
    0000131B 47               [ 4] 4538 	ld	b, a
    0000131C 7B               [ 4] 4539 	ld	a, e
    0000131D 91               [ 4] 4540 	sub	a, c
    0000131E 4F               [ 4] 4541 	ld	c, a
    0000131F 7A               [ 4] 4542 	ld	a, d
    00001320 98               [ 4] 4543 	sbc	a, b
    00001321 47               [ 4] 4544 	ld	b, a
    00001322 C5               [16] 4545 	push	bc
    00001323 CDrDCr12         [24] 4546 	call	_camera_shake_y
    00001326 C1               [12] 4547 	pop	bc
    00001327 6F               [ 4] 4548 	ld	l, a
    00001328 07               [ 4] 4549 	rlca
    00001329 9F               [ 4] 4550 	sbc	a, a
    0000132A 67               [ 4] 4551 	ld	h, a
    0000132B 09               [ 8] 4552 	add	hl, bc
    0000132C 4D               [ 4] 4553 	ld	c, l
    0000132D 44               [ 4] 4554 	ld	b, h
                                   4555 ;kaijugaiden.c:969: }
    0000132E C9               [16] 4556 	ret
                                   4557 ;kaijugaiden.c:971: static u8 combat_camera_update(void) {
                                   4558 ;	---------------------------------
                                   4559 ; Function combat_camera_update
                                   4560 ; ---------------------------------
    0000132F                       4561 _combat_camera_update:
    0000132F E8 F0            [16] 4562 	add	sp, #-16
                                   4563 ;kaijugaiden.c:972: s8 prev_bg_x = gs.camera_bg_x;
    00001331 FAr7Cr00         [16] 4564 	ld	a, (#(_gs + 124) + 0)
    00001334 F8 00            [12] 4565 	ldhl	sp,	#0
    00001336 77               [ 8] 4566 	ld	(hl), a
                                   4567 ;kaijugaiden.c:973: s8 prev_bg_y = gs.camera_bg_y;
    00001337 FAr7Dr00         [16] 4568 	ld	a, (#(_gs + 125) + 0)
    0000133A F8 01            [12] 4569 	ldhl	sp,	#1
    0000133C 77               [ 8] 4570 	ld	(hl), a
                                   4571 ;kaijugaiden.c:974: s16 player_px = (s16)(gs.player_x * TILE_W + 8);
    0000133D 21r01r00         [12] 4572 	ld	hl, #_gs + 1
    00001340 6E               [ 8] 4573 	ld	l, (hl)
    00001341 26 00            [ 8] 4574 	ld	h, #0x00
    00001343 29               [ 8] 4575 	add	hl, hl
    00001344 29               [ 8] 4576 	add	hl, hl
    00001345 29               [ 8] 4577 	add	hl, hl
    00001346 7D               [ 4] 4578 	ld	a, l
    00001347 C6 08            [ 8] 4579 	add	a, #0x08
    00001349 4F               [ 4] 4580 	ld	c, a
    0000134A 7C               [ 4] 4581 	ld	a, h
    0000134B CE 00            [ 8] 4582 	adc	a, #0x00
    0000134D F8 02            [12] 4583 	ldhl	sp,	#2
    0000134F 71               [ 8] 4584 	ld	(hl), c
    00001350 23               [ 8] 4585 	inc	hl
                                   4586 ;kaijugaiden.c:975: s16 target_x = (player_px - (SCR_W / 2)) / 6;
    00001351 32               [ 8] 4587 	ld	(hl-), a
    00001352 2A               [ 8] 4588 	ld	a, (hl+)
    00001353 4E               [ 8] 4589 	ld	c, (hl)
    00001354 C6 B0            [ 8] 4590 	add	a, #0xb0
    00001356 5F               [ 4] 4591 	ld	e, a
    00001357 79               [ 4] 4592 	ld	a, c
    00001358 CE FF            [ 8] 4593 	adc	a, #0xff
    0000135A 01 06 00         [12] 4594 	ld	bc, #0x0006
    0000135D 57               [ 4] 4595 	ld	d, a
    0000135E CDr00r00         [24] 4596 	call	__divsint
    00001361 F8 09            [12] 4597 	ldhl	sp,	#9
    00001363 79               [ 4] 4598 	ld	a, c
    00001364 22               [ 8] 4599 	ld	(hl+), a
    00001365 70               [ 8] 4600 	ld	(hl), b
                                   4601 ;kaijugaiden.c:976: s16 target_y = 0;
    00001366 AF               [ 4] 4602 	xor	a, a
    00001367 F8 04            [12] 4603 	ldhl	sp,	#4
    00001369 22               [ 8] 4604 	ld	(hl+), a
    0000136A 77               [ 8] 4605 	ld	(hl), a
                                   4606 ;kaijugaiden.c:978: if ((gs.input_held_mask & BTN_LEFT) && !(gs.input_held_mask & BTN_RIGHT)) {
    0000136B 21r80r00         [12] 4607 	ld	hl, #_gs + 128
    0000136E 2A               [ 8] 4608 	ld	a, (hl+)
    0000136F 4F               [ 4] 4609 	ld	c, a
    00001370 E6 20            [ 8] 4610 	and	a, #0x20
    00001372 F8 0B            [12] 4611 	ldhl	sp,	#11
    00001374 22               [ 8] 4612 	ld	(hl+), a
    00001375 AF               [ 4] 4613 	xor	a, a
    00001376 22               [ 8] 4614 	ld	(hl+), a
    00001377 79               [ 4] 4615 	ld	a, c
    00001378 E6 10            [ 8] 4616 	and	a, #0x10
    0000137A 22               [ 8] 4617 	ld	(hl+), a
    0000137B 36 00            [12] 4618 	ld	(hl), #0x00
                                   4619 ;kaijugaiden.c:979: if (gs.camera_travel_bias > -CAMERA_TRAVEL_LEAD) gs.camera_travel_bias--;
    0000137D 21r7Br00         [12] 4620 	ld	hl, #(_gs + 123)
    00001380 4E               [ 8] 4621 	ld	c, (hl)
    00001381 41               [ 4] 4622 	ld	b, c
    00001382 05               [ 4] 4623 	dec	b
                                   4624 ;kaijugaiden.c:978: if ((gs.input_held_mask & BTN_LEFT) && !(gs.input_held_mask & BTN_RIGHT)) {
    00001383 AF               [ 4] 4625 	xor	a, a
    00001384 F8 0B            [12] 4626 	ldhl	sp,	#11
    00001386 B6               [ 8] 4627 	or	a, (hl)
    00001387 28 23            [12] 4628 	jr	Z, 00115$
    00001389 23               [ 8] 4629 	inc	hl
    0000138A 23               [ 8] 4630 	inc	hl
    0000138B AF               [ 4] 4631 	xor	a, a
    0000138C B6               [ 8] 4632 	or	a, (hl)
    0000138D 20 1D            [12] 4633 	jr	NZ, 00115$
                                   4634 ;kaijugaiden.c:979: if (gs.camera_travel_bias > -CAMERA_TRAVEL_LEAD) gs.camera_travel_bias--;
    0000138F 59               [ 4] 4635 	ld	e, c
    00001390 3E FD            [ 8] 4636 	ld	a,#0xfd
    00001392 57               [ 4] 4637 	ld	d,a
    00001393 91               [ 4] 4638 	sub	a, c
    00001394 CB 7B            [ 8] 4639 	bit	7, e
    00001396 28 07            [12] 4640 	jr	Z, 00377$
    00001398 CB 7A            [ 8] 4641 	bit	7, d
    0000139A 20 08            [12] 4642 	jr	NZ, 00378$
    0000139C BF               [ 4] 4643 	cp	a, a
    0000139D 18 05            [12] 4644 	jr	00378$
    0000139F                       4645 00377$:
    0000139F CB 7A            [ 8] 4646 	bit	7, d
    000013A1 28 01            [12] 4647 	jr	Z, 00378$
    000013A3 37               [ 4] 4648 	scf
    000013A4                       4649 00378$:
    000013A4 30 4D            [12] 4650 	jr	NC, 00116$
    000013A6 21r7Br00         [12] 4651 	ld	hl, #(_gs + 123)
    000013A9 70               [ 8] 4652 	ld	(hl), b
    000013AA 18 47            [12] 4653 	jr	00116$
    000013AC                       4654 00115$:
                                   4655 ;kaijugaiden.c:981: if (gs.camera_travel_bias < CAMERA_TRAVEL_LEAD) gs.camera_travel_bias++;
    000013AC 79               [ 4] 4656 	ld	a, c
    000013AD 3C               [ 4] 4657 	inc	a
    000013AE F8 0F            [12] 4658 	ldhl	sp,	#15
                                   4659 ;kaijugaiden.c:980: } else if ((gs.input_held_mask & BTN_RIGHT) && !(gs.input_held_mask & BTN_LEFT)) {
    000013B0 32               [ 8] 4660 	ld	(hl-), a
    000013B1 2B               [ 8] 4661 	dec	hl
    000013B2 AF               [ 4] 4662 	xor	a, a
    000013B3 B6               [ 8] 4663 	or	a, (hl)
    000013B4 28 16            [12] 4664 	jr	Z, 00111$
    000013B6 2B               [ 8] 4665 	dec	hl
    000013B7 2B               [ 8] 4666 	dec	hl
    000013B8 AF               [ 4] 4667 	xor	a, a
    000013B9 B6               [ 8] 4668 	or	a, (hl)
    000013BA 20 10            [12] 4669 	jr	NZ, 00111$
                                   4670 ;kaijugaiden.c:981: if (gs.camera_travel_bias < CAMERA_TRAVEL_LEAD) gs.camera_travel_bias++;
    000013BC 79               [ 4] 4671 	ld	a, c
    000013BD EE 80            [ 8] 4672 	xor	a, #0x80
    000013BF D6 83            [ 8] 4673 	sub	a, #0x83
    000013C1 30 30            [12] 4674 	jr	NC, 00116$
    000013C3 11r7Br00         [12] 4675 	ld	de, #(_gs + 123)
    000013C6 F8 0F            [12] 4676 	ldhl	sp,	#15
    000013C8 7E               [ 8] 4677 	ld	a, (hl)
    000013C9 12               [ 8] 4678 	ld	(de), a
    000013CA 18 27            [12] 4679 	jr	00116$
    000013CC                       4680 00111$:
                                   4681 ;kaijugaiden.c:982: } else if (gs.camera_travel_bias > 0) {
    000013CC 59               [ 4] 4682 	ld	e, c
    000013CD AF               [ 4] 4683 	xor	a, a
    000013CE 57               [ 4] 4684 	ld	d, a
    000013CF 91               [ 4] 4685 	sub	a, c
    000013D0 CB 7B            [ 8] 4686 	bit	7, e
    000013D2 28 07            [12] 4687 	jr	Z, 00379$
    000013D4 CB 7A            [ 8] 4688 	bit	7, d
    000013D6 20 08            [12] 4689 	jr	NZ, 00380$
    000013D8 BF               [ 4] 4690 	cp	a, a
    000013D9 18 05            [12] 4691 	jr	00380$
    000013DB                       4692 00379$:
    000013DB CB 7A            [ 8] 4693 	bit	7, d
    000013DD 28 01            [12] 4694 	jr	Z, 00380$
    000013DF 37               [ 4] 4695 	scf
    000013E0                       4696 00380$:
    000013E0 30 06            [12] 4697 	jr	NC, 00108$
                                   4698 ;kaijugaiden.c:983: gs.camera_travel_bias--;
    000013E2 21r7Br00         [12] 4699 	ld	hl, #(_gs + 123)
    000013E5 70               [ 8] 4700 	ld	(hl), b
    000013E6 18 0B            [12] 4701 	jr	00116$
    000013E8                       4702 00108$:
                                   4703 ;kaijugaiden.c:984: } else if (gs.camera_travel_bias < 0) {
    000013E8 CB 79            [ 8] 4704 	bit	7, c
    000013EA 28 07            [12] 4705 	jr	Z, 00116$
                                   4706 ;kaijugaiden.c:985: gs.camera_travel_bias++;
    000013EC 11r7Br00         [12] 4707 	ld	de, #(_gs + 123)
    000013EF F8 0F            [12] 4708 	ldhl	sp,	#15
    000013F1 7E               [ 8] 4709 	ld	a, (hl)
    000013F2 12               [ 8] 4710 	ld	(de), a
    000013F3                       4711 00116$:
                                   4712 ;kaijugaiden.c:988: target_x += gs.camera_travel_bias;
    000013F3 FAr7Br00         [16] 4713 	ld	a, (#(_gs + 123) + 0)
    000013F6 4F               [ 4] 4714 	ld	c, a
    000013F7 07               [ 4] 4715 	rlca
    000013F8 9F               [ 4] 4716 	sbc	a, a
    000013F9 47               [ 4] 4717 	ld	b, a
    000013FA F8 09            [12] 4718 	ldhl	sp,	#9
    000013FC 2A               [ 8] 4719 	ld	a, (hl+)
    000013FD 5E               [ 8] 4720 	ld	e, (hl)
    000013FE 81               [ 4] 4721 	add	a, c
    000013FF 4F               [ 4] 4722 	ld	c, a
    00001400 7B               [ 4] 4723 	ld	a, e
    00001401 88               [ 4] 4724 	adc	a, b
    00001402 F8 06            [12] 4725 	ldhl	sp,	#6
    00001404 71               [ 8] 4726 	ld	(hl), c
    00001405 23               [ 8] 4727 	inc	hl
    00001406 77               [ 8] 4728 	ld	(hl), a
                                   4729 ;kaijugaiden.c:990: if (gs.boss_awake) {
    00001407 FAr14r00         [16] 4730 	ld	a, (#(_gs + 20) + 0)
                                   4731 ;kaijugaiden.c:999: } else if (attack_hits_target(player_px, gs.player_facing, boss_center, PLAYER_ATTACK_FRONT + 8, PLAYER_ATTACK_REAR)) {
                                   4732 ;kaijugaiden.c:990: if (gs.boss_awake) {
    0000140A F8 0F            [12] 4733 	ldhl	sp,#15
    0000140C 77               [ 8] 4734 	ld	(hl), a
    0000140D B7               [ 4] 4735 	or	a, a
    0000140E CArE7r15         [16] 4736 	jp	Z, 00127$
                                   4737 ;kaijugaiden.c:991: s16 boss_center = gs.boss_x + 16;
    00001411 21r17r00         [12] 4738 	ld	hl, #_gs + 23
    00001414 2A               [ 8] 4739 	ld	a, (hl+)
    00001415 46               [ 8] 4740 	ld	b, (hl)
    00001416 C6 10            [ 8] 4741 	add	a, #0x10
    00001418 4F               [ 4] 4742 	ld	c, a
    00001419 78               [ 4] 4743 	ld	a, b
    0000141A CE 00            [ 8] 4744 	adc	a, #0x00
    0000141C F8 08            [12] 4745 	ldhl	sp,	#8
    0000141E 71               [ 8] 4746 	ld	(hl), c
    0000141F 23               [ 8] 4747 	inc	hl
                                   4748 ;kaijugaiden.c:992: s16 duel_mid = (player_px + boss_center) / 2;
    00001420 32               [ 8] 4749 	ld	(hl-), a
    00001421 2A               [ 8] 4750 	ld	a, (hl+)
    00001422 5F               [ 4] 4751 	ld	e, a
    00001423 56               [ 8] 4752 	ld	d, (hl)
    00001424 F8 02            [12] 4753 	ldhl	sp,	#2
    00001426 2A               [ 8] 4754 	ld	a,	(hl+)
    00001427 66               [ 8] 4755 	ld	h, (hl)
    00001428 6F               [ 4] 4756 	ld	l, a
    00001429 19               [ 8] 4757 	add	hl, de
    0000142A 4D               [ 4] 4758 	ld	c, l
    0000142B 44               [ 4] 4759 	ld	b, h
    0000142C CB 7C            [ 8] 4760 	bit	7, h
    0000142E 28 03            [12] 4761 	jr	Z, 00151$
    00001430 23               [ 8] 4762 	inc	hl
    00001431 4D               [ 4] 4763 	ld	c, l
    00001432 44               [ 4] 4764 	ld	b, h
    00001433                       4765 00151$:
    00001433 CB 28            [ 8] 4766 	sra	b
    00001435 CB 19            [ 8] 4767 	rr	c
    00001437 F8 0A            [12] 4768 	ldhl	sp,	#10
    00001439 79               [ 4] 4769 	ld	a, c
    0000143A 22               [ 8] 4770 	ld	(hl+), a
                                   4771 ;kaijugaiden.c:993: s16 duel_bias = clamp_s8((boss_center - player_px) / 18, -CAMERA_COMBAT_LEAD, CAMERA_COMBAT_LEAD);
    0000143B 78               [ 4] 4772 	ld	a, b
    0000143C 32               [ 8] 4773 	ld	(hl-), a
    0000143D 2B               [ 8] 4774 	dec	hl
    0000143E 2B               [ 8] 4775 	dec	hl
    0000143F 2A               [ 8] 4776 	ld	a, (hl+)
    00001440 5F               [ 4] 4777 	ld	e, a
    00001441 56               [ 8] 4778 	ld	d, (hl)
    00001442 F8 02            [12] 4779 	ldhl	sp,	#2
    00001444 2A               [ 8] 4780 	ld	a,	(hl+)
    00001445 66               [ 8] 4781 	ld	h, (hl)
    00001446 6F               [ 4] 4782 	ld	l, a
    00001447 7B               [ 4] 4783 	ld	a, e
    00001448 95               [ 4] 4784 	sub	a, l
    00001449 5F               [ 4] 4785 	ld	e, a
    0000144A 7A               [ 4] 4786 	ld	a, d
    0000144B 9C               [ 4] 4787 	sbc	a, h
    0000144C 4B               [ 4] 4788 	ld	c, e
    0000144D F8 0C            [12] 4789 	ldhl	sp,	#12
    0000144F 71               [ 8] 4790 	ld	(hl), c
    00001450 23               [ 8] 4791 	inc	hl
    00001451 32               [ 8] 4792 	ld	(hl-), a
    00001452 01 12 00         [12] 4793 	ld	bc, #0x0012
    00001455 2A               [ 8] 4794 	ld	a, (hl+)
    00001456 5F               [ 4] 4795 	ld	e, a
    00001457 56               [ 8] 4796 	ld	d, (hl)
    00001458 CDr00r00         [24] 4797 	call	__divsint
    0000145B 3E 03            [ 8] 4798 	ld	a, #0x03
    0000145D F5               [16] 4799 	push	af
    0000145E 33               [ 8] 4800 	inc	sp
    0000145F 3E FD            [ 8] 4801 	ld	a, #0xfd
    00001461 59               [ 4] 4802 	ld	e, c
    00001462 50               [ 4] 4803 	ld	d, b
    00001463 CDrCEr11         [24] 4804 	call	_clamp_s8
    00001466 F8 0E            [12] 4805 	ldhl	sp,	#14
    00001468 22               [ 8] 4806 	ld	(hl+), a
    00001469 07               [ 4] 4807 	rlca
    0000146A 9F               [ 4] 4808 	sbc	a, a
    0000146B 77               [ 8] 4809 	ld	(hl), a
                                   4810 ;kaijugaiden.c:994: target_x = (target_x * 2 + ((duel_mid - (SCR_W / 2)) / 7) + duel_bias) / 3;
    0000146C F8 06            [12] 4811 	ldhl	sp,	#6
    0000146E 2A               [ 8] 4812 	ld	a, (hl+)
    0000146F 5F               [ 4] 4813 	ld	e, a
    00001470 56               [ 8] 4814 	ld	d, (hl)
    00001471 CB 23            [ 8] 4815 	sla	e
    00001473 CB 12            [ 8] 4816 	rl	d
    00001475 F8 0A            [12] 4817 	ldhl	sp,	#10
    00001477 2A               [ 8] 4818 	ld	a, (hl+)
    00001478 4F               [ 4] 4819 	ld	c, a
    00001479 46               [ 8] 4820 	ld	b, (hl)
    0000147A 79               [ 4] 4821 	ld	a, c
    0000147B C6 B0            [ 8] 4822 	add	a, #0xb0
    0000147D 6F               [ 4] 4823 	ld	l, a
    0000147E 78               [ 4] 4824 	ld	a, b
    0000147F CE FF            [ 8] 4825 	adc	a, #0xff
    00001481 D5               [16] 4826 	push	de
    00001482 01 07 00         [12] 4827 	ld	bc, #0x0007
    00001485 5D               [ 4] 4828 	ld	e, l
    00001486 57               [ 4] 4829 	ld	d, a
    00001487 CDr00r00         [24] 4830 	call	__divsint
    0000148A 69               [ 4] 4831 	ld	l, c
    0000148B D1               [12] 4832 	pop	de
    0000148C 60               [ 4] 4833 	ld	h, b
    0000148D 19               [ 8] 4834 	add	hl, de
    0000148E 4D               [ 4] 4835 	ld	c, l
    0000148F 44               [ 4] 4836 	ld	b, h
    00001490 F8 0E            [12] 4837 	ldhl	sp,	#14
    00001492 2A               [ 8] 4838 	ld	a,	(hl+)
    00001493 66               [ 8] 4839 	ld	h, (hl)
    00001494 6F               [ 4] 4840 	ld	l, a
    00001495 09               [ 8] 4841 	add	hl, bc
    00001496 5D               [ 4] 4842 	ld	e, l
    00001497 54               [ 4] 4843 	ld	d, h
    00001498 01 03 00         [12] 4844 	ld	bc, #0x0003
    0000149B CDr00r00         [24] 4845 	call	__divsint
    0000149E F8 06            [12] 4846 	ldhl	sp,	#6
    000014A0 79               [ 4] 4847 	ld	a, c
    000014A1 22               [ 8] 4848 	ld	(hl+), a
    000014A2 70               [ 8] 4849 	ld	(hl), b
                                   4850 ;kaijugaiden.c:995: if (gs.boss_windup > 0) {
    000014A3 21r1Cr00         [12] 4851 	ld	hl, #(_gs + 28)
    000014A6 4E               [ 8] 4852 	ld	c, (hl)
                                   4853 ;kaijugaiden.c:988: target_x += gs.camera_travel_bias;
    000014A7 F8 06            [12] 4854 	ldhl	sp,	#6
    000014A9 7E               [ 8] 4855 	ld	a, (hl)
    000014AA F8 0E            [12] 4856 	ldhl	sp,	#14
    000014AC 77               [ 8] 4857 	ld	(hl), a
    000014AD F8 07            [12] 4858 	ldhl	sp,	#7
    000014AF 7E               [ 8] 4859 	ld	a, (hl)
    000014B0 F8 0F            [12] 4860 	ldhl	sp,	#15
    000014B2 77               [ 8] 4861 	ld	(hl), a
                                   4862 ;kaijugaiden.c:995: if (gs.boss_windup > 0) {
    000014B3 79               [ 4] 4863 	ld	a, c
    000014B4 B7               [ 4] 4864 	or	a, a
    000014B5 CAr35r15         [16] 4865 	jp	Z, 00124$
                                   4866 ;kaijugaiden.c:996: s16 telegraph_bias = clamp_s8((boss_center - player_px) / 12, -CAMERA_TELEGRAPH_LEAD, CAMERA_TELEGRAPH_LEAD);
    000014B8 01 0C 00         [12] 4867 	ld	bc, #0x000c
    000014BB F8 0C            [12] 4868 	ldhl	sp,	#12
    000014BD 2A               [ 8] 4869 	ld	a, (hl+)
    000014BE 5F               [ 4] 4870 	ld	e, a
    000014BF 56               [ 8] 4871 	ld	d, (hl)
    000014C0 CDr00r00         [24] 4872 	call	__divsint
    000014C3 F8 0C            [12] 4873 	ldhl	sp,	#12
    000014C5 79               [ 4] 4874 	ld	a, c
    000014C6 22               [ 8] 4875 	ld	(hl+), a
    000014C7 70               [ 8] 4876 	ld	(hl), b
    000014C8 3E 04            [ 8] 4877 	ld	a, #0x04
    000014CA F5               [16] 4878 	push	af
    000014CB 33               [ 8] 4879 	inc	sp
    000014CC 3E FC            [ 8] 4880 	ld	a, #0xfc
    000014CE F8 0D            [12] 4881 	ldhl	sp,	#13
    000014D0 5E               [ 8] 4882 	ld	e, (hl)
    000014D1 23               [ 8] 4883 	inc	hl
    000014D2 56               [ 8] 4884 	ld	d, (hl)
    000014D3 CDrCEr11         [24] 4885 	call	_clamp_s8
    000014D6 F8 0C            [12] 4886 	ldhl	sp,	#12
    000014D8 22               [ 8] 4887 	ld	(hl+), a
    000014D9 07               [ 4] 4888 	rlca
    000014DA 9F               [ 4] 4889 	sbc	a, a
                                   4890 ;kaijugaiden.c:997: target_x = (target_x * 2 + telegraph_bias * 3) / 5;
    000014DB 22               [ 8] 4891 	ld	(hl+), a
    000014DC CB 26            [16] 4892 	sla	(hl)
    000014DE 23               [ 8] 4893 	inc	hl
    000014DF CB 16            [16] 4894 	rl	(hl)
    000014E1 2B               [ 8] 4895 	dec	hl
    000014E2 2B               [ 8] 4896 	dec	hl
    000014E3 2B               [ 8] 4897 	dec	hl
    000014E4 2A               [ 8] 4898 	ld	a, (hl+)
    000014E5 4F               [ 4] 4899 	ld	c, a
    000014E6 46               [ 8] 4900 	ld	b, (hl)
    000014E7 69               [ 4] 4901 	ld	l, c
    000014E8 60               [ 4] 4902 	ld	h, b
    000014E9 29               [ 8] 4903 	add	hl, hl
    000014EA 09               [ 8] 4904 	add	hl, bc
    000014EB E5               [16] 4905 	push	hl
    000014EC 7D               [ 4] 4906 	ld	a, l
    000014ED F8 0E            [12] 4907 	ldhl	sp,	#14
    000014EF 77               [ 8] 4908 	ld	(hl), a
    000014F0 E1               [12] 4909 	pop	hl
    000014F1 7C               [ 4] 4910 	ld	a, h
    000014F2 F8 0D            [12] 4911 	ldhl	sp,	#13
    000014F4 32               [ 8] 4912 	ld	(hl-), a
    000014F5 2A               [ 8] 4913 	ld	a, (hl+)
    000014F6 5F               [ 4] 4914 	ld	e, a
    000014F7 2A               [ 8] 4915 	ld	a, (hl+)
    000014F8 57               [ 4] 4916 	ld	d, a
    000014F9 2A               [ 8] 4917 	ld	a,	(hl+)
    000014FA 66               [ 8] 4918 	ld	h, (hl)
    000014FB 6F               [ 4] 4919 	ld	l, a
    000014FC 19               [ 8] 4920 	add	hl, de
    000014FD E5               [16] 4921 	push	hl
    000014FE 7D               [ 4] 4922 	ld	a, l
    000014FF F8 0C            [12] 4923 	ldhl	sp,	#12
    00001501 77               [ 8] 4924 	ld	(hl), a
    00001502 E1               [12] 4925 	pop	hl
    00001503 7C               [ 4] 4926 	ld	a, h
    00001504 F8 0B            [12] 4927 	ldhl	sp,	#11
    00001506 32               [ 8] 4928 	ld	(hl-), a
    00001507 01 05 00         [12] 4929 	ld	bc, #0x0005
    0000150A 2A               [ 8] 4930 	ld	a, (hl+)
    0000150B 5F               [ 4] 4931 	ld	e, a
    0000150C 56               [ 8] 4932 	ld	d, (hl)
    0000150D CDr00r00         [24] 4933 	call	__divsint
    00001510 F8 0E            [12] 4934 	ldhl	sp,	#14
    00001512 79               [ 4] 4935 	ld	a, c
    00001513 22               [ 8] 4936 	ld	(hl+), a
    00001514 70               [ 8] 4937 	ld	(hl), b
    00001515 F8 0E            [12] 4938 	ldhl	sp,	#14
    00001517 7E               [ 8] 4939 	ld	a, (hl)
    00001518 F8 06            [12] 4940 	ldhl	sp,	#6
    0000151A 77               [ 8] 4941 	ld	(hl), a
    0000151B F8 0F            [12] 4942 	ldhl	sp,	#15
    0000151D 7E               [ 8] 4943 	ld	a, (hl)
    0000151E F8 07            [12] 4944 	ldhl	sp,	#7
    00001520 77               [ 8] 4945 	ld	(hl), a
                                   4946 ;kaijugaiden.c:998: target_y = (gs.boss_atk_type == BOSS_ATK_SLAM) ? 2 : 1;
    00001521 FAr1Br00         [16] 4947 	ld	a, (#(_gs + 27) + 0)
    00001524 D6 02            [ 8] 4948 	sub	a, #0x02
    00001526 0E 02            [ 8] 4949 	ld	c, #0x02
    00001528 28 02            [12] 4950 	jr	Z, 00153$
    0000152A 0E 01            [ 8] 4951 	ld	c, #0x01
    0000152C                       4952 00153$:
    0000152C F8 04            [12] 4953 	ldhl	sp,	#4
    0000152E 79               [ 4] 4954 	ld	a, c
    0000152F 22               [ 8] 4955 	ld	(hl+), a
    00001530 36 00            [12] 4956 	ld	(hl), #0x00
    00001532 C3rE7r15         [16] 4957 	jp	00127$
    00001535                       4958 00124$:
                                   4959 ;kaijugaiden.c:999: } else if (attack_hits_target(player_px, gs.player_facing, boss_center, PLAYER_ATTACK_FRONT + 8, PLAYER_ATTACK_REAR)) {
    00001535 FAr03r00         [16] 4960 	ld	a, (#(_gs + 3) + 0)
    00001538 26 08            [ 8] 4961 	ld	h, #0x08
    0000153A E5               [16] 4962 	push	hl
    0000153B 33               [ 8] 4963 	inc	sp
    0000153C 26 24            [ 8] 4964 	ld	h, #0x24
    0000153E E5               [16] 4965 	push	hl
    0000153F 33               [ 8] 4966 	inc	sp
    00001540 F8 0A            [12] 4967 	ldhl	sp,	#10
    00001542 5E               [ 8] 4968 	ld	e, (hl)
    00001543 23               [ 8] 4969 	inc	hl
    00001544 56               [ 8] 4970 	ld	d, (hl)
    00001545 D5               [16] 4971 	push	de
    00001546 F8 06            [12] 4972 	ldhl	sp,	#6
    00001548 5E               [ 8] 4973 	ld	e, (hl)
    00001549 23               [ 8] 4974 	inc	hl
    0000154A 56               [ 8] 4975 	ld	d, (hl)
    0000154B CDr46r11         [24] 4976 	call	_attack_hits_target
    0000154E B7               [ 4] 4977 	or	a, a
    0000154F 28 41            [12] 4978 	jr	Z, 00121$
                                   4979 ;kaijugaiden.c:1000: target_x += gs.player_facing ? -1 : 1;
    00001551 FAr03r00         [16] 4980 	ld	a, (#(_gs + 3) + 0)
    00001554 F8 0D            [12] 4981 	ldhl	sp,#13
    00001556 77               [ 8] 4982 	ld	(hl), a
    00001557 B7               [ 4] 4983 	or	a, a
    00001558 28 09            [12] 4984 	jr	Z, 00154$
    0000155A F8 0A            [12] 4985 	ldhl	sp,	#10
    0000155C 3E FF            [ 8] 4986 	ld	a, #0xff
    0000155E 22               [ 8] 4987 	ld	(hl+), a
    0000155F 36 FF            [12] 4988 	ld	(hl), #0xff
    00001561 18 07            [12] 4989 	jr	00155$
    00001563                       4990 00154$:
    00001563 F8 0A            [12] 4991 	ldhl	sp,	#10
    00001565 3E 01            [ 8] 4992 	ld	a, #0x01
    00001567 22               [ 8] 4993 	ld	(hl+), a
    00001568 AF               [ 4] 4994 	xor	a, a
    00001569 77               [ 8] 4995 	ld	(hl), a
    0000156A                       4996 00155$:
    0000156A F8 0A            [12] 4997 	ldhl	sp,#10
    0000156C 2A               [ 8] 4998 	ld	a, (hl+)
    0000156D 5F               [ 4] 4999 	ld	e, a
    0000156E 56               [ 8] 5000 	ld	d, (hl)
    0000156F F8 0E            [12] 5001 	ldhl	sp,	#14
    00001571 2A               [ 8] 5002 	ld	a,	(hl+)
    00001572 66               [ 8] 5003 	ld	h, (hl)
    00001573 6F               [ 4] 5004 	ld	l, a
    00001574 19               [ 8] 5005 	add	hl, de
    00001575 E5               [16] 5006 	push	hl
    00001576 7D               [ 4] 5007 	ld	a, l
    00001577 F8 0E            [12] 5008 	ldhl	sp,	#14
    00001579 77               [ 8] 5009 	ld	(hl), a
    0000157A E1               [12] 5010 	pop	hl
    0000157B 7C               [ 4] 5011 	ld	a, h
    0000157C F8 0D            [12] 5012 	ldhl	sp,	#13
    0000157E 32               [ 8] 5013 	ld	(hl-), a
    0000157F 7E               [ 8] 5014 	ld	a, (hl)
    00001580 F8 06            [12] 5015 	ldhl	sp,	#6
    00001582 77               [ 8] 5016 	ld	(hl), a
    00001583 F8 0D            [12] 5017 	ldhl	sp,	#13
    00001585 7E               [ 8] 5018 	ld	a, (hl)
    00001586 F8 07            [12] 5019 	ldhl	sp,	#7
    00001588 77               [ 8] 5020 	ld	(hl), a
                                   5021 ;kaijugaiden.c:1001: target_y = -1;
    00001589 F8 04            [12] 5022 	ldhl	sp,	#4
    0000158B 3E FF            [ 8] 5023 	ld	a, #0xff
    0000158D 22               [ 8] 5024 	ld	(hl+), a
    0000158E 36 FF            [12] 5025 	ld	(hl), #0xff
    00001590 18 55            [12] 5026 	jr	00127$
    00001592                       5027 00121$:
                                   5028 ;kaijugaiden.c:1002: } else if (gs.combo_timer > 0) {
    00001592 FAr0Cr00         [16] 5029 	ld	a, (#(_gs + 12) + 0)
    00001595 B7               [ 4] 5030 	or	a, a
    00001596 28 4F            [12] 5031 	jr	Z, 00127$
                                   5032 ;kaijugaiden.c:1003: target_x += (boss_center > player_px) ? 1 : -1;
    00001598 F8 02            [12] 5033 	ldhl	sp,	#2
    0000159A 5D               [ 4] 5034 	ld	e, l
    0000159B 54               [ 4] 5035 	ld	d, h
    0000159C F8 08            [12] 5036 	ldhl	sp,	#8
    0000159E 1A               [ 8] 5037 	ld	a, (de)
    0000159F 13               [ 8] 5038 	inc	de
    000015A0 96               [ 8] 5039 	sub	a, (hl)
    000015A1 23               [ 8] 5040 	inc	hl
    000015A2 1A               [ 8] 5041 	ld	a, (de)
    000015A3 9E               [ 8] 5042 	sbc	a, (hl)
    000015A4 1A               [ 8] 5043 	ld	a, (de)
    000015A5 57               [ 4] 5044 	ld	d, a
    000015A6 CB 7E            [12] 5045 	bit	7, (hl)
    000015A8 28 07            [12] 5046 	jr	Z, 00385$
    000015AA CB 7A            [ 8] 5047 	bit	7, d
    000015AC 20 08            [12] 5048 	jr	NZ, 00386$
    000015AE BF               [ 4] 5049 	cp	a, a
    000015AF 18 05            [12] 5050 	jr	00386$
    000015B1                       5051 00385$:
    000015B1 CB 7A            [ 8] 5052 	bit	7, d
    000015B3 28 01            [12] 5053 	jr	Z, 00386$
    000015B5 37               [ 4] 5054 	scf
    000015B6                       5055 00386$:
    000015B6 30 09            [12] 5056 	jr	NC, 00156$
    000015B8 F8 0A            [12] 5057 	ldhl	sp,	#10
    000015BA 3E 01            [ 8] 5058 	ld	a, #0x01
    000015BC 22               [ 8] 5059 	ld	(hl+), a
    000015BD AF               [ 4] 5060 	xor	a, a
    000015BE 77               [ 8] 5061 	ld	(hl), a
    000015BF 18 07            [12] 5062 	jr	00157$
    000015C1                       5063 00156$:
    000015C1 F8 0A            [12] 5064 	ldhl	sp,	#10
    000015C3 3E FF            [ 8] 5065 	ld	a, #0xff
    000015C5 22               [ 8] 5066 	ld	(hl+), a
    000015C6 36 FF            [12] 5067 	ld	(hl), #0xff
    000015C8                       5068 00157$:
    000015C8 F8 0A            [12] 5069 	ldhl	sp,#10
    000015CA 2A               [ 8] 5070 	ld	a, (hl+)
    000015CB 5F               [ 4] 5071 	ld	e, a
    000015CC 56               [ 8] 5072 	ld	d, (hl)
    000015CD F8 0E            [12] 5073 	ldhl	sp,	#14
    000015CF 2A               [ 8] 5074 	ld	a,	(hl+)
    000015D0 66               [ 8] 5075 	ld	h, (hl)
    000015D1 6F               [ 4] 5076 	ld	l, a
    000015D2 19               [ 8] 5077 	add	hl, de
    000015D3 E5               [16] 5078 	push	hl
    000015D4 7D               [ 4] 5079 	ld	a, l
    000015D5 F8 0E            [12] 5080 	ldhl	sp,	#14
    000015D7 77               [ 8] 5081 	ld	(hl), a
    000015D8 E1               [12] 5082 	pop	hl
    000015D9 7C               [ 4] 5083 	ld	a, h
    000015DA F8 0D            [12] 5084 	ldhl	sp,	#13
    000015DC 32               [ 8] 5085 	ld	(hl-), a
    000015DD 7E               [ 8] 5086 	ld	a, (hl)
    000015DE F8 06            [12] 5087 	ldhl	sp,	#6
    000015E0 77               [ 8] 5088 	ld	(hl), a
    000015E1 F8 0D            [12] 5089 	ldhl	sp,	#13
    000015E3 7E               [ 8] 5090 	ld	a, (hl)
    000015E4 F8 07            [12] 5091 	ldhl	sp,	#7
    000015E6 77               [ 8] 5092 	ld	(hl), a
    000015E7                       5093 00127$:
                                   5094 ;kaijugaiden.c:1007: if (gs.dodge_timer > 0) {
    000015E7 21r0Ar00         [12] 5095 	ld	hl, #_gs + 10
    000015EA 5E               [ 8] 5096 	ld	e, (hl)
                                   5097 ;kaijugaiden.c:988: target_x += gs.camera_travel_bias;
    000015EB F8 06            [12] 5098 	ldhl	sp,	#6
    000015ED 7E               [ 8] 5099 	ld	a, (hl)
    000015EE F8 0E            [12] 5100 	ldhl	sp,	#14
    000015F0 77               [ 8] 5101 	ld	(hl), a
    000015F1 F8 07            [12] 5102 	ldhl	sp,	#7
    000015F3 7E               [ 8] 5103 	ld	a, (hl)
    000015F4 F8 0F            [12] 5104 	ldhl	sp,	#15
    000015F6 77               [ 8] 5105 	ld	(hl), a
                                   5106 ;kaijugaiden.c:1007: if (gs.dodge_timer > 0) {
    000015F7 7B               [ 4] 5107 	ld	a, e
    000015F8 B7               [ 4] 5108 	or	a, a
    000015F9 28 24            [12] 5109 	jr	Z, 00134$
                                   5110 ;kaijugaiden.c:1008: target_x += gs.player_facing ? -2 : 2;
    000015FB FAr03r00         [16] 5111 	ld	a, (#(_gs + 3) + 0)
    000015FE B7               [ 4] 5112 	or	a, a
    000015FF 28 05            [12] 5113 	jr	Z, 00158$
    00001601 01 FE FF         [12] 5114 	ld	bc, #0xfffe
    00001604 18 03            [12] 5115 	jr	00159$
    00001606                       5116 00158$:
    00001606 01 02 00         [12] 5117 	ld	bc, #0x0002
    00001609                       5118 00159$:
    00001609 F8 0E            [12] 5119 	ldhl	sp,	#14
    0000160B 2A               [ 8] 5120 	ld	a,	(hl+)
    0000160C 66               [ 8] 5121 	ld	h, (hl)
    0000160D 6F               [ 4] 5122 	ld	l, a
    0000160E 09               [ 8] 5123 	add	hl, bc
    0000160F 4D               [ 4] 5124 	ld	c, l
    00001610 44               [ 4] 5125 	ld	b, h
    00001611 F8 06            [12] 5126 	ldhl	sp,	#6
    00001613 79               [ 4] 5127 	ld	a, c
    00001614 22               [ 8] 5128 	ld	(hl+), a
    00001615 70               [ 8] 5129 	ld	(hl), b
                                   5130 ;kaijugaiden.c:1009: target_y = -1;
    00001616 F8 04            [12] 5131 	ldhl	sp,	#4
    00001618 3E FF            [ 8] 5132 	ld	a, #0xff
    0000161A 22               [ 8] 5133 	ld	(hl+), a
    0000161B 36 FF            [12] 5134 	ld	(hl), #0xff
    0000161D 18 44            [12] 5135 	jr	00135$
    0000161F                       5136 00134$:
                                   5137 ;kaijugaiden.c:1010: } else if (gs.attack_timer > 0) {
    0000161F FAr05r00         [16] 5138 	ld	a, (#(_gs + 5) + 0)
    00001622 B7               [ 4] 5139 	or	a, a
    00001623 28 31            [12] 5140 	jr	Z, 00131$
                                   5141 ;kaijugaiden.c:1011: target_x += gs.player_facing ? -1 : 1;
    00001625 FAr03r00         [16] 5142 	ld	a, (#(_gs + 3) + 0)
    00001628 B7               [ 4] 5143 	or	a, a
    00001629 28 09            [12] 5144 	jr	Z, 00160$
    0000162B F8 0C            [12] 5145 	ldhl	sp,	#12
    0000162D 3E FF            [ 8] 5146 	ld	a, #0xff
    0000162F 22               [ 8] 5147 	ld	(hl+), a
    00001630 36 FF            [12] 5148 	ld	(hl), #0xff
    00001632 18 07            [12] 5149 	jr	00161$
    00001634                       5150 00160$:
    00001634 F8 0C            [12] 5151 	ldhl	sp,	#12
    00001636 3E 01            [ 8] 5152 	ld	a, #0x01
    00001638 22               [ 8] 5153 	ld	(hl+), a
    00001639 AF               [ 4] 5154 	xor	a, a
    0000163A 77               [ 8] 5155 	ld	(hl), a
    0000163B                       5156 00161$:
    0000163B F8 0E            [12] 5157 	ldhl	sp,#14
    0000163D 2A               [ 8] 5158 	ld	a, (hl+)
    0000163E 5F               [ 4] 5159 	ld	e, a
    0000163F 56               [ 8] 5160 	ld	d, (hl)
    00001640 F8 0C            [12] 5161 	ldhl	sp,	#12
    00001642 2A               [ 8] 5162 	ld	a,	(hl+)
    00001643 66               [ 8] 5163 	ld	h, (hl)
    00001644 6F               [ 4] 5164 	ld	l, a
    00001645 19               [ 8] 5165 	add	hl, de
    00001646 4D               [ 4] 5166 	ld	c, l
    00001647 7C               [ 4] 5167 	ld	a, h
    00001648 F8 06            [12] 5168 	ldhl	sp,	#6
    0000164A 71               [ 8] 5169 	ld	(hl), c
    0000164B 23               [ 8] 5170 	inc	hl
    0000164C 77               [ 8] 5171 	ld	(hl), a
                                   5172 ;kaijugaiden.c:1012: target_y = -1;
    0000164D F8 04            [12] 5173 	ldhl	sp,	#4
    0000164F 3E FF            [ 8] 5174 	ld	a, #0xff
    00001651 22               [ 8] 5175 	ld	(hl+), a
    00001652 36 FF            [12] 5176 	ld	(hl), #0xff
    00001654 18 0D            [12] 5177 	jr	00135$
    00001656                       5178 00131$:
                                   5179 ;kaijugaiden.c:1013: } else if (gs.hit_stun > 0) {
    00001656 FAr09r00         [16] 5180 	ld	a, (#(_gs + 9) + 0)
    00001659 B7               [ 4] 5181 	or	a, a
    0000165A 28 07            [12] 5182 	jr	Z, 00135$
                                   5183 ;kaijugaiden.c:1014: target_y = 1;
    0000165C F8 04            [12] 5184 	ldhl	sp,	#4
    0000165E 3E 01            [ 8] 5185 	ld	a, #0x01
    00001660 22               [ 8] 5186 	ld	(hl+), a
    00001661 AF               [ 4] 5187 	xor	a, a
    00001662 77               [ 8] 5188 	ld	(hl), a
    00001663                       5189 00135$:
                                   5190 ;kaijugaiden.c:1017: target_x = clamp_s8(target_x, -CAMERA_MAX_X, CAMERA_MAX_X);
    00001663 3E 07            [ 8] 5191 	ld	a, #0x07
    00001665 F5               [16] 5192 	push	af
    00001666 33               [ 8] 5193 	inc	sp
    00001667 3E F9            [ 8] 5194 	ld	a, #0xf9
    00001669 F8 07            [12] 5195 	ldhl	sp,	#7
    0000166B 5E               [ 8] 5196 	ld	e, (hl)
    0000166C 23               [ 8] 5197 	inc	hl
    0000166D 56               [ 8] 5198 	ld	d, (hl)
    0000166E CDrCEr11         [24] 5199 	call	_clamp_s8
    00001671 F8 0E            [12] 5200 	ldhl	sp,	#14
    00001673 22               [ 8] 5201 	ld	(hl+), a
    00001674 07               [ 4] 5202 	rlca
    00001675 9F               [ 4] 5203 	sbc	a, a
    00001676 77               [ 8] 5204 	ld	(hl), a
                                   5205 ;kaijugaiden.c:1018: target_y = clamp_s8(target_y, -2, CAMERA_MAX_Y);
    00001677 3E 03            [ 8] 5206 	ld	a, #0x03
    00001679 F5               [16] 5207 	push	af
    0000167A 33               [ 8] 5208 	inc	sp
    0000167B 3E FE            [ 8] 5209 	ld	a, #0xfe
    0000167D F8 05            [12] 5210 	ldhl	sp,	#5
    0000167F 5E               [ 8] 5211 	ld	e, (hl)
    00001680 23               [ 8] 5212 	inc	hl
    00001681 56               [ 8] 5213 	ld	d, (hl)
    00001682 CDrCEr11         [24] 5214 	call	_clamp_s8
    00001685 F8 0A            [12] 5215 	ldhl	sp,	#10
    00001687 22               [ 8] 5216 	ld	(hl+), a
    00001688 07               [ 4] 5217 	rlca
    00001689 9F               [ 4] 5218 	sbc	a, a
    0000168A 77               [ 8] 5219 	ld	(hl), a
                                   5220 ;kaijugaiden.c:1020: if (gs.camera_x < target_x) gs.camera_x++;
    0000168B 21r79r00         [12] 5221 	ld	hl, #(_gs + 121)
    0000168E 4E               [ 8] 5222 	ld	c, (hl)
    0000168F 79               [ 4] 5223 	ld	a, c
    00001690 F8 0C            [12] 5224 	ldhl	sp,	#12
    00001692 22               [ 8] 5225 	ld	(hl+), a
    00001693 07               [ 4] 5226 	rlca
    00001694 9F               [ 4] 5227 	sbc	a, a
    00001695 77               [ 8] 5228 	ld	(hl), a
    00001696 F8 0C            [12] 5229 	ldhl	sp,	#12
    00001698 5D               [ 4] 5230 	ld	e, l
    00001699 54               [ 4] 5231 	ld	d, h
    0000169A F8 0E            [12] 5232 	ldhl	sp,	#14
    0000169C 1A               [ 8] 5233 	ld	a, (de)
    0000169D 13               [ 8] 5234 	inc	de
    0000169E 96               [ 8] 5235 	sub	a, (hl)
    0000169F 23               [ 8] 5236 	inc	hl
    000016A0 1A               [ 8] 5237 	ld	a, (de)
    000016A1 9E               [ 8] 5238 	sbc	a, (hl)
    000016A2 1A               [ 8] 5239 	ld	a, (de)
    000016A3 57               [ 4] 5240 	ld	d, a
    000016A4 CB 7E            [12] 5241 	bit	7, (hl)
    000016A6 28 07            [12] 5242 	jr	Z, 00387$
    000016A8 CB 7A            [ 8] 5243 	bit	7, d
    000016AA 20 08            [12] 5244 	jr	NZ, 00388$
    000016AC BF               [ 4] 5245 	cp	a, a
    000016AD 18 05            [12] 5246 	jr	00388$
    000016AF                       5247 00387$:
    000016AF CB 7A            [ 8] 5248 	bit	7, d
    000016B1 28 01            [12] 5249 	jr	Z, 00388$
    000016B3 37               [ 4] 5250 	scf
    000016B4                       5251 00388$:
    000016B4 30 07            [12] 5252 	jr	NC, 00139$
    000016B6 0C               [ 4] 5253 	inc	c
    000016B7 21r79r00         [12] 5254 	ld	hl, #(_gs + 121)
    000016BA 71               [ 8] 5255 	ld	(hl), c
    000016BB 18 25            [12] 5256 	jr	00140$
    000016BD                       5257 00139$:
                                   5258 ;kaijugaiden.c:1021: else if (gs.camera_x > target_x) gs.camera_x--;
    000016BD F8 0E            [12] 5259 	ldhl	sp,	#14
    000016BF 5D               [ 4] 5260 	ld	e, l
    000016C0 54               [ 4] 5261 	ld	d, h
    000016C1 F8 0C            [12] 5262 	ldhl	sp,	#12
    000016C3 1A               [ 8] 5263 	ld	a, (de)
    000016C4 13               [ 8] 5264 	inc	de
    000016C5 96               [ 8] 5265 	sub	a, (hl)
    000016C6 23               [ 8] 5266 	inc	hl
    000016C7 1A               [ 8] 5267 	ld	a, (de)
    000016C8 9E               [ 8] 5268 	sbc	a, (hl)
    000016C9 1A               [ 8] 5269 	ld	a, (de)
    000016CA 57               [ 4] 5270 	ld	d, a
    000016CB CB 7E            [12] 5271 	bit	7, (hl)
    000016CD 28 07            [12] 5272 	jr	Z, 00389$
    000016CF CB 7A            [ 8] 5273 	bit	7, d
    000016D1 20 08            [12] 5274 	jr	NZ, 00390$
    000016D3 BF               [ 4] 5275 	cp	a, a
    000016D4 18 05            [12] 5276 	jr	00390$
    000016D6                       5277 00389$:
    000016D6 CB 7A            [ 8] 5278 	bit	7, d
    000016D8 28 01            [12] 5279 	jr	Z, 00390$
    000016DA 37               [ 4] 5280 	scf
    000016DB                       5281 00390$:
    000016DB 30 05            [12] 5282 	jr	NC, 00140$
    000016DD 0D               [ 4] 5283 	dec	c
    000016DE 21r79r00         [12] 5284 	ld	hl, #(_gs + 121)
    000016E1 71               [ 8] 5285 	ld	(hl), c
    000016E2                       5286 00140$:
                                   5287 ;kaijugaiden.c:1022: if (gs.camera_y < target_y) gs.camera_y++;
    000016E2 21r7Ar00         [12] 5288 	ld	hl, #(_gs + 122)
    000016E5 4E               [ 8] 5289 	ld	c, (hl)
    000016E6 79               [ 4] 5290 	ld	a, c
    000016E7 F8 0E            [12] 5291 	ldhl	sp,	#14
    000016E9 22               [ 8] 5292 	ld	(hl+), a
    000016EA 07               [ 4] 5293 	rlca
    000016EB 9F               [ 4] 5294 	sbc	a, a
    000016EC 77               [ 8] 5295 	ld	(hl), a
    000016ED F8 0E            [12] 5296 	ldhl	sp,	#14
    000016EF 5D               [ 4] 5297 	ld	e, l
    000016F0 54               [ 4] 5298 	ld	d, h
    000016F1 F8 0A            [12] 5299 	ldhl	sp,	#10
    000016F3 1A               [ 8] 5300 	ld	a, (de)
    000016F4 13               [ 8] 5301 	inc	de
    000016F5 96               [ 8] 5302 	sub	a, (hl)
    000016F6 23               [ 8] 5303 	inc	hl
    000016F7 1A               [ 8] 5304 	ld	a, (de)
    000016F8 9E               [ 8] 5305 	sbc	a, (hl)
    000016F9 1A               [ 8] 5306 	ld	a, (de)
    000016FA 57               [ 4] 5307 	ld	d, a
    000016FB CB 7E            [12] 5308 	bit	7, (hl)
    000016FD 28 07            [12] 5309 	jr	Z, 00391$
    000016FF CB 7A            [ 8] 5310 	bit	7, d
    00001701 20 08            [12] 5311 	jr	NZ, 00392$
    00001703 BF               [ 4] 5312 	cp	a, a
    00001704 18 05            [12] 5313 	jr	00392$
    00001706                       5314 00391$:
    00001706 CB 7A            [ 8] 5315 	bit	7, d
    00001708 28 01            [12] 5316 	jr	Z, 00392$
    0000170A 37               [ 4] 5317 	scf
    0000170B                       5318 00392$:
    0000170B 30 07            [12] 5319 	jr	NC, 00144$
    0000170D 0C               [ 4] 5320 	inc	c
    0000170E 21r7Ar00         [12] 5321 	ld	hl, #(_gs + 122)
    00001711 71               [ 8] 5322 	ld	(hl), c
    00001712 18 25            [12] 5323 	jr	00145$
    00001714                       5324 00144$:
                                   5325 ;kaijugaiden.c:1023: else if (gs.camera_y > target_y) gs.camera_y--;
    00001714 F8 0A            [12] 5326 	ldhl	sp,	#10
    00001716 5D               [ 4] 5327 	ld	e, l
    00001717 54               [ 4] 5328 	ld	d, h
    00001718 F8 0E            [12] 5329 	ldhl	sp,	#14
    0000171A 1A               [ 8] 5330 	ld	a, (de)
    0000171B 13               [ 8] 5331 	inc	de
    0000171C 96               [ 8] 5332 	sub	a, (hl)
    0000171D 23               [ 8] 5333 	inc	hl
    0000171E 1A               [ 8] 5334 	ld	a, (de)
    0000171F 9E               [ 8] 5335 	sbc	a, (hl)
    00001720 1A               [ 8] 5336 	ld	a, (de)
    00001721 57               [ 4] 5337 	ld	d, a
    00001722 CB 7E            [12] 5338 	bit	7, (hl)
    00001724 28 07            [12] 5339 	jr	Z, 00393$
    00001726 CB 7A            [ 8] 5340 	bit	7, d
    00001728 20 08            [12] 5341 	jr	NZ, 00394$
    0000172A BF               [ 4] 5342 	cp	a, a
    0000172B 18 05            [12] 5343 	jr	00394$
    0000172D                       5344 00393$:
    0000172D CB 7A            [ 8] 5345 	bit	7, d
    0000172F 28 01            [12] 5346 	jr	Z, 00394$
    00001731 37               [ 4] 5347 	scf
    00001732                       5348 00394$:
    00001732 30 05            [12] 5349 	jr	NC, 00145$
    00001734 0D               [ 4] 5350 	dec	c
    00001735 21r7Ar00         [12] 5351 	ld	hl, #(_gs + 122)
    00001738 71               [ 8] 5352 	ld	(hl), c
    00001739                       5353 00145$:
                                   5354 ;kaijugaiden.c:1025: if (gs.camera_shake_timer > 0) gs.camera_shake_timer--;
    00001739 FAr7Er00         [16] 5355 	ld	a, (#(_gs + 126) + 0)
    0000173C B7               [ 4] 5356 	or	a, a
    0000173D 28 06            [12] 5357 	jr	Z, 00147$
    0000173F 3D               [ 4] 5358 	dec	a
    00001740 EAr7Er00         [16] 5359 	ld	(#(_gs + 126)),a
    00001743 18 05            [12] 5360 	jr	00148$
    00001745                       5361 00147$:
                                   5362 ;kaijugaiden.c:1026: else gs.camera_shake_mag = 0;
    00001745 21r7Fr00         [12] 5363 	ld	hl, #(_gs + 127)
    00001748 36 00            [12] 5364 	ld	(hl), #0x00
    0000174A                       5365 00148$:
                                   5366 ;kaijugaiden.c:1028: gs.camera_bg_x = clamp_s8(gs.camera_x / 4, -1, 1);
    0000174A FAr79r00         [16] 5367 	ld	a, (#(_gs + 121) + 0)
    0000174D 4F               [ 4] 5368 	ld	c, a
    0000174E 07               [ 4] 5369 	rlca
    0000174F 9F               [ 4] 5370 	sbc	a, a
    00001750 47               [ 4] 5371 	ld	b, a
    00001751 69               [ 4] 5372 	ld	l, c
    00001752 60               [ 4] 5373 	ld	h, b
    00001753 CB 78            [ 8] 5374 	bit	7, b
    00001755 28 05            [12] 5375 	jr	Z, 00162$
    00001757 69               [ 4] 5376 	ld	l, c
    00001758 60               [ 4] 5377 	ld	h, b
    00001759 23               [ 8] 5378 	inc	hl
    0000175A 23               [ 8] 5379 	inc	hl
    0000175B 23               [ 8] 5380 	inc	hl
    0000175C                       5381 00162$:
    0000175C 5D               [ 4] 5382 	ld	e, l
    0000175D 54               [ 4] 5383 	ld	d, h
    0000175E CB 2A            [ 8] 5384 	sra	d
    00001760 CB 1B            [ 8] 5385 	rr	e
    00001762 CB 2A            [ 8] 5386 	sra	d
    00001764 CB 1B            [ 8] 5387 	rr	e
    00001766 3E 01            [ 8] 5388 	ld	a, #0x01
    00001768 F5               [16] 5389 	push	af
    00001769 33               [ 8] 5390 	inc	sp
    0000176A 3E FF            [ 8] 5391 	ld	a, #0xff
    0000176C CDrCEr11         [24] 5392 	call	_clamp_s8
    0000176F EAr7Cr00         [16] 5393 	ld	(#(_gs + 124)),a
                                   5394 ;kaijugaiden.c:1029: gs.camera_bg_y = clamp_s8(gs.camera_y / 2, -1, 1);
    00001772 FAr7Ar00         [16] 5395 	ld	a, (#(_gs + 122) + 0)
    00001775 4F               [ 4] 5396 	ld	c, a
    00001776 07               [ 4] 5397 	rlca
    00001777 9F               [ 4] 5398 	sbc	a, a
    00001778 47               [ 4] 5399 	ld	b, a
    00001779 69               [ 4] 5400 	ld	l, c
    0000177A 60               [ 4] 5401 	ld	h, b
    0000177B CB 78            [ 8] 5402 	bit	7, b
    0000177D 28 03            [12] 5403 	jr	Z, 00163$
    0000177F 69               [ 4] 5404 	ld	l, c
    00001780 60               [ 4] 5405 	ld	h, b
    00001781 23               [ 8] 5406 	inc	hl
    00001782                       5407 00163$:
    00001782 5D               [ 4] 5408 	ld	e, l
    00001783 54               [ 4] 5409 	ld	d, h
    00001784 CB 2A            [ 8] 5410 	sra	d
    00001786 CB 1B            [ 8] 5411 	rr	e
    00001788 3E 01            [ 8] 5412 	ld	a, #0x01
    0000178A F5               [16] 5413 	push	af
    0000178B 33               [ 8] 5414 	inc	sp
    0000178C 3E FF            [ 8] 5415 	ld	a, #0xff
    0000178E CDrCEr11         [24] 5416 	call	_clamp_s8
    00001791 EAr7Dr00         [16] 5417 	ld	(#(_gs + 125)),a
                                   5418 ;kaijugaiden.c:1030: return (u8)((prev_bg_x != gs.camera_bg_x) || (prev_bg_y != gs.camera_bg_y));
    00001794 21r7Cr00         [12] 5419 	ld	hl, #(_gs + 124)
    00001797 4E               [ 8] 5420 	ld	c, (hl)
    00001798 F8 00            [12] 5421 	ldhl	sp,	#0
    0000179A 7E               [ 8] 5422 	ld	a, (hl)
    0000179B 91               [ 4] 5423 	sub	a, c
    0000179C 20 0D            [12] 5424 	jr	NZ, 00165$
    0000179E 21r7Dr00         [12] 5425 	ld	hl, #(_gs + 125)
    000017A1 4E               [ 8] 5426 	ld	c, (hl)
    000017A2 F8 01            [12] 5427 	ldhl	sp,	#1
    000017A4 7E               [ 8] 5428 	ld	a, (hl)
    000017A5 91               [ 4] 5429 	sub	a, c
    000017A6 20 03            [12] 5430 	jr	NZ, 00165$
    000017A8 AF               [ 4] 5431 	xor	a, a
    000017A9 18 02            [12] 5432 	jr	00166$
    000017AB                       5433 00165$:
    000017AB 3E 01            [ 8] 5434 	ld	a, #0x01
    000017AD                       5435 00166$:
                                   5436 ;kaijugaiden.c:1031: }
    000017AD E8 10            [16] 5437 	add	sp, #16
    000017AF C9               [16] 5438 	ret
                                   5439 ;kaijugaiden.c:1033: static const char *boss_attack_label(u8 type) {
                                   5440 ;	---------------------------------
                                   5441 ; Function boss_attack_label
                                   5442 ; ---------------------------------
    000017B0                       5443 _boss_attack_label:
    000017B0 4F               [ 4] 5444 	ld	c, a
                                   5445 ;kaijugaiden.c:1034: switch (type) {
    000017B1 3E 03            [ 8] 5446 	ld	a, #0x03
    000017B3 91               [ 4] 5447 	sub	a, c
    000017B4 38 24            [12] 5448 	jr	C, 00105$
    000017B6 06 00            [ 8] 5449 	ld	b, #0x00
    000017B8 21rC2r17         [12] 5450 	ld	hl, #00116$
    000017BB 09               [ 8] 5451 	add	hl, bc
    000017BC 09               [ 8] 5452 	add	hl, bc
    000017BD 4E               [ 8] 5453 	ld	c, (hl)
    000017BE 23               [ 8] 5454 	inc	hl
    000017BF 66               [ 8] 5455 	ld	h, (hl)
    000017C0 69               [ 4] 5456 	ld	l, c
    000017C1 E9               [ 4] 5457 	jp	(hl)
    000017C2                       5458 00116$:
    000017C2rCAr17                 5459 	.dw	00101$
    000017C4rCEr17                 5460 	.dw	00102$
    000017C6rD2r17                 5461 	.dw	00103$
    000017C8rD6r17                 5462 	.dw	00104$
                                   5463 ;kaijugaiden.c:1035: case BOSS_ATK_SWEEP: return "SWEEP";
    000017CA                       5464 00101$:
    000017CA 01rDEr17         [12] 5465 	ld	bc, #___str_2
    000017CD C9               [16] 5466 	ret
                                   5467 ;kaijugaiden.c:1036: case BOSS_ATK_SPIT:  return "SPIT";
    000017CE                       5468 00102$:
    000017CE 01rE4r17         [12] 5469 	ld	bc, #___str_3
    000017D1 C9               [16] 5470 	ret
                                   5471 ;kaijugaiden.c:1037: case BOSS_ATK_SLAM:  return "SLAM";
    000017D2                       5472 00103$:
    000017D2 01rE9r17         [12] 5473 	ld	bc, #___str_4
    000017D5 C9               [16] 5474 	ret
                                   5475 ;kaijugaiden.c:1038: case BOSS_ATK_TIDAL: return "TIDAL";
    000017D6                       5476 00104$:
    000017D6 01rEEr17         [12] 5477 	ld	bc, #___str_5
    000017D9 C9               [16] 5478 	ret
                                   5479 ;kaijugaiden.c:1039: default:             return "DUEL";
    000017DA                       5480 00105$:
    000017DA 01rF4r17         [12] 5481 	ld	bc, #___str_6
                                   5482 ;kaijugaiden.c:1040: }
                                   5483 ;kaijugaiden.c:1041: }
    000017DD C9               [16] 5484 	ret
    000017DE                       5485 ___str_2:
    000017DE 53 57 45 45 50        5486 	.ascii "SWEEP"
    000017E3 00                    5487 	.db 0x00
    000017E4                       5488 ___str_3:
    000017E4 53 50 49 54           5489 	.ascii "SPIT"
    000017E8 00                    5490 	.db 0x00
    000017E9                       5491 ___str_4:
    000017E9 53 4C 41 4D           5492 	.ascii "SLAM"
    000017ED 00                    5493 	.db 0x00
    000017EE                       5494 ___str_5:
    000017EE 54 49 44 41 4C        5495 	.ascii "TIDAL"
    000017F3 00                    5496 	.db 0x00
    000017F4                       5497 ___str_6:
    000017F4 44 55 45 4C           5498 	.ascii "DUEL"
    000017F8 00                    5499 	.db 0x00
                                   5500 ;kaijugaiden.c:1043: static u8 boss_attack_windup_frames(u8 type) {
                                   5501 ;	---------------------------------
                                   5502 ; Function boss_attack_windup_frames
                                   5503 ; ---------------------------------
    000017F9                       5504 _boss_attack_windup_frames:
    000017F9 4F               [ 4] 5505 	ld	c, a
                                   5506 ;kaijugaiden.c:1044: switch (type) {
    000017FA 3E 03            [ 8] 5507 	ld	a, #0x03
    000017FC 91               [ 4] 5508 	sub	a, c
    000017FD 38 20            [12] 5509 	jr	C, 00105$
    000017FF 06 00            [ 8] 5510 	ld	b, #0x00
    00001801 21r0Br18         [12] 5511 	ld	hl, #00116$
    00001804 09               [ 8] 5512 	add	hl, bc
    00001805 09               [ 8] 5513 	add	hl, bc
    00001806 4E               [ 8] 5514 	ld	c, (hl)
    00001807 23               [ 8] 5515 	inc	hl
    00001808 66               [ 8] 5516 	ld	h, (hl)
    00001809 69               [ 4] 5517 	ld	l, c
    0000180A E9               [ 4] 5518 	jp	(hl)
    0000180B                       5519 00116$:
    0000180Br13r18                 5520 	.dw	00101$
    0000180Dr16r18                 5521 	.dw	00102$
    0000180Fr19r18                 5522 	.dw	00103$
    00001811r1Cr18                 5523 	.dw	00104$
                                   5524 ;kaijugaiden.c:1045: case BOSS_ATK_SWEEP: return 16;
    00001813                       5525 00101$:
    00001813 3E 10            [ 8] 5526 	ld	a, #0x10
    00001815 C9               [16] 5527 	ret
                                   5528 ;kaijugaiden.c:1046: case BOSS_ATK_SPIT:  return 22;
    00001816                       5529 00102$:
    00001816 3E 16            [ 8] 5530 	ld	a, #0x16
    00001818 C9               [16] 5531 	ret
                                   5532 ;kaijugaiden.c:1047: case BOSS_ATK_SLAM:  return 26;
    00001819                       5533 00103$:
    00001819 3E 1A            [ 8] 5534 	ld	a, #0x1a
    0000181B C9               [16] 5535 	ret
                                   5536 ;kaijugaiden.c:1048: case BOSS_ATK_TIDAL: return 18;
    0000181C                       5537 00104$:
    0000181C 3E 12            [ 8] 5538 	ld	a, #0x12
    0000181E C9               [16] 5539 	ret
                                   5540 ;kaijugaiden.c:1049: default:             return 16;
    0000181F                       5541 00105$:
    0000181F 3E 10            [ 8] 5542 	ld	a, #0x10
                                   5543 ;kaijugaiden.c:1050: }
                                   5544 ;kaijugaiden.c:1051: }
    00001821 C9               [16] 5545 	ret
                                   5546 ;kaijugaiden.c:1053: static u8 boss_attack_recover_frames(u8 type) {
                                   5547 ;	---------------------------------
                                   5548 ; Function boss_attack_recover_frames
                                   5549 ; ---------------------------------
    00001822                       5550 _boss_attack_recover_frames:
    00001822 4F               [ 4] 5551 	ld	c, a
                                   5552 ;kaijugaiden.c:1054: switch (type) {
    00001823 3E 03            [ 8] 5553 	ld	a, #0x03
    00001825 91               [ 4] 5554 	sub	a, c
    00001826 38 20            [12] 5555 	jr	C, 00105$
    00001828 06 00            [ 8] 5556 	ld	b, #0x00
    0000182A 21r34r18         [12] 5557 	ld	hl, #00116$
    0000182D 09               [ 8] 5558 	add	hl, bc
    0000182E 09               [ 8] 5559 	add	hl, bc
    0000182F 4E               [ 8] 5560 	ld	c, (hl)
    00001830 23               [ 8] 5561 	inc	hl
    00001831 66               [ 8] 5562 	ld	h, (hl)
    00001832 69               [ 4] 5563 	ld	l, c
    00001833 E9               [ 4] 5564 	jp	(hl)
    00001834                       5565 00116$:
    00001834r3Cr18                 5566 	.dw	00101$
    00001836r3Fr18                 5567 	.dw	00102$
    00001838r42r18                 5568 	.dw	00103$
    0000183Ar45r18                 5569 	.dw	00104$
                                   5570 ;kaijugaiden.c:1055: case BOSS_ATK_SWEEP: return 18;
    0000183C                       5571 00101$:
    0000183C 3E 12            [ 8] 5572 	ld	a, #0x12
    0000183E C9               [16] 5573 	ret
                                   5574 ;kaijugaiden.c:1056: case BOSS_ATK_SPIT:  return 14;
    0000183F                       5575 00102$:
    0000183F 3E 0E            [ 8] 5576 	ld	a, #0x0e
    00001841 C9               [16] 5577 	ret
                                   5578 ;kaijugaiden.c:1057: case BOSS_ATK_SLAM:  return 24;
    00001842                       5579 00103$:
    00001842 3E 18            [ 8] 5580 	ld	a, #0x18
    00001844 C9               [16] 5581 	ret
                                   5582 ;kaijugaiden.c:1058: case BOSS_ATK_TIDAL: return 20;
    00001845                       5583 00104$:
    00001845 3E 14            [ 8] 5584 	ld	a, #0x14
    00001847 C9               [16] 5585 	ret
                                   5586 ;kaijugaiden.c:1059: default:             return 16;
    00001848                       5587 00105$:
    00001848 3E 10            [ 8] 5588 	ld	a, #0x10
                                   5589 ;kaijugaiden.c:1060: }
                                   5590 ;kaijugaiden.c:1061: }
    0000184A C9               [16] 5591 	ret
                                   5592 ;kaijugaiden.c:1063: static u8 boss_current_range(u8 type) {
                                   5593 ;	---------------------------------
                                   5594 ; Function boss_current_range
                                   5595 ; ---------------------------------
    0000184B                       5596 _boss_current_range:
    0000184B 4F               [ 4] 5597 	ld	c, a
                                   5598 ;kaijugaiden.c:1064: switch (type) {
    0000184C 3E 03            [ 8] 5599 	ld	a, #0x03
    0000184E 91               [ 4] 5600 	sub	a, c
    0000184F 38 20            [12] 5601 	jr	C, 00105$
    00001851 06 00            [ 8] 5602 	ld	b, #0x00
    00001853 21r5Dr18         [12] 5603 	ld	hl, #00116$
    00001856 09               [ 8] 5604 	add	hl, bc
    00001857 09               [ 8] 5605 	add	hl, bc
    00001858 4E               [ 8] 5606 	ld	c, (hl)
    00001859 23               [ 8] 5607 	inc	hl
    0000185A 66               [ 8] 5608 	ld	h, (hl)
    0000185B 69               [ 4] 5609 	ld	l, c
    0000185C E9               [ 4] 5610 	jp	(hl)
    0000185D                       5611 00116$:
    0000185Dr65r18                 5612 	.dw	00101$
    0000185Fr68r18                 5613 	.dw	00102$
    00001861r6Br18                 5614 	.dw	00103$
    00001863r6Er18                 5615 	.dw	00104$
                                   5616 ;kaijugaiden.c:1065: case BOSS_ATK_SWEEP: return BOSS_SWEEP_RANGE;
    00001865                       5617 00101$:
    00001865 3E 20            [ 8] 5618 	ld	a, #0x20
    00001867 C9               [16] 5619 	ret
                                   5620 ;kaijugaiden.c:1066: case BOSS_ATK_SPIT:  return BOSS_SPIT_RANGE;
    00001868                       5621 00102$:
    00001868 3E 58            [ 8] 5622 	ld	a, #0x58
    0000186A C9               [16] 5623 	ret
                                   5624 ;kaijugaiden.c:1067: case BOSS_ATK_SLAM:  return BOSS_SLAM_RANGE;
    0000186B                       5625 00103$:
    0000186B 3E 1A            [ 8] 5626 	ld	a, #0x1a
    0000186D C9               [16] 5627 	ret
                                   5628 ;kaijugaiden.c:1068: case BOSS_ATK_TIDAL: return BOSS_SPIT_RANGE;
    0000186E                       5629 00104$:
    0000186E 3E 58            [ 8] 5630 	ld	a, #0x58
    00001870 C9               [16] 5631 	ret
                                   5632 ;kaijugaiden.c:1069: default:             return BOSS_SWEEP_RANGE;
    00001871                       5633 00105$:
    00001871 3E 20            [ 8] 5634 	ld	a, #0x20
                                   5635 ;kaijugaiden.c:1070: }
                                   5636 ;kaijugaiden.c:1071: }
    00001873 C9               [16] 5637 	ret
                                   5638 ;kaijugaiden.c:1073: static u8 boss_pick_attack(void) {
                                   5639 ;	---------------------------------
                                   5640 ; Function boss_pick_attack
                                   5641 ; ---------------------------------
    00001874                       5642 _boss_pick_attack:
                                   5643 ;kaijugaiden.c:1074: u8 distance = abs_distance_u8(gs.boss_x, (s16)(gs.player_x * TILE_W));
    00001874 21r01r00         [12] 5644 	ld	hl, #_gs + 1
    00001877 6E               [ 8] 5645 	ld	l, (hl)
    00001878 26 00            [ 8] 5646 	ld	h, #0x00
    0000187A 29               [ 8] 5647 	add	hl, hl
    0000187B 29               [ 8] 5648 	add	hl, hl
    0000187C 29               [ 8] 5649 	add	hl, hl
    0000187D 4D               [ 4] 5650 	ld	c, l
    0000187E 44               [ 4] 5651 	ld	b, h
    0000187F 21r17r00         [12] 5652 	ld	hl, #_gs + 23
    00001882 2A               [ 8] 5653 	ld	a, (hl+)
    00001883 6E               [ 8] 5654 	ld	l, (hl)
    00001884 5F               [ 4] 5655 	ld	e, a
    00001885 55               [ 4] 5656 	ld	d, l
    00001886 CDrC0r11         [24] 5657 	call	_abs_distance_u8
    00001889 4F               [ 4] 5658 	ld	c, a
                                   5659 ;kaijugaiden.c:1075: if (gs.boss_phase == 1) {
    0000188A 21r15r00         [12] 5660 	ld	hl, #_gs + 21
    0000188D 46               [ 8] 5661 	ld	b, (hl)
    0000188E 78               [ 4] 5662 	ld	a, b
    0000188F 3D               [ 4] 5663 	dec	a
    00001890 20 0A            [12] 5664 	jr	NZ, 00102$
                                   5665 ;kaijugaiden.c:1076: return (distance <= 34) ? BOSS_ATK_SWEEP : BOSS_ATK_SPIT;
    00001892 3E 22            [ 8] 5666 	ld	a, #0x22
    00001894 91               [ 4] 5667 	sub	a, c
    00001895 38 02            [12] 5668 	jr	C, 00114$
    00001897 AF               [ 4] 5669 	xor	a, a
    00001898 C9               [16] 5670 	ret
    00001899                       5671 00114$:
    00001899 3E 01            [ 8] 5672 	ld	a, #0x01
    0000189B C9               [16] 5673 	ret
    0000189C                       5674 00102$:
                                   5675 ;kaijugaiden.c:1080: return ((gs.anim_tick & 0x10) != 0) ? BOSS_ATK_SPIT : BOSS_ATK_SWEEP;
    0000189C 11r76r00         [12] 5676 	ld	de, #_gs + 118
                                   5677 ;kaijugaiden.c:1078: if (gs.boss_phase == 2) {
    0000189F 78               [ 4] 5678 	ld	a, b
    000018A0 D6 02            [ 8] 5679 	sub	a, #0x02
    000018A2 20 12            [12] 5680 	jr	NZ, 00106$
                                   5681 ;kaijugaiden.c:1079: if (distance <= 22) return BOSS_ATK_SLAM;
    000018A4 3E 16            [ 8] 5682 	ld	a, #0x16
    000018A6 91               [ 4] 5683 	sub	a, c
    000018A7 38 03            [12] 5684 	jr	C, 00104$
    000018A9 3E 02            [ 8] 5685 	ld	a, #0x02
    000018AB C9               [16] 5686 	ret
    000018AC                       5687 00104$:
                                   5688 ;kaijugaiden.c:1080: return ((gs.anim_tick & 0x10) != 0) ? BOSS_ATK_SPIT : BOSS_ATK_SWEEP;
    000018AC 1A               [ 8] 5689 	ld	a, (de)
    000018AD CB 67            [ 8] 5690 	bit	4, a
    000018AF 28 03            [12] 5691 	jr	Z, 00116$
    000018B1 3E 01            [ 8] 5692 	ld	a, #0x01
    000018B3 C9               [16] 5693 	ret
    000018B4                       5694 00116$:
    000018B4 AF               [ 4] 5695 	xor	a, a
    000018B5 C9               [16] 5696 	ret
    000018B6                       5697 00106$:
                                   5698 ;kaijugaiden.c:1082: if ((gs.anim_tick % 96) < 12 && distance > 18) return BOSS_ATK_TIDAL;
    000018B6 1A               [ 8] 5699 	ld	a, (de)
    000018B7 C5               [16] 5700 	push	bc
    000018B8 1E 60            [ 8] 5701 	ld	e, #0x60
    000018BA CDr00r00         [24] 5702 	call	__moduchar
    000018BD 79               [ 4] 5703 	ld	a, c
    000018BE C1               [12] 5704 	pop	bc
    000018BF D6 0C            [ 8] 5705 	sub	a, #0x0c
    000018C1 30 08            [12] 5706 	jr	NC, 00108$
    000018C3 3E 12            [ 8] 5707 	ld	a, #0x12
    000018C5 91               [ 4] 5708 	sub	a, c
    000018C6 30 03            [12] 5709 	jr	NC, 00108$
    000018C8 3E 03            [ 8] 5710 	ld	a, #0x03
    000018CA C9               [16] 5711 	ret
    000018CB                       5712 00108$:
                                   5713 ;kaijugaiden.c:1083: if (distance <= 24) return BOSS_ATK_SLAM;
    000018CB 3E 18            [ 8] 5714 	ld	a, #0x18
    000018CD 91               [ 4] 5715 	sub	a, c
    000018CE 38 03            [12] 5716 	jr	C, 00111$
    000018D0 3E 02            [ 8] 5717 	ld	a, #0x02
    000018D2 C9               [16] 5718 	ret
    000018D3                       5719 00111$:
                                   5720 ;kaijugaiden.c:1084: return (distance > 54) ? BOSS_ATK_TIDAL : BOSS_ATK_SWEEP;
    000018D3 3E 36            [ 8] 5721 	ld	a, #0x36
    000018D5 91               [ 4] 5722 	sub	a, c
    000018D6 30 03            [12] 5723 	jr	NC, 00118$
    000018D8 3E 03            [ 8] 5724 	ld	a, #0x03
    000018DA C9               [16] 5725 	ret
    000018DB                       5726 00118$:
    000018DB AF               [ 4] 5727 	xor	a, a
                                   5728 ;kaijugaiden.c:1085: }
    000018DC C9               [16] 5729 	ret
                                   5730 ;kaijugaiden.c:1093: static void hud_draw(void) {
                                   5731 ;	---------------------------------
                                   5732 ; Function hud_draw
                                   5733 ; ---------------------------------
    000018DD                       5734 _hud_draw:
    000018DD E8 FC            [16] 5735 	add	sp, #-4
                                   5736 ;kaijugaiden.c:1095: for (u8 i = 0; i < PLAYER_MAX_HP; ++i)
    000018DF 0E 00            [ 8] 5737 	ld	c, #0x00
    000018E1                       5738 00150$:
    000018E1 79               [ 4] 5739 	ld	a, c
    000018E2 D6 06            [ 8] 5740 	sub	a, #0x06
    000018E4 30 1A            [12] 5741 	jr	NC, 00101$
                                   5742 ;kaijugaiden.c:1096: plat_set_bkg_tile(i, HUD_ROW, (i < gs.player_hp) ? TILE_HP_SEG : TILE_BLANK);
    000018E6 21r00r00         [12] 5743 	ld	hl, #_gs
    000018E9 46               [ 8] 5744 	ld	b, (hl)
    000018EA 79               [ 4] 5745 	ld	a, c
    000018EB 90               [ 4] 5746 	sub	a, b
    000018EC 30 04            [12] 5747 	jr	NC, 00160$
    000018EE 3E 1D            [ 8] 5748 	ld	a, #0x1d
    000018F0 18 01            [12] 5749 	jr	00161$
    000018F2                       5750 00160$:
    000018F2 AF               [ 4] 5751 	xor	a, a
    000018F3                       5752 00161$:
                                   5753 ;kaijugaiden.c:146: set_bkg_tile_xy(x, y, tile);
    000018F3 C5               [16] 5754 	push	bc
    000018F4 F5               [16] 5755 	push	af
    000018F5 33               [ 8] 5756 	inc	sp
    000018F6 1E 00            [ 8] 5757 	ld	e, #0x00
    000018F8 79               [ 4] 5758 	ld	a, c
    000018F9 CDr00r00         [24] 5759 	call	_set_bkg_tile_xy
    000018FC C1               [12] 5760 	pop	bc
                                   5761 ;kaijugaiden.c:1095: for (u8 i = 0; i < PLAYER_MAX_HP; ++i)
    000018FD 0C               [ 4] 5762 	inc	c
    000018FE 18 E1            [12] 5763 	jr	00150$
    00001900                       5764 00101$:
                                   5765 ;kaijugaiden.c:1099: bg_draw_number_2(10, HUD_ROW, gs.nanocell_count);
    00001900 FAr0Er00         [16] 5766 	ld	a, (#(_gs + 14) + 0)
    00001903 F5               [16] 5767 	push	af
    00001904 33               [ 8] 5768 	inc	sp
    00001905 1E 00            [ 8] 5769 	ld	e, #0x00
    00001907 3E 0A            [ 8] 5770 	ld	a, #0x0a
    00001909 CDrD9r10         [24] 5771 	call	_bg_draw_number_2
                                   5772 ;kaijugaiden.c:1102: if (gs.phase == PHASE_COMBAT && gs.boss_awake) {
    0000190C 21r4Cr00         [12] 5773 	ld	hl, #(_gs + 76)
                                   5774 ;kaijugaiden.c:1103: u8 boss_max = (gs.boss_phase == 1) ? BOSS_HP_P1
                                   5775 ;kaijugaiden.c:1102: if (gs.phase == PHASE_COMBAT && gs.boss_awake) {
    0000190F 7E               [ 8] 5776 	ld	a, (hl)
    00001910 D6 04            [ 8] 5777 	sub	a, #0x04
    00001912 20 64            [12] 5778 	jr	NZ, 00179$
    00001914 FAr14r00         [16] 5779 	ld	a, (#(_gs + 20) + 0)
    00001917 B7               [ 4] 5780 	or	a, a
    00001918 28 5E            [12] 5781 	jr	Z, 00179$
                                   5782 ;kaijugaiden.c:1103: u8 boss_max = (gs.boss_phase == 1) ? BOSS_HP_P1
    0000191A FAr15r00         [16] 5783 	ld	a, (#(_gs + 21) + 0)
    0000191D FE 01            [ 8] 5784 	cp	a, #0x01
    0000191F 20 04            [12] 5785 	jr	NZ, 00162$
    00001921 1E 0C            [ 8] 5786 	ld	e, #0x0c
    00001923 18 08            [12] 5787 	jr	00163$
    00001925                       5788 00162$:
    00001925 D6 02            [ 8] 5789 	sub	a, #0x02
    00001927 1E 0A            [ 8] 5790 	ld	e, #0x0a
    00001929 28 02            [12] 5791 	jr	Z, 00165$
    0000192B 1E 08            [ 8] 5792 	ld	e, #0x08
    0000192D                       5793 00165$:
    0000192D                       5794 00163$:
    0000192D F8 00            [12] 5795 	ldhl	sp,	#0
    0000192F 73               [ 8] 5796 	ld	(hl), e
                                   5797 ;kaijugaiden.c:1105: for (u8 i = 0; i < 6; ++i) {
    00001930 F8 03            [12] 5798 	ldhl	sp,	#3
    00001932 36 00            [12] 5799 	ld	(hl), #0x00
    00001934                       5800 00153$:
    00001934 F8 03            [12] 5801 	ldhl	sp,	#3
    00001936 7E               [ 8] 5802 	ld	a, (hl)
    00001937 D6 06            [ 8] 5803 	sub	a, #0x06
    00001939 30 54            [12] 5804 	jr	NC, 00106$
                                   5805 ;kaijugaiden.c:1106: u8 filled = (u8)((u16)gs.boss_hp * 6 / boss_max);
    0000193B 21r16r00         [12] 5806 	ld	hl, #(_gs + 22)
    0000193E 4E               [ 8] 5807 	ld	c, (hl)
    0000193F 06 00            [ 8] 5808 	ld	b, #0x00
    00001941 69               [ 4] 5809 	ld	l, c
    00001942 60               [ 4] 5810 	ld	h, b
    00001943 29               [ 8] 5811 	add	hl, hl
    00001944 09               [ 8] 5812 	add	hl, bc
    00001945 29               [ 8] 5813 	add	hl, hl
    00001946 E5               [16] 5814 	push	hl
    00001947 7D               [ 4] 5815 	ld	a, l
    00001948 F8 03            [12] 5816 	ldhl	sp,	#3
    0000194A 77               [ 8] 5817 	ld	(hl), a
    0000194B E1               [12] 5818 	pop	hl
    0000194C 7C               [ 4] 5819 	ld	a, h
    0000194D F8 02            [12] 5820 	ldhl	sp,	#2
    0000194F 32               [ 8] 5821 	ld	(hl-), a
    00001950 2B               [ 8] 5822 	dec	hl
    00001951 2A               [ 8] 5823 	ld	a, (hl+)
    00001952 4F               [ 4] 5824 	ld	c, a
    00001953 AF               [ 4] 5825 	xor	a, a
    00001954 47               [ 4] 5826 	ld	b, a
    00001955 2A               [ 8] 5827 	ld	a, (hl+)
    00001956 5F               [ 4] 5828 	ld	e, a
    00001957 56               [ 8] 5829 	ld	d, (hl)
    00001958 CDr00r00         [24] 5830 	call	__divuint
                                   5831 ;kaijugaiden.c:1108: (i < filled) ? TILE_BOSS_SEG : TILE_BLANK);
    0000195B F8 03            [12] 5832 	ldhl	sp,	#3
    0000195D 7E               [ 8] 5833 	ld	a, (hl)
    0000195E 91               [ 4] 5834 	sub	a, c
    0000195F 30 04            [12] 5835 	jr	NC, 00166$
    00001961 06 1E            [ 8] 5836 	ld	b, #0x1e
    00001963 18 02            [12] 5837 	jr	00167$
    00001965                       5838 00166$:
    00001965 06 00            [ 8] 5839 	ld	b, #0x00
    00001967                       5840 00167$:
                                   5841 ;kaijugaiden.c:1107: plat_set_bkg_tile(14 + i, HUD_ROW,
    00001967 F8 03            [12] 5842 	ldhl	sp,	#3
    00001969 7E               [ 8] 5843 	ld	a, (hl)
    0000196A C6 0E            [ 8] 5844 	add	a, #0x0e
                                   5845 ;kaijugaiden.c:146: set_bkg_tile_xy(x, y, tile);
    0000196C C5               [16] 5846 	push	bc
    0000196D 33               [ 8] 5847 	inc	sp
    0000196E 1E 00            [ 8] 5848 	ld	e, #0x00
    00001970 CDr00r00         [24] 5849 	call	_set_bkg_tile_xy
                                   5850 ;kaijugaiden.c:1105: for (u8 i = 0; i < 6; ++i) {
    00001973 F8 03            [12] 5851 	ldhl	sp,	#3
    00001975 34               [12] 5852 	inc	(hl)
    00001976 18 BC            [12] 5853 	jr	00153$
                                   5854 ;kaijugaiden.c:1111: for (u8 i = 0; i < 6; ++i)
    00001978                       5855 00179$:
    00001978 0E 00            [ 8] 5856 	ld	c, #0x00
    0000197A                       5857 00156$:
                                   5858 ;kaijugaiden.c:1112: plat_set_bkg_tile(14 + i, HUD_ROW, TILE_BLANK);
    0000197A 79               [ 4] 5859 	ld	a,c
    0000197B FE 06            [ 8] 5860 	cp	a,#0x06
    0000197D 30 10            [12] 5861 	jr	NC, 00106$
    0000197F C6 0E            [ 8] 5862 	add	a, #0x0e
                                   5863 ;kaijugaiden.c:146: set_bkg_tile_xy(x, y, tile);
    00001981 C5               [16] 5864 	push	bc
    00001982 26 00            [ 8] 5865 	ld	h, #0x00
    00001984 E5               [16] 5866 	push	hl
    00001985 33               [ 8] 5867 	inc	sp
    00001986 1E 00            [ 8] 5868 	ld	e, #0x00
    00001988 CDr00r00         [24] 5869 	call	_set_bkg_tile_xy
    0000198B C1               [12] 5870 	pop	bc
                                   5871 ;kaijugaiden.c:1111: for (u8 i = 0; i < 6; ++i)
    0000198C 0C               [ 4] 5872 	inc	c
    0000198D 18 EB            [12] 5873 	jr	00156$
    0000198F                       5874 00106$:
                                   5875 ;kaijugaiden.c:1115: bg_clear_row(1);
    0000198F 3E 01            [ 8] 5876 	ld	a, #0x01
    00001991 CDr16r11         [24] 5877 	call	_bg_clear_row
                                   5878 ;kaijugaiden.c:1116: bg_clear_row(2);
    00001994 3E 02            [ 8] 5879 	ld	a, #0x02
    00001996 CDr16r11         [24] 5880 	call	_bg_clear_row
                                   5881 ;kaijugaiden.c:1117: if (gs.phase == PHASE_COMBAT) {
    00001999 FAr4Cr00         [16] 5882 	ld	a, (#(_gs + 76) + 0)
    0000199C D6 04            [ 8] 5883 	sub	a, #0x04
    0000199E C2rB0r1B         [16] 5884 	jp	NZ, 00158$
                                   5885 ;kaijugaiden.c:1118: if (!gs.boss_awake) {
    000019A1 FAr14r00         [16] 5886 	ld	a, (#(_gs + 20) + 0)
    000019A4 B7               [ 4] 5887 	or	a, a
    000019A5 20 3B            [12] 5888 	jr	NZ, 00141$
                                   5889 ;kaijugaiden.c:1119: bg_draw_text(0, 1, "WAVE");
    000019A7 11rB3r1B         [12] 5890 	ld	de, #___str_7
    000019AA D5               [16] 5891 	push	de
    000019AB 1E 01            [ 8] 5892 	ld	e, #0x01
    000019AD AF               [ 4] 5893 	xor	a, a
    000019AE CDr03r0C         [24] 5894 	call	_bg_draw_text
                                   5895 ;kaijugaiden.c:1120: bg_draw_number_2(4, 1, gs.wave + 1);
    000019B1 FAr50r00         [16] 5896 	ld	a, (#(_gs + 80) + 0)
    000019B4 3C               [ 4] 5897 	inc	a
    000019B5 F5               [16] 5898 	push	af
    000019B6 33               [ 8] 5899 	inc	sp
    000019B7 1E 01            [ 8] 5900 	ld	e, #0x01
    000019B9 3E 04            [ 8] 5901 	ld	a, #0x04
    000019BB CDrD9r10         [24] 5902 	call	_bg_draw_number_2
                                   5903 ;kaijugaiden.c:1121: bg_draw_text(8, 1, "FOE");
    000019BE 11rB8r1B         [12] 5904 	ld	de, #___str_8
    000019C1 D5               [16] 5905 	push	de
    000019C2 1E 01            [ 8] 5906 	ld	e, #0x01
    000019C4 3E 08            [ 8] 5907 	ld	a, #0x08
    000019C6 CDr03r0C         [24] 5908 	call	_bg_draw_text
                                   5909 ;kaijugaiden.c:1122: bg_draw_number_2(11, 1, combat_minions_alive());
    000019C9 CDr29r11         [24] 5910 	call	_combat_minions_alive
    000019CC F5               [16] 5911 	push	af
    000019CD 33               [ 8] 5912 	inc	sp
    000019CE 1E 01            [ 8] 5913 	ld	e, #0x01
    000019D0 3E 0B            [ 8] 5914 	ld	a, #0x0b
    000019D2 CDrD9r10         [24] 5915 	call	_bg_draw_number_2
                                   5916 ;kaijugaiden.c:1123: bg_draw_text(0, 2, "CLEAR TO DRAW BOSS");
    000019D5 11rBCr1B         [12] 5917 	ld	de, #___str_9
    000019D8 D5               [16] 5918 	push	de
    000019D9 1E 02            [ 8] 5919 	ld	e, #0x02
    000019DB AF               [ 4] 5920 	xor	a, a
    000019DC CDr03r0C         [24] 5921 	call	_bg_draw_text
    000019DF C3rB0r1B         [16] 5922 	jp	00158$
    000019E2                       5923 00141$:
                                   5924 ;kaijugaiden.c:1124: } else if (gs.banner_timer > 0) {
    000019E2 FAr77r00         [16] 5925 	ld	a, (#(_gs + 119) + 0)
    000019E5 B7               [ 4] 5926 	or	a, a
    000019E6 CAr67r1A         [16] 5927 	jp	Z, 00138$
                                   5928 ;kaijugaiden.c:1125: switch (gs.banner_kind) {
    000019E9 21r78r00         [12] 5929 	ld	hl, #(_gs + 120)
    000019EC 4E               [ 8] 5930 	ld	c, (hl)
    000019ED 3E 06            [ 8] 5931 	ld	a, #0x06
    000019EF 91               [ 4] 5932 	sub	a, c
    000019F0 38 68            [12] 5933 	jr	C, 00114$
    000019F2 06 00            [ 8] 5934 	ld	b, #0x00
    000019F4 21rFEr19         [12] 5935 	ld	hl, #00340$
    000019F7 09               [ 8] 5936 	add	hl, bc
    000019F8 09               [ 8] 5937 	add	hl, bc
    000019F9 4E               [ 8] 5938 	ld	c, (hl)
    000019FA 23               [ 8] 5939 	inc	hl
    000019FB 66               [ 8] 5940 	ld	h, (hl)
    000019FC 69               [ 4] 5941 	ld	l, c
    000019FD E9               [ 4] 5942 	jp	(hl)
    000019FE                       5943 00340$:
    000019FEr5Ar1A                 5944 	.dw	00114$
    00001A00r19r1A                 5945 	.dw	00109$
    00001A02r0Cr1A                 5946 	.dw	00108$
    00001A04r26r1A                 5947 	.dw	00110$
    00001A06r33r1A                 5948 	.dw	00111$
    00001A08r40r1A                 5949 	.dw	00112$
    00001A0Ar4Dr1A                 5950 	.dw	00113$
                                   5951 ;kaijugaiden.c:1126: case BANNER_BOSS_RISE:  bg_draw_text(0, 1, "LEVIATHAN RISES"); break;
    00001A0C                       5952 00108$:
    00001A0C 11rCFr1B         [12] 5953 	ld	de, #___str_10
    00001A0F D5               [16] 5954 	push	de
    00001A10 1E 01            [ 8] 5955 	ld	e, #0x01
    00001A12 AF               [ 4] 5956 	xor	a, a
    00001A13 CDr03r0C         [24] 5957 	call	_bg_draw_text
    00001A16 C3rB0r1B         [16] 5958 	jp	00158$
                                   5959 ;kaijugaiden.c:1127: case BANNER_WAVE_CLEAR: bg_draw_text(0, 1, "WAVE BROKEN"); break;
    00001A19                       5960 00109$:
    00001A19 11rDFr1B         [12] 5961 	ld	de, #___str_11
    00001A1C D5               [16] 5962 	push	de
    00001A1D 1E 01            [ 8] 5963 	ld	e, #0x01
    00001A1F AF               [ 4] 5964 	xor	a, a
    00001A20 CDr03r0C         [24] 5965 	call	_bg_draw_text
    00001A23 C3rB0r1B         [16] 5966 	jp	00158$
                                   5967 ;kaijugaiden.c:1128: case BANNER_DODGE:      bg_draw_text(0, 1, "DODGE CLEAN"); break;
    00001A26                       5968 00110$:
    00001A26 11rEBr1B         [12] 5969 	ld	de, #___str_12
    00001A29 D5               [16] 5970 	push	de
    00001A2A 1E 01            [ 8] 5971 	ld	e, #0x01
    00001A2C AF               [ 4] 5972 	xor	a, a
    00001A2D CDr03r0C         [24] 5973 	call	_bg_draw_text
    00001A30 C3rB0r1B         [16] 5974 	jp	00158$
                                   5975 ;kaijugaiden.c:1129: case BANNER_PERFECT:    bg_draw_text(0, 1, "PERFECT STRIKE"); break;
    00001A33                       5976 00111$:
    00001A33 11rF7r1B         [12] 5977 	ld	de, #___str_13
    00001A36 D5               [16] 5978 	push	de
    00001A37 1E 01            [ 8] 5979 	ld	e, #0x01
    00001A39 AF               [ 4] 5980 	xor	a, a
    00001A3A CDr03r0C         [24] 5981 	call	_bg_draw_text
    00001A3D C3rB0r1B         [16] 5982 	jp	00158$
                                   5983 ;kaijugaiden.c:1130: case BANNER_FINISHER:   bg_draw_text(0, 1, "FINISHER WINDOW"); break;
    00001A40                       5984 00112$:
    00001A40 11r06r1C         [12] 5985 	ld	de, #___str_14
    00001A43 D5               [16] 5986 	push	de
    00001A44 1E 01            [ 8] 5987 	ld	e, #0x01
    00001A46 AF               [ 4] 5988 	xor	a, a
    00001A47 CDr03r0C         [24] 5989 	call	_bg_draw_text
    00001A4A C3rB0r1B         [16] 5990 	jp	00158$
                                   5991 ;kaijugaiden.c:1131: case BANNER_BOSS_STUN:  bg_draw_text(0, 1, "BOSS STUNNED"); break;
    00001A4D                       5992 00113$:
    00001A4D 11r16r1C         [12] 5993 	ld	de, #___str_15
    00001A50 D5               [16] 5994 	push	de
    00001A51 1E 01            [ 8] 5995 	ld	e, #0x01
    00001A53 AF               [ 4] 5996 	xor	a, a
    00001A54 CDr03r0C         [24] 5997 	call	_bg_draw_text
    00001A57 C3rB0r1B         [16] 5998 	jp	00158$
                                   5999 ;kaijugaiden.c:1132: default:                bg_draw_text(0, 1, "DUEL LIVE"); break;
    00001A5A                       6000 00114$:
    00001A5A 11r23r1C         [12] 6001 	ld	de, #___str_16
    00001A5D D5               [16] 6002 	push	de
    00001A5E 1E 01            [ 8] 6003 	ld	e, #0x01
    00001A60 AF               [ 4] 6004 	xor	a, a
    00001A61 CDr03r0C         [24] 6005 	call	_bg_draw_text
                                   6006 ;kaijugaiden.c:1133: }
    00001A64 C3rB0r1B         [16] 6007 	jp	00158$
    00001A67                       6008 00138$:
                                   6009 ;kaijugaiden.c:1134: } else if (gs.boss_windup > 0) {
                                   6010 ;kaijugaiden.c:1136: if (abs_distance_u8(gs.boss_x, (s16)(gs.player_x * TILE_W)) <= boss_current_range(gs.boss_atk_type))
                                   6011 ;kaijugaiden.c:1134: } else if (gs.boss_windup > 0) {
    00001A67 FAr1Cr00         [16] 6012 	ld	a, (#(_gs + 28) + 0)
    00001A6A B7               [ 4] 6013 	or	a, a
    00001A6B 28 4A            [12] 6014 	jr	Z, 00135$
                                   6015 ;kaijugaiden.c:1135: bg_draw_text(0, 1, boss_attack_label(gs.boss_atk_type));
    00001A6D FAr1Br00         [16] 6016 	ld	a, (#(_gs + 27) + 0)
    00001A70 CDrB0r17         [24] 6017 	call	_boss_attack_label
    00001A73 C5               [16] 6018 	push	bc
    00001A74 1E 01            [ 8] 6019 	ld	e, #0x01
    00001A76 AF               [ 4] 6020 	xor	a, a
    00001A77 CDr03r0C         [24] 6021 	call	_bg_draw_text
                                   6022 ;kaijugaiden.c:1136: if (abs_distance_u8(gs.boss_x, (s16)(gs.player_x * TILE_W)) <= boss_current_range(gs.boss_atk_type))
    00001A7A 21r01r00         [12] 6023 	ld	hl, #(_gs + 1)
    00001A7D 6E               [ 8] 6024 	ld	l, (hl)
    00001A7E AF               [ 4] 6025 	xor	a, a
    00001A7F 67               [ 4] 6026 	ld	h, a
    00001A80 29               [ 8] 6027 	add	hl, hl
    00001A81 29               [ 8] 6028 	add	hl, hl
    00001A82 29               [ 8] 6029 	add	hl, hl
    00001A83 4D               [ 4] 6030 	ld	c, l
    00001A84 44               [ 4] 6031 	ld	b, h
    00001A85 21r17r00         [12] 6032 	ld	hl, #(_gs + 23)
    00001A88 2A               [ 8] 6033 	ld	a,	(hl+)
    00001A89 66               [ 8] 6034 	ld	h, (hl)
    00001A8A 5F               [ 4] 6035 	ld	e, a
    00001A8B 54               [ 4] 6036 	ld	d, h
    00001A8C CDrC0r11         [24] 6037 	call	_abs_distance_u8
    00001A8F 4F               [ 4] 6038 	ld	c, a
    00001A90 FAr1Br00         [16] 6039 	ld	a, (#(_gs + 27) + 0)
    00001A93 C5               [16] 6040 	push	bc
    00001A94 CDr4Br18         [24] 6041 	call	_boss_current_range
    00001A97 5F               [ 4] 6042 	ld	e, a
    00001A98 C1               [12] 6043 	pop	bc
    00001A99 7B               [ 4] 6044 	ld	a, e
    00001A9A 91               [ 4] 6045 	sub	a, c
    00001A9B 38 0D            [12] 6046 	jr	C, 00117$
                                   6047 ;kaijugaiden.c:1137: bg_draw_text(0, 2, "DANGER STEP OR DODGE");
    00001A9D 11r2Dr1C         [12] 6048 	ld	de, #___str_17
    00001AA0 D5               [16] 6049 	push	de
    00001AA1 1E 02            [ 8] 6050 	ld	e, #0x02
    00001AA3 AF               [ 4] 6051 	xor	a, a
    00001AA4 CDr03r0C         [24] 6052 	call	_bg_draw_text
    00001AA7 C3rB0r1B         [16] 6053 	jp	00158$
    00001AAA                       6054 00117$:
                                   6055 ;kaijugaiden.c:1139: bg_draw_text(0, 2, "OUTSIDE STRIKE EDGE");
    00001AAA 11r42r1C         [12] 6056 	ld	de, #___str_18
    00001AAD D5               [16] 6057 	push	de
    00001AAE 1E 02            [ 8] 6058 	ld	e, #0x02
    00001AB0 AF               [ 4] 6059 	xor	a, a
    00001AB1 CDr03r0C         [24] 6060 	call	_bg_draw_text
    00001AB4 C3rB0r1B         [16] 6061 	jp	00158$
    00001AB7                       6062 00135$:
                                   6063 ;kaijugaiden.c:1140: } else if (gs.boss_stun > 0) {
    00001AB7 FAr1Er00         [16] 6064 	ld	a, (#(_gs + 30) + 0)
    00001ABA B7               [ 4] 6065 	or	a, a
    00001ABB 28 17            [12] 6066 	jr	Z, 00132$
                                   6067 ;kaijugaiden.c:1141: bg_draw_text(0, 1, "STUN");
    00001ABD 11r56r1C         [12] 6068 	ld	de, #___str_19
    00001AC0 D5               [16] 6069 	push	de
    00001AC1 1E 01            [ 8] 6070 	ld	e, #0x01
    00001AC3 AF               [ 4] 6071 	xor	a, a
    00001AC4 CDr03r0C         [24] 6072 	call	_bg_draw_text
                                   6073 ;kaijugaiden.c:1142: bg_draw_text(0, 2, "PRESS ADVANTAGE");
    00001AC7 11r5Br1C         [12] 6074 	ld	de, #___str_20
    00001ACA D5               [16] 6075 	push	de
    00001ACB 1E 02            [ 8] 6076 	ld	e, #0x02
    00001ACD AF               [ 4] 6077 	xor	a, a
    00001ACE CDr03r0C         [24] 6078 	call	_bg_draw_text
    00001AD1 C3rB0r1B         [16] 6079 	jp	00158$
    00001AD4                       6080 00132$:
                                   6081 ;kaijugaiden.c:1143: } else if (gs.dodge_timer > 0) {
    00001AD4 FAr0Ar00         [16] 6082 	ld	a, (#(_gs + 10) + 0)
    00001AD7 B7               [ 4] 6083 	or	a, a
    00001AD8 28 17            [12] 6084 	jr	Z, 00129$
                                   6085 ;kaijugaiden.c:1144: bg_draw_text(0, 1, "DODGE");
    00001ADA 11r6Br1C         [12] 6086 	ld	de, #___str_21
    00001ADD D5               [16] 6087 	push	de
    00001ADE 1E 01            [ 8] 6088 	ld	e, #0x01
    00001AE0 AF               [ 4] 6089 	xor	a, a
    00001AE1 CDr03r0C         [24] 6090 	call	_bg_draw_text
                                   6091 ;kaijugaiden.c:1145: bg_draw_text(0, 2, "COUNTER WINDOW");
    00001AE4 11r71r1C         [12] 6092 	ld	de, #___str_22
    00001AE7 D5               [16] 6093 	push	de
    00001AE8 1E 02            [ 8] 6094 	ld	e, #0x02
    00001AEA AF               [ 4] 6095 	xor	a, a
    00001AEB CDr03r0C         [24] 6096 	call	_bg_draw_text
    00001AEE C3rB0r1B         [16] 6097 	jp	00158$
    00001AF1                       6098 00129$:
                                   6099 ;kaijugaiden.c:1146: } else if (gs.perfect_flash_timer > 0) {
    00001AF1 FAr13r00         [16] 6100 	ld	a, (#(_gs + 19) + 0)
    00001AF4 B7               [ 4] 6101 	or	a, a
    00001AF5 28 17            [12] 6102 	jr	Z, 00126$
                                   6103 ;kaijugaiden.c:1147: bg_draw_text(0, 1, "PERFECT");
    00001AF7 11r80r1C         [12] 6104 	ld	de, #___str_23
    00001AFA D5               [16] 6105 	push	de
    00001AFB 1E 01            [ 8] 6106 	ld	e, #0x01
    00001AFD AF               [ 4] 6107 	xor	a, a
    00001AFE CDr03r0C         [24] 6108 	call	_bg_draw_text
                                   6109 ;kaijugaiden.c:1148: bg_draw_text(0, 2, "CHAIN THE COMBO");
    00001B01 11r88r1C         [12] 6110 	ld	de, #___str_24
    00001B04 D5               [16] 6111 	push	de
    00001B05 1E 02            [ 8] 6112 	ld	e, #0x02
    00001B07 AF               [ 4] 6113 	xor	a, a
    00001B08 CDr03r0C         [24] 6114 	call	_bg_draw_text
    00001B0B C3rB0r1B         [16] 6115 	jp	00158$
    00001B0E                       6116 00126$:
                                   6117 ;kaijugaiden.c:1149: } else if (gs.nanocell_boost_timer > 0) {
    00001B0E FAr0Fr00         [16] 6118 	ld	a, (#(_gs + 15) + 0)
    00001B11 B7               [ 4] 6119 	or	a, a
    00001B12 28 28            [12] 6120 	jr	Z, 00123$
                                   6121 ;kaijugaiden.c:1150: bg_draw_text(0, 1, "POWER");
    00001B14 11r98r1C         [12] 6122 	ld	de, #___str_25
    00001B17 D5               [16] 6123 	push	de
    00001B18 1E 01            [ 8] 6124 	ld	e, #0x01
    00001B1A AF               [ 4] 6125 	xor	a, a
    00001B1B CDr03r0C         [24] 6126 	call	_bg_draw_text
                                   6127 ;kaijugaiden.c:1151: bg_draw_number_2(6, 1, (u8)(gs.nanocell_boost_timer / 10));
    00001B1E FAr0Fr00         [16] 6128 	ld	a, (#(_gs + 15) + 0)
    00001B21 1E 0A            [ 8] 6129 	ld	e, #0x0a
    00001B23 CDr00r00         [24] 6130 	call	__divuchar
    00001B26 79               [ 4] 6131 	ld	a, c
    00001B27 F5               [16] 6132 	push	af
    00001B28 33               [ 8] 6133 	inc	sp
    00001B29 1E 01            [ 8] 6134 	ld	e, #0x01
    00001B2B 3E 06            [ 8] 6135 	ld	a, #0x06
    00001B2D CDrD9r10         [24] 6136 	call	_bg_draw_number_2
                                   6137 ;kaijugaiden.c:1152: bg_draw_text(0, 2, "PRESS THE BOSS");
    00001B30 11r9Er1C         [12] 6138 	ld	de, #___str_26
    00001B33 D5               [16] 6139 	push	de
    00001B34 1E 02            [ 8] 6140 	ld	e, #0x02
    00001B36 AF               [ 4] 6141 	xor	a, a
    00001B37 CDr03r0C         [24] 6142 	call	_bg_draw_text
    00001B3A 18 74            [12] 6143 	jr	00158$
    00001B3C                       6144 00123$:
                                   6145 ;kaijugaiden.c:1154: bg_draw_text(0, 1, "PHASE");
    00001B3C 11rADr1C         [12] 6146 	ld	de, #___str_27
    00001B3F D5               [16] 6147 	push	de
    00001B40 1E 01            [ 8] 6148 	ld	e, #0x01
    00001B42 AF               [ 4] 6149 	xor	a, a
    00001B43 CDr03r0C         [24] 6150 	call	_bg_draw_text
                                   6151 ;kaijugaiden.c:1155: plat_set_bkg_tile(6, 1, TILE_FONT_0 + gs.boss_phase);
    00001B46 FAr15r00         [16] 6152 	ld	a, (#(_gs + 21) + 0)
    00001B49 C6 20            [ 8] 6153 	add	a, #0x20
                                   6154 ;kaijugaiden.c:146: set_bkg_tile_xy(x, y, tile);
    00001B4B F5               [16] 6155 	push	af
    00001B4C 33               [ 8] 6156 	inc	sp
    00001B4D 1E 01            [ 8] 6157 	ld	e, #0x01
    00001B4F 3E 06            [ 8] 6158 	ld	a, #0x06
    00001B51 CDr00r00         [24] 6159 	call	_set_bkg_tile_xy
                                   6160 ;kaijugaiden.c:1156: bg_draw_text(9, 1, "COMBO");
    00001B54 11rB3r1C         [12] 6161 	ld	de, #___str_28
    00001B57 D5               [16] 6162 	push	de
    00001B58 1E 01            [ 8] 6163 	ld	e, #0x01
    00001B5A 3E 09            [ 8] 6164 	ld	a, #0x09
    00001B5C CDr03r0C         [24] 6165 	call	_bg_draw_text
                                   6166 ;kaijugaiden.c:1157: bg_draw_number_2(15, 1, gs.combo_count);
    00001B5F FAr0Br00         [16] 6167 	ld	a, (#(_gs + 11) + 0)
    00001B62 F5               [16] 6168 	push	af
    00001B63 33               [ 8] 6169 	inc	sp
    00001B64 1E 01            [ 8] 6170 	ld	e, #0x01
    00001B66 3E 0F            [ 8] 6171 	ld	a, #0x0f
    00001B68 CDrD9r10         [24] 6172 	call	_bg_draw_number_2
                                   6173 ;kaijugaiden.c:1158: if (attack_hits_target((s16)(gs.player_x * TILE_W + 8), gs.player_facing, (s16)(gs.boss_x + 16), PLAYER_ATTACK_FRONT + 4, PLAYER_ATTACK_REAR))
    00001B6B 21r17r00         [12] 6174 	ld	hl, #(_gs + 23)
    00001B6E 2A               [ 8] 6175 	ld	a, (hl+)
    00001B6F 4F               [ 4] 6176 	ld	c, a
    00001B70 46               [ 8] 6177 	ld	b, (hl)
    00001B71 21 10 00         [12] 6178 	ld	hl, #0x0010
    00001B74 09               [ 8] 6179 	add	hl, bc
    00001B75 4D               [ 4] 6180 	ld	c, l
    00001B76 44               [ 4] 6181 	ld	b, h
    00001B77 FAr03r00         [16] 6182 	ld	a, (#(_gs + 3) + 0)
    00001B7A F8 03            [12] 6183 	ldhl	sp,	#3
    00001B7C 77               [ 8] 6184 	ld	(hl), a
    00001B7D FAr01r00         [16] 6185 	ld	a, (#(_gs + 1) + 0)
    00001B80 26 00            [ 8] 6186 	ld	h, #0x00
    00001B82 6F               [ 4] 6187 	ld	l, a
    00001B83 29               [ 8] 6188 	add	hl, hl
    00001B84 29               [ 8] 6189 	add	hl, hl
    00001B85 29               [ 8] 6190 	add	hl, hl
    00001B86 11 08 00         [12] 6191 	ld	de, #0x0008
    00001B89 19               [ 8] 6192 	add	hl, de
    00001B8A 5D               [ 4] 6193 	ld	e, l
    00001B8B 54               [ 4] 6194 	ld	d, h
    00001B8C 21 20 08         [12] 6195 	ld	hl, #0x820
    00001B8F E5               [16] 6196 	push	hl
    00001B90 C5               [16] 6197 	push	bc
    00001B91 F8 07            [12] 6198 	ldhl	sp,	#7
    00001B93 7E               [ 8] 6199 	ld	a, (hl)
    00001B94 CDr46r11         [24] 6200 	call	_attack_hits_target
    00001B97 B7               [ 4] 6201 	or	a, a
    00001B98 28 0C            [12] 6202 	jr	Z, 00120$
                                   6203 ;kaijugaiden.c:1159: bg_draw_text(0, 2, "BOSS IN RANGE");
    00001B9A 11rB9r1C         [12] 6204 	ld	de, #___str_29
    00001B9D D5               [16] 6205 	push	de
    00001B9E 1E 02            [ 8] 6206 	ld	e, #0x02
    00001BA0 AF               [ 4] 6207 	xor	a, a
    00001BA1 CDr03r0C         [24] 6208 	call	_bg_draw_text
    00001BA4 18 0A            [12] 6209 	jr	00158$
    00001BA6                       6210 00120$:
                                   6211 ;kaijugaiden.c:1161: bg_draw_text(0, 2, "SET YOUR ANGLE");
    00001BA6 11rC7r1C         [12] 6212 	ld	de, #___str_30
    00001BA9 D5               [16] 6213 	push	de
    00001BAA 1E 02            [ 8] 6214 	ld	e, #0x02
    00001BAC AF               [ 4] 6215 	xor	a, a
    00001BAD CDr03r0C         [24] 6216 	call	_bg_draw_text
    00001BB0                       6217 00158$:
                                   6218 ;kaijugaiden.c:1164: }
    00001BB0 E8 04            [16] 6219 	add	sp, #4
    00001BB2 C9               [16] 6220 	ret
    00001BB3                       6221 ___str_7:
    00001BB3 57 41 56 45           6222 	.ascii "WAVE"
    00001BB7 00                    6223 	.db 0x00
    00001BB8                       6224 ___str_8:
    00001BB8 46 4F 45              6225 	.ascii "FOE"
    00001BBB 00                    6226 	.db 0x00
    00001BBC                       6227 ___str_9:
    00001BBC 43 4C 45 41 52 20 54  6228 	.ascii "CLEAR TO DRAW BOSS"
             4F 20 44 52 41 57 20
             42 4F 53 53
    00001BCE 00                    6229 	.db 0x00
    00001BCF                       6230 ___str_10:
    00001BCF 4C 45 56 49 41 54 48  6231 	.ascii "LEVIATHAN RISES"
             41 4E 20 52 49 53 45
             53
    00001BDE 00                    6232 	.db 0x00
    00001BDF                       6233 ___str_11:
    00001BDF 57 41 56 45 20 42 52  6234 	.ascii "WAVE BROKEN"
             4F 4B 45 4E
    00001BEA 00                    6235 	.db 0x00
    00001BEB                       6236 ___str_12:
    00001BEB 44 4F 44 47 45 20 43  6237 	.ascii "DODGE CLEAN"
             4C 45 41 4E
    00001BF6 00                    6238 	.db 0x00
    00001BF7                       6239 ___str_13:
    00001BF7 50 45 52 46 45 43 54  6240 	.ascii "PERFECT STRIKE"
             20 53 54 52 49 4B 45
    00001C05 00                    6241 	.db 0x00
    00001C06                       6242 ___str_14:
    00001C06 46 49 4E 49 53 48 45  6243 	.ascii "FINISHER WINDOW"
             52 20 57 49 4E 44 4F
             57
    00001C15 00                    6244 	.db 0x00
    00001C16                       6245 ___str_15:
    00001C16 42 4F 53 53 20 53 54  6246 	.ascii "BOSS STUNNED"
             55 4E 4E 45 44
    00001C22 00                    6247 	.db 0x00
    00001C23                       6248 ___str_16:
    00001C23 44 55 45 4C 20 4C 49  6249 	.ascii "DUEL LIVE"
             56 45
    00001C2C 00                    6250 	.db 0x00
    00001C2D                       6251 ___str_17:
    00001C2D 44 41 4E 47 45 52 20  6252 	.ascii "DANGER STEP OR DODGE"
             53 54 45 50 20 4F 52
             20 44 4F 44 47 45
    00001C41 00                    6253 	.db 0x00
    00001C42                       6254 ___str_18:
    00001C42 4F 55 54 53 49 44 45  6255 	.ascii "OUTSIDE STRIKE EDGE"
             20 53 54 52 49 4B 45
             20 45 44 47 45
    00001C55 00                    6256 	.db 0x00
    00001C56                       6257 ___str_19:
    00001C56 53 54 55 4E           6258 	.ascii "STUN"
    00001C5A 00                    6259 	.db 0x00
    00001C5B                       6260 ___str_20:
    00001C5B 50 52 45 53 53 20 41  6261 	.ascii "PRESS ADVANTAGE"
             44 56 41 4E 54 41 47
             45
    00001C6A 00                    6262 	.db 0x00
    00001C6B                       6263 ___str_21:
    00001C6B 44 4F 44 47 45        6264 	.ascii "DODGE"
    00001C70 00                    6265 	.db 0x00
    00001C71                       6266 ___str_22:
    00001C71 43 4F 55 4E 54 45 52  6267 	.ascii "COUNTER WINDOW"
             20 57 49 4E 44 4F 57
    00001C7F 00                    6268 	.db 0x00
    00001C80                       6269 ___str_23:
    00001C80 50 45 52 46 45 43 54  6270 	.ascii "PERFECT"
    00001C87 00                    6271 	.db 0x00
    00001C88                       6272 ___str_24:
    00001C88 43 48 41 49 4E 20 54  6273 	.ascii "CHAIN THE COMBO"
             48 45 20 43 4F 4D 42
             4F
    00001C97 00                    6274 	.db 0x00
    00001C98                       6275 ___str_25:
    00001C98 50 4F 57 45 52        6276 	.ascii "POWER"
    00001C9D 00                    6277 	.db 0x00
    00001C9E                       6278 ___str_26:
    00001C9E 50 52 45 53 53 20 54  6279 	.ascii "PRESS THE BOSS"
             48 45 20 42 4F 53 53
    00001CAC 00                    6280 	.db 0x00
    00001CAD                       6281 ___str_27:
    00001CAD 50 48 41 53 45        6282 	.ascii "PHASE"
    00001CB2 00                    6283 	.db 0x00
    00001CB3                       6284 ___str_28:
    00001CB3 43 4F 4D 42 4F        6285 	.ascii "COMBO"
    00001CB8 00                    6286 	.db 0x00
    00001CB9                       6287 ___str_29:
    00001CB9 42 4F 53 53 20 49 4E  6288 	.ascii "BOSS IN RANGE"
             20 52 41 4E 47 45
    00001CC6 00                    6289 	.db 0x00
    00001CC7                       6290 ___str_30:
    00001CC7 53 45 54 20 59 4F 55  6291 	.ascii "SET YOUR ANGLE"
             52 20 41 4E 47 4C 45
    00001CD5 00                    6292 	.db 0x00
                                   6293 ;kaijugaiden.c:1185: static void spr_draw_rei(void) {
                                   6294 ;	---------------------------------
                                   6295 ; Function spr_draw_rei
                                   6296 ; ---------------------------------
    00001CD6                       6297 _spr_draw_rei:
    00001CD6 E8 EF            [16] 6298 	add	sp, #-17
                                   6299 ;kaijugaiden.c:1186: u8 base_tile = SPR_REI_IDLE;
    00001CD8 F8 00            [12] 6300 	ldhl	sp,	#0
    00001CDA 36 00            [12] 6301 	ld	(hl), #0x00
                                   6302 ;kaijugaiden.c:1187: if (gs.attack_timer > 0)       base_tile = SPR_REI_ATTACK;
    00001CDC FAr05r00         [16] 6303 	ld	a, (#(_gs + 5) + 0)
    00001CDF F8 0B            [12] 6304 	ldhl	sp,#11
    00001CE1 77               [ 8] 6305 	ld	(hl), a
    00001CE2 7E               [ 8] 6306 	ld	a, (hl)
    00001CE3 B7               [ 4] 6307 	or	a, a
    00001CE4 28 06            [12] 6308 	jr	Z, 00104$
    00001CE6 F8 00            [12] 6309 	ldhl	sp,	#0
    00001CE8 36 0C            [12] 6310 	ld	(hl), #0x0c
    00001CEA 18 0A            [12] 6311 	jr	00105$
    00001CEC                       6312 00104$:
                                   6313 ;kaijugaiden.c:1188: else if (gs.player_anim > 0)   base_tile = SPR_REI_RUN;
    00001CEC FAr04r00         [16] 6314 	ld	a, (#(_gs + 4) + 0)
    00001CEF B7               [ 4] 6315 	or	a, a
    00001CF0 28 04            [12] 6316 	jr	Z, 00105$
    00001CF2 F8 00            [12] 6317 	ldhl	sp,	#0
    00001CF4 36 06            [12] 6318 	ld	(hl), #0x06
    00001CF6                       6319 00105$:
                                   6320 ;kaijugaiden.c:1190: if (gs.hit_stun > 0 && (gs.anim_tick & 0x02)) return;
    00001CF6 FAr09r00         [16] 6321 	ld	a, (#(_gs + 9) + 0)
    00001CF9 F8 10            [12] 6322 	ldhl	sp,#16
    00001CFB 77               [ 8] 6323 	ld	(hl), a
    00001CFC 7E               [ 8] 6324 	ld	a, (hl)
    00001CFD B7               [ 4] 6325 	or	a, a
    00001CFE 28 08            [12] 6326 	jr	Z, 00107$
    00001D00 FAr76r00         [16] 6327 	ld	a, (#(_gs + 118) + 0)
    00001D03 CB 4F            [ 8] 6328 	bit	1, a
    00001D05 C2rD4r1E         [16] 6329 	jp	NZ, 00127$
    00001D08                       6330 00107$:
                                   6331 ;kaijugaiden.c:1191: if (gs.dodge_timer > 0 && (gs.anim_tick & 0x01)) return;
    00001D08 FAr0Ar00         [16] 6332 	ld	a, (#(_gs + 10) + 0)
    00001D0B B7               [ 4] 6333 	or	a, a
    00001D0C 28 07            [12] 6334 	jr	Z, 00110$
    00001D0E FAr76r00         [16] 6335 	ld	a, (#(_gs + 118) + 0)
    00001D11 0F               [ 4] 6336 	rrca
    00001D12 DArD4r1E         [16] 6337 	jp	C, 00127$
    00001D15                       6338 00110$:
                                   6339 ;kaijugaiden.c:1193: s16 bx = (s16)(gs.player_x * TILE_W);
    00001D15 FAr01r00         [16] 6340 	ld	a, (#(_gs + 1) + 0)
    00001D18 F8 10            [12] 6341 	ldhl	sp,#16
    00001D1A 77               [ 8] 6342 	ld	(hl), a
    00001D1B 3A               [ 8] 6343 	ld	a, (hl-)
    00001D1C 22               [ 8] 6344 	ld	(hl+), a
    00001D1D 36 00            [12] 6345 	ld	(hl), #0x00
    00001D1F 3E 03            [ 8] 6346 	ld	a, #0x03
    00001D21                       6347 00220$:
    00001D21 F8 0F            [12] 6348 	ldhl	sp,	#15
    00001D23 CB 26            [16] 6349 	sla	(hl)
    00001D25 23               [ 8] 6350 	inc	hl
    00001D26 CB 16            [16] 6351 	rl	(hl)
    00001D28 3D               [ 4] 6352 	dec	a
    00001D29 20 F6            [12] 6353 	jr	NZ, 00220$
    00001D2B 2B               [ 8] 6354 	dec	hl
    00001D2C 7E               [ 8] 6355 	ld	a, (hl)
    00001D2D F8 0C            [12] 6356 	ldhl	sp,	#12
    00001D2F 77               [ 8] 6357 	ld	(hl), a
    00001D30 F8 10            [12] 6358 	ldhl	sp,	#16
    00001D32 7E               [ 8] 6359 	ld	a, (hl)
    00001D33 F8 0D            [12] 6360 	ldhl	sp,	#13
    00001D35 77               [ 8] 6361 	ld	(hl), a
                                   6362 ;kaijugaiden.c:1194: s16 by = (s16)(gs.player_y - 16);  /* anchor at feet */
    00001D36 FAr02r00         [16] 6363 	ld	a, (#(_gs + 2) + 0)
    00001D39 F8 10            [12] 6364 	ldhl	sp,#16
    00001D3B 77               [ 8] 6365 	ld	(hl), a
    00001D3C 7E               [ 8] 6366 	ld	a, (hl)
    00001D3D F8 09            [12] 6367 	ldhl	sp,	#9
    00001D3F 22               [ 8] 6368 	ld	(hl+), a
    00001D40 AF               [ 4] 6369 	xor	a, a
    00001D41 32               [ 8] 6370 	ld	(hl-), a
    00001D42 2A               [ 8] 6371 	ld	a, (hl+)
    00001D43 5F               [ 4] 6372 	ld	e, a
    00001D44 56               [ 8] 6373 	ld	d, (hl)
    00001D45 21 10 00         [12] 6374 	ld	hl, #0x0010
    00001D48 7B               [ 4] 6375 	ld	a, e
    00001D49 95               [ 4] 6376 	sub	a, l
    00001D4A 5F               [ 4] 6377 	ld	e, a
    00001D4B 7A               [ 4] 6378 	ld	a, d
    00001D4C 9C               [ 4] 6379 	sbc	a, h
    00001D4D F8 10            [12] 6380 	ldhl	sp,	#16
    00001D4F 32               [ 8] 6381 	ld	(hl-), a
    00001D50 73               [ 8] 6382 	ld	(hl), e
                                   6383 ;kaijugaiden.c:1195: if (gs.attack_queued && gs.attack_timer <= ATTACK_ACTIVE_FRAME) {
    00001D51 FAr06r00         [16] 6384 	ld	a, (#(_gs + 6) + 0)
                                   6385 ;kaijugaiden.c:1196: bx += gs.player_facing ? -2 : 2;
                                   6386 ;kaijugaiden.c:1195: if (gs.attack_queued && gs.attack_timer <= ATTACK_ACTIVE_FRAME) {
    00001D54 F8 0E            [12] 6387 	ldhl	sp,#14
    00001D56 77               [ 8] 6388 	ld	(hl), a
    00001D57 7E               [ 8] 6389 	ld	a, (hl)
    00001D58 B7               [ 4] 6390 	or	a, a
    00001D59 28 21            [12] 6391 	jr	Z, 00113$
    00001D5B 3E 08            [ 8] 6392 	ld	a, #0x08
    00001D5D F8 0B            [12] 6393 	ldhl	sp,	#11
    00001D5F 96               [ 8] 6394 	sub	a, (hl)
    00001D60 38 1A            [12] 6395 	jr	C, 00113$
                                   6396 ;kaijugaiden.c:1196: bx += gs.player_facing ? -2 : 2;
    00001D62 FAr03r00         [16] 6397 	ld	a, (#(_gs + 3) + 0)
    00001D65 B7               [ 4] 6398 	or	a, a
    00001D66 28 05            [12] 6399 	jr	Z, 00129$
    00001D68 01 FE FF         [12] 6400 	ld	bc, #0xfffe
    00001D6B 18 03            [12] 6401 	jr	00130$
    00001D6D                       6402 00129$:
    00001D6D 01 02 00         [12] 6403 	ld	bc, #0x0002
    00001D70                       6404 00130$:
    00001D70 F8 0C            [12] 6405 	ldhl	sp,	#12
    00001D72 2A               [ 8] 6406 	ld	a, (hl+)
    00001D73 5E               [ 8] 6407 	ld	e, (hl)
    00001D74 2B               [ 8] 6408 	dec	hl
    00001D75 81               [ 4] 6409 	add	a, c
    00001D76 4F               [ 4] 6410 	ld	c, a
    00001D77 7B               [ 4] 6411 	ld	a, e
    00001D78 88               [ 4] 6412 	adc	a, b
    00001D79 71               [ 8] 6413 	ld	(hl), c
    00001D7A 23               [ 8] 6414 	inc	hl
    00001D7B 77               [ 8] 6415 	ld	(hl), a
    00001D7C                       6416 00113$:
                                   6417 ;kaijugaiden.c:1198: bx = camera_apply_x(bx);
    00001D7C F8 0C            [12] 6418 	ldhl	sp,	#12
    00001D7E 2A               [ 8] 6419 	ld	a, (hl+)
    00001D7F 5F               [ 4] 6420 	ld	e, a
    00001D80 56               [ 8] 6421 	ld	d, (hl)
    00001D81 CDrF9r12         [24] 6422 	call	_camera_apply_x
    00001D84 F8 01            [12] 6423 	ldhl	sp,	#1
    00001D86 79               [ 4] 6424 	ld	a, c
    00001D87 22               [ 8] 6425 	ld	(hl+), a
    00001D88 70               [ 8] 6426 	ld	(hl), b
                                   6427 ;kaijugaiden.c:1199: by = camera_apply_y(by);
    00001D89 F8 0F            [12] 6428 	ldhl	sp,	#15
    00001D8B 2A               [ 8] 6429 	ld	a, (hl+)
    00001D8C 5F               [ 4] 6430 	ld	e, a
    00001D8D 56               [ 8] 6431 	ld	d, (hl)
    00001D8E CDr14r13         [24] 6432 	call	_camera_apply_y
    00001D91 F8 03            [12] 6433 	ldhl	sp,	#3
    00001D93 79               [ 4] 6434 	ld	a, c
    00001D94 22               [ 8] 6435 	ld	(hl+), a
    00001D95 70               [ 8] 6436 	ld	(hl), b
                                   6437 ;kaijugaiden.c:1200: u8 flip = gs.player_facing ? 0x20 : 0x00;  /* flag bit 5 = X-flip */
    00001D96 FAr03r00         [16] 6438 	ld	a, (#(_gs + 3) + 0)
    00001D99 F8 10            [12] 6439 	ldhl	sp,#16
    00001D9B 77               [ 8] 6440 	ld	(hl), a
    00001D9C 7E               [ 8] 6441 	ld	a, (hl)
    00001D9D B7               [ 4] 6442 	or	a, a
    00001D9E 28 04            [12] 6443 	jr	Z, 00131$
    00001DA0 36 20            [12] 6444 	ld	(hl), #0x20
    00001DA2 18 04            [12] 6445 	jr	00132$
    00001DA4                       6446 00131$:
    00001DA4 F8 10            [12] 6447 	ldhl	sp,	#16
    00001DA6 36 00            [12] 6448 	ld	(hl), #0x00
    00001DA8                       6449 00132$:
    00001DA8 F8 10            [12] 6450 	ldhl	sp,	#16
    00001DAA 7E               [ 8] 6451 	ld	a, (hl)
    00001DAB F8 05            [12] 6452 	ldhl	sp,	#5
    00001DAD 77               [ 8] 6453 	ld	(hl), a
                                   6454 ;kaijugaiden.c:1203: for (u8 row = 0; row < 3; ++row) {
    00001DAE F8 10            [12] 6455 	ldhl	sp,	#16
    00001DB0 36 00            [12] 6456 	ld	(hl), #0x00
    00001DB2                       6457 00125$:
    00001DB2 F8 10            [12] 6458 	ldhl	sp,	#16
    00001DB4 7E               [ 8] 6459 	ld	a, (hl)
    00001DB5 D6 03            [ 8] 6460 	sub	a, #0x03
    00001DB7 D2rD4r1E         [16] 6461 	jp	NC, 00127$
                                   6462 ;kaijugaiden.c:1204: plat_set_sprite(row * 2,     bx,            (u8)(by + row * 8), base_tile + row * 2,     flip);
    00001DBA 4E               [ 8] 6463 	ld	c, (hl)
    00001DBB 79               [ 4] 6464 	ld	a, c
    00001DBC 87               [ 4] 6465 	add	a, a
    00001DBD F8 06            [12] 6466 	ldhl	sp,	#6
    00001DBF 77               [ 8] 6467 	ld	(hl), a
    00001DC0 F8 00            [12] 6468 	ldhl	sp,	#0
    00001DC2 7E               [ 8] 6469 	ld	a, (hl)
    00001DC3 F8 06            [12] 6470 	ldhl	sp,	#6
    00001DC5 86               [ 8] 6471 	add	a, (hl)
    00001DC6 23               [ 8] 6472 	inc	hl
    00001DC7 77               [ 8] 6473 	ld	(hl), a
    00001DC8 2A               [ 8] 6474 	ld	a, (hl+)
    00001DC9 77               [ 8] 6475 	ld	(hl), a
    00001DCA F8 03            [12] 6476 	ldhl	sp,	#3
    00001DCC 46               [ 8] 6477 	ld	b, (hl)
    00001DCD 79               [ 4] 6478 	ld	a, c
    00001DCE 87               [ 4] 6479 	add	a, a
    00001DCF 87               [ 4] 6480 	add	a, a
    00001DD0 87               [ 4] 6481 	add	a, a
    00001DD1 80               [ 4] 6482 	add	a, b
    00001DD2 F8 09            [12] 6483 	ldhl	sp,	#9
    00001DD4 77               [ 8] 6484 	ld	(hl), a
    00001DD5 4E               [ 8] 6485 	ld	c, (hl)
    00001DD6 F8 01            [12] 6486 	ldhl	sp,	#1
    00001DD8 46               [ 8] 6487 	ld	b, (hl)
    00001DD9 F8 10            [12] 6488 	ldhl	sp,	#16
    00001DDB 7E               [ 8] 6489 	ld	a, (hl)
    00001DDC 87               [ 4] 6490 	add	a, a
    00001DDD 5F               [ 4] 6491 	ld	e, a
                                   6492 ;kaijugaiden.c:149: move_sprite(id, x + 8, y + 16);   /* GBDK uses offset convention */
    00001DDE 79               [ 4] 6493 	ld	a, c
    00001DDF C6 10            [ 8] 6494 	add	a, #0x10
    00001DE1 F8 0A            [12] 6495 	ldhl	sp,	#10
    00001DE3 22               [ 8] 6496 	ld	(hl+), a
    00001DE4 78               [ 4] 6497 	ld	a, b
    00001DE5 C6 08            [ 8] 6498 	add	a, #0x08
                                   6499 ;c:\users\rrcar\documents\driptech\.tools\gbdk\gbdk\include\gb\gb.h:1973: OAM_item_t * itm = &shadow_OAM[nb];
    00001DE7 22               [ 8] 6500 	ld	(hl+), a
    00001DE8 AF               [ 4] 6501 	xor	a, a
    00001DE9 CB 23            [ 8] 6502 	sla	e
    00001DEB 8F               [ 4] 6503 	adc	a, a
    00001DEC CB 23            [ 8] 6504 	sla	e
    00001DEE 8F               [ 4] 6505 	adc	a, a
    00001DEF 73               [ 8] 6506 	ld	(hl), e
    00001DF0 23               [ 8] 6507 	inc	hl
    00001DF1 77               [ 8] 6508 	ld	(hl), a
    00001DF2 11r00r00         [12] 6509 	ld	de, #_shadow_OAM
    00001DF5 3A               [ 8] 6510 	ld	a, (hl-)
    00001DF6 6E               [ 8] 6511 	ld	l, (hl)
    00001DF7 67               [ 4] 6512 	ld	h, a
    00001DF8 19               [ 8] 6513 	add	hl, de
    00001DF9 E5               [16] 6514 	push	hl
    00001DFA 7D               [ 4] 6515 	ld	a, l
    00001DFB F8 10            [12] 6516 	ldhl	sp,	#16
    00001DFD 77               [ 8] 6517 	ld	(hl), a
    00001DFE E1               [12] 6518 	pop	hl
    00001DFF 7C               [ 4] 6519 	ld	a, h
    00001E00 F8 0F            [12] 6520 	ldhl	sp,	#15
                                   6521 ;c:\users\rrcar\documents\driptech\.tools\gbdk\gbdk\include\gb\gb.h:1974: itm->y=y, itm->x=x;
    00001E02 32               [ 8] 6522 	ld	(hl-), a
    00001E03 2A               [ 8] 6523 	ld	a, (hl+)
    00001E04 5F               [ 4] 6524 	ld	e, a
    00001E05 56               [ 8] 6525 	ld	d, (hl)
    00001E06 F8 0A            [12] 6526 	ldhl	sp,	#10
    00001E08 7E               [ 8] 6527 	ld	a, (hl)
    00001E09 12               [ 8] 6528 	ld	(de), a
    00001E0A F8 0E            [12] 6529 	ldhl	sp,	#14
    00001E0C 2A               [ 8] 6530 	ld	a, (hl+)
    00001E0D 4F               [ 4] 6531 	ld	c, a
    00001E0E 46               [ 8] 6532 	ld	b, (hl)
    00001E0F 03               [ 8] 6533 	inc	bc
    00001E10 F8 0B            [12] 6534 	ldhl	sp,	#11
                                   6535 ;c:\users\rrcar\documents\driptech\.tools\gbdk\gbdk\include\gb\gb.h:1887: shadow_OAM[nb].tile=tile;
    00001E12 2A               [ 8] 6536 	ld	a, (hl+)
    00001E13 02               [ 8] 6537 	ld	(bc), a
    00001E14 11r00r00         [12] 6538 	ld	de, #_shadow_OAM
    00001E17 2A               [ 8] 6539 	ld	a,	(hl+)
    00001E18 66               [ 8] 6540 	ld	h, (hl)
    00001E19 6F               [ 4] 6541 	ld	l, a
    00001E1A 19               [ 8] 6542 	add	hl, de
    00001E1B 23               [ 8] 6543 	inc	hl
    00001E1C 23               [ 8] 6544 	inc	hl
    00001E1D 4D               [ 4] 6545 	ld	c, l
    00001E1E 44               [ 4] 6546 	ld	b, h
    00001E1F F8 08            [12] 6547 	ldhl	sp,	#8
    00001E21 7E               [ 8] 6548 	ld	a, (hl)
    00001E22 02               [ 8] 6549 	ld	(bc), a
                                   6550 ;c:\users\rrcar\documents\driptech\.tools\gbdk\gbdk\include\gb\gb.h:1946: shadow_OAM[nb].prop=prop;
    00001E23 11r00r00         [12] 6551 	ld	de, #_shadow_OAM
    00001E26 F8 0C            [12] 6552 	ldhl	sp,	#12
    00001E28 2A               [ 8] 6553 	ld	a,	(hl+)
    00001E29 66               [ 8] 6554 	ld	h, (hl)
    00001E2A 6F               [ 4] 6555 	ld	l, a
    00001E2B 19               [ 8] 6556 	add	hl, de
    00001E2C E5               [16] 6557 	push	hl
    00001E2D 7D               [ 4] 6558 	ld	a, l
    00001E2E F8 10            [12] 6559 	ldhl	sp,	#16
    00001E30 77               [ 8] 6560 	ld	(hl), a
    00001E31 E1               [12] 6561 	pop	hl
    00001E32 7C               [ 4] 6562 	ld	a, h
    00001E33 F8 0F            [12] 6563 	ldhl	sp,	#15
    00001E35 32               [ 8] 6564 	ld	(hl-), a
    00001E36 2A               [ 8] 6565 	ld	a, (hl+)
    00001E37 5F               [ 4] 6566 	ld	e, a
    00001E38 56               [ 8] 6567 	ld	d, (hl)
    00001E39 21 03 00         [12] 6568 	ld	hl, #0x0003
    00001E3C 19               [ 8] 6569 	add	hl, de
    00001E3D E5               [16] 6570 	push	hl
    00001E3E 7D               [ 4] 6571 	ld	a, l
    00001E3F F8 0E            [12] 6572 	ldhl	sp,	#14
    00001E41 77               [ 8] 6573 	ld	(hl), a
    00001E42 E1               [12] 6574 	pop	hl
    00001E43 7C               [ 4] 6575 	ld	a, h
    00001E44 F8 0D            [12] 6576 	ldhl	sp,	#13
    00001E46 32               [ 8] 6577 	ld	(hl-), a
    00001E47 2A               [ 8] 6578 	ld	a, (hl+)
    00001E48 5F               [ 4] 6579 	ld	e, a
    00001E49 56               [ 8] 6580 	ld	d, (hl)
    00001E4A F8 05            [12] 6581 	ldhl	sp,	#5
                                   6582 ;kaijugaiden.c:1205: plat_set_sprite(row * 2 + 1, bx + TILE_W,  (u8)(by + row * 8), base_tile + row * 2 + 1, flip);
    00001E4C 2A               [ 8] 6583 	ld	a, (hl+)
    00001E4D 23               [ 8] 6584 	inc	hl
    00001E4E 12               [ 8] 6585 	ld	(de), a
    00001E4F 7E               [ 8] 6586 	ld	a, (hl)
    00001E50 3C               [ 4] 6587 	inc	a
    00001E51 F8 0F            [12] 6588 	ldhl	sp,	#15
    00001E53 77               [ 8] 6589 	ld	(hl), a
    00001E54 F8 01            [12] 6590 	ldhl	sp,	#1
    00001E56 7E               [ 8] 6591 	ld	a, (hl)
    00001E57 C6 08            [ 8] 6592 	add	a, #0x08
    00001E59 4F               [ 4] 6593 	ld	c, a
    00001E5A F8 06            [12] 6594 	ldhl	sp,	#6
    00001E5C 46               [ 8] 6595 	ld	b, (hl)
    00001E5D 04               [ 4] 6596 	inc	b
                                   6597 ;kaijugaiden.c:149: move_sprite(id, x + 8, y + 16);   /* GBDK uses offset convention */
    00001E5E F8 09            [12] 6598 	ldhl	sp,	#9
    00001E60 7E               [ 8] 6599 	ld	a, (hl)
    00001E61 C6 10            [ 8] 6600 	add	a, #0x10
    00001E63 22               [ 8] 6601 	ld	(hl+), a
    00001E64 79               [ 4] 6602 	ld	a, c
    00001E65 C6 08            [ 8] 6603 	add	a, #0x08
                                   6604 ;c:\users\rrcar\documents\driptech\.tools\gbdk\gbdk\include\gb\gb.h:1973: OAM_item_t * itm = &shadow_OAM[nb];
    00001E67 22               [ 8] 6605 	ld	(hl+), a
    00001E68 AF               [ 4] 6606 	xor	a, a
    00001E69 CB 20            [ 8] 6607 	sla	b
    00001E6B 8F               [ 4] 6608 	adc	a, a
    00001E6C CB 20            [ 8] 6609 	sla	b
    00001E6E 8F               [ 4] 6610 	adc	a, a
    00001E6F 70               [ 8] 6611 	ld	(hl), b
    00001E70 23               [ 8] 6612 	inc	hl
    00001E71 77               [ 8] 6613 	ld	(hl), a
    00001E72 11r00r00         [12] 6614 	ld	de, #_shadow_OAM
    00001E75 3A               [ 8] 6615 	ld	a, (hl-)
    00001E76 6E               [ 8] 6616 	ld	l, (hl)
    00001E77 67               [ 4] 6617 	ld	h, a
    00001E78 19               [ 8] 6618 	add	hl, de
    00001E79 E5               [16] 6619 	push	hl
    00001E7A 7D               [ 4] 6620 	ld	a, l
    00001E7B F8 0F            [12] 6621 	ldhl	sp,	#15
    00001E7D 77               [ 8] 6622 	ld	(hl), a
    00001E7E E1               [12] 6623 	pop	hl
    00001E7F 7C               [ 4] 6624 	ld	a, h
    00001E80 F8 0E            [12] 6625 	ldhl	sp,	#14
                                   6626 ;c:\users\rrcar\documents\driptech\.tools\gbdk\gbdk\include\gb\gb.h:1974: itm->y=y, itm->x=x;
    00001E82 32               [ 8] 6627 	ld	(hl-), a
    00001E83 2A               [ 8] 6628 	ld	a, (hl+)
    00001E84 5F               [ 4] 6629 	ld	e, a
    00001E85 56               [ 8] 6630 	ld	d, (hl)
    00001E86 F8 09            [12] 6631 	ldhl	sp,	#9
    00001E88 7E               [ 8] 6632 	ld	a, (hl)
    00001E89 12               [ 8] 6633 	ld	(de), a
    00001E8A F8 0D            [12] 6634 	ldhl	sp,	#13
    00001E8C 2A               [ 8] 6635 	ld	a, (hl+)
    00001E8D 4F               [ 4] 6636 	ld	c, a
    00001E8E 46               [ 8] 6637 	ld	b, (hl)
    00001E8F 03               [ 8] 6638 	inc	bc
    00001E90 F8 0A            [12] 6639 	ldhl	sp,	#10
                                   6640 ;c:\users\rrcar\documents\driptech\.tools\gbdk\gbdk\include\gb\gb.h:1887: shadow_OAM[nb].tile=tile;
    00001E92 2A               [ 8] 6641 	ld	a, (hl+)
    00001E93 02               [ 8] 6642 	ld	(bc), a
    00001E94 11r00r00         [12] 6643 	ld	de, #_shadow_OAM
    00001E97 2A               [ 8] 6644 	ld	a,	(hl+)
    00001E98 66               [ 8] 6645 	ld	h, (hl)
    00001E99 6F               [ 4] 6646 	ld	l, a
    00001E9A 19               [ 8] 6647 	add	hl, de
    00001E9B 23               [ 8] 6648 	inc	hl
    00001E9C 23               [ 8] 6649 	inc	hl
    00001E9D 4D               [ 4] 6650 	ld	c, l
    00001E9E 44               [ 4] 6651 	ld	b, h
    00001E9F F8 0F            [12] 6652 	ldhl	sp,	#15
    00001EA1 7E               [ 8] 6653 	ld	a, (hl)
    00001EA2 02               [ 8] 6654 	ld	(bc), a
                                   6655 ;c:\users\rrcar\documents\driptech\.tools\gbdk\gbdk\include\gb\gb.h:1946: shadow_OAM[nb].prop=prop;
    00001EA3 11r00r00         [12] 6656 	ld	de, #_shadow_OAM
    00001EA6 F8 0B            [12] 6657 	ldhl	sp,	#11
    00001EA8 2A               [ 8] 6658 	ld	a,	(hl+)
    00001EA9 66               [ 8] 6659 	ld	h, (hl)
    00001EAA 6F               [ 4] 6660 	ld	l, a
    00001EAB 19               [ 8] 6661 	add	hl, de
    00001EAC E5               [16] 6662 	push	hl
    00001EAD 7D               [ 4] 6663 	ld	a, l
    00001EAE F8 10            [12] 6664 	ldhl	sp,	#16
    00001EB0 77               [ 8] 6665 	ld	(hl), a
    00001EB1 E1               [12] 6666 	pop	hl
    00001EB2 7C               [ 4] 6667 	ld	a, h
    00001EB3 F8 0F            [12] 6668 	ldhl	sp,	#15
    00001EB5 32               [ 8] 6669 	ld	(hl-), a
    00001EB6 2A               [ 8] 6670 	ld	a, (hl+)
    00001EB7 5F               [ 4] 6671 	ld	e, a
    00001EB8 56               [ 8] 6672 	ld	d, (hl)
    00001EB9 21 03 00         [12] 6673 	ld	hl, #0x0003
    00001EBC 19               [ 8] 6674 	add	hl, de
    00001EBD E5               [16] 6675 	push	hl
    00001EBE 7D               [ 4] 6676 	ld	a, l
    00001EBF F8 0E            [12] 6677 	ldhl	sp,	#14
    00001EC1 77               [ 8] 6678 	ld	(hl), a
    00001EC2 E1               [12] 6679 	pop	hl
    00001EC3 7C               [ 4] 6680 	ld	a, h
    00001EC4 F8 0D            [12] 6681 	ldhl	sp,	#13
    00001EC6 32               [ 8] 6682 	ld	(hl-), a
    00001EC7 2A               [ 8] 6683 	ld	a, (hl+)
    00001EC8 5F               [ 4] 6684 	ld	e, a
    00001EC9 56               [ 8] 6685 	ld	d, (hl)
    00001ECA F8 05            [12] 6686 	ldhl	sp,	#5
    00001ECC 7E               [ 8] 6687 	ld	a, (hl)
    00001ECD 12               [ 8] 6688 	ld	(de), a
                                   6689 ;kaijugaiden.c:1203: for (u8 row = 0; row < 3; ++row) {
    00001ECE F8 10            [12] 6690 	ldhl	sp,	#16
    00001ED0 34               [12] 6691 	inc	(hl)
    00001ED1 C3rB2r1D         [16] 6692 	jp	00125$
    00001ED4                       6693 00127$:
                                   6694 ;kaijugaiden.c:1207: }
    00001ED4 E8 11            [16] 6695 	add	sp, #17
    00001ED6 C9               [16] 6696 	ret
                                   6697 ;kaijugaiden.c:1211: static void spr_draw_boss(void) {
                                   6698 ;	---------------------------------
                                   6699 ; Function spr_draw_boss
                                   6700 ; ---------------------------------
    00001ED7                       6701 _spr_draw_boss:
    00001ED7 E8 F8            [16] 6702 	add	sp, #-8
                                   6703 ;kaijugaiden.c:1212: if (gs.boss_phase == 0) return;
    00001ED9 FAr15r00         [16] 6704 	ld	a, (#(_gs + 21) + 0)
    00001EDC B7               [ 4] 6705 	or	a, a
    00001EDD CAr14r20         [16] 6706 	jp	Z, 00132$
                                   6707 ;kaijugaiden.c:1213: u8 base_tile = (gs.boss_phase == 1) ? SPR_BOSS_A
    00001EE0 FE 01            [ 8] 6708 	cp	a, #0x01
    00001EE2 20 04            [12] 6709 	jr	NZ, 00134$
    00001EE4 1E 12            [ 8] 6710 	ld	e, #0x12
    00001EE6 18 08            [12] 6711 	jr	00135$
    00001EE8                       6712 00134$:
    00001EE8 D6 02            [ 8] 6713 	sub	a, #0x02
    00001EEA 1E 1A            [ 8] 6714 	ld	e, #0x1a
    00001EEC 28 02            [12] 6715 	jr	Z, 00137$
    00001EEE 1E 22            [ 8] 6716 	ld	e, #0x22
    00001EF0                       6717 00137$:
    00001EF0                       6718 00135$:
    00001EF0 4B               [ 4] 6719 	ld	c, e
                                   6720 ;kaijugaiden.c:1215: s16 bx = gs.boss_x;
    00001EF1 11r17r00         [12] 6721 	ld	de, #(_gs + 23)
    00001EF4 1A               [ 8] 6722 	ld	a, (de)
    00001EF5 F8 04            [12] 6723 	ldhl	sp,	#4
    00001EF7 22               [ 8] 6724 	ld	(hl+), a
    00001EF8 13               [ 8] 6725 	inc	de
    00001EF9 1A               [ 8] 6726 	ld	a, (de)
                                   6727 ;kaijugaiden.c:1216: s16 by = (s16)(SCR_H - 16 - 32);  /* boss stands near ground, two tile rows tall */
    00001EFA 22               [ 8] 6728 	ld	(hl+), a
    00001EFB 3E 60            [ 8] 6729 	ld	a, #0x60
    00001EFD 22               [ 8] 6730 	ld	(hl+), a
    00001EFE AF               [ 4] 6731 	xor	a, a
    00001EFF 77               [ 8] 6732 	ld	(hl), a
                                   6733 ;kaijugaiden.c:1217: if (!gs.boss_awake) {
    00001F00 21r14r00         [12] 6734 	ld	hl, #_gs + 20
    00001F03 46               [ 8] 6735 	ld	b, (hl)
                                   6736 ;kaijugaiden.c:1219: if (gs.anim_tick & 0x04) return;
                                   6737 ;kaijugaiden.c:1217: if (!gs.boss_awake) {
    00001F04 78               [ 4] 6738 	ld	a, b
    00001F05 B7               [ 4] 6739 	or	a, a
    00001F06 20 11            [12] 6740 	jr	NZ, 00118$
                                   6741 ;kaijugaiden.c:1218: by += 4;
    00001F08 F8 06            [12] 6742 	ldhl	sp,	#6
    00001F0A 3E 64            [ 8] 6743 	ld	a, #0x64
    00001F0C 22               [ 8] 6744 	ld	(hl+), a
    00001F0D AF               [ 4] 6745 	xor	a, a
    00001F0E 77               [ 8] 6746 	ld	(hl), a
                                   6747 ;kaijugaiden.c:1219: if (gs.anim_tick & 0x04) return;
    00001F0F FAr76r00         [16] 6748 	ld	a, (#(_gs + 118) + 0)
    00001F12 CB 57            [ 8] 6749 	bit	2, a
    00001F14 28 6F            [12] 6750 	jr	Z, 00119$
    00001F16 C3r14r20         [16] 6751 	jp	00132$
    00001F19                       6752 00118$:
                                   6753 ;kaijugaiden.c:1220: } else if (gs.boss_windup > 0) {
    00001F19 FAr1Cr00         [16] 6754 	ld	a, (#(_gs + 28) + 0)
    00001F1C B7               [ 4] 6755 	or	a, a
    00001F1D 28 46            [12] 6756 	jr	Z, 00115$
                                   6757 ;kaijugaiden.c:1221: if (gs.boss_atk_type == BOSS_ATK_SLAM) by += 4;
    00001F1F 21r1Br00         [12] 6758 	ld	hl, #_gs + 27
    00001F22 46               [ 8] 6759 	ld	b, (hl)
    00001F23 78               [ 4] 6760 	ld	a, b
    00001F24 D6 02            [ 8] 6761 	sub	a, #0x02
    00001F26 20 09            [12] 6762 	jr	NZ, 00109$
    00001F28 F8 06            [12] 6763 	ldhl	sp,	#6
    00001F2A 3E 64            [ 8] 6764 	ld	a, #0x64
    00001F2C 22               [ 8] 6765 	ld	(hl+), a
    00001F2D AF               [ 4] 6766 	xor	a, a
    00001F2E 77               [ 8] 6767 	ld	(hl), a
    00001F2F 18 54            [12] 6768 	jr	00119$
    00001F31                       6769 00109$:
                                   6770 ;kaijugaiden.c:1219: if (gs.anim_tick & 0x04) return;
    00001F31 FAr76r00         [16] 6771 	ld	a, (#(_gs + 118) + 0)
                                   6772 ;kaijugaiden.c:1222: else if (gs.boss_atk_type == BOSS_ATK_SWEEP) bx += (gs.anim_tick & 0x02) ? -2 : 2;
    00001F34 E6 02            [ 8] 6773 	and	a, #0x02
    00001F36 1E 00            [ 8] 6774 	ld	e, #0x00
    00001F38 04               [ 4] 6775 	inc	b
    00001F39 05               [ 4] 6776 	dec	b
    00001F3A 20 1A            [12] 6777 	jr	NZ, 00106$
    00001F3C B3               [ 4] 6778 	or	a, e
    00001F3D 28 05            [12] 6779 	jr	Z, 00138$
    00001F3F 11 FE FF         [12] 6780 	ld	de, #0xfffe
    00001F42 18 03            [12] 6781 	jr	00139$
    00001F44                       6782 00138$:
    00001F44 11 02 00         [12] 6783 	ld	de, #0x0002
    00001F47                       6784 00139$:
    00001F47 F8 04            [12] 6785 	ldhl	sp,	#4
    00001F49 2A               [ 8] 6786 	ld	a, (hl+)
    00001F4A 46               [ 8] 6787 	ld	b, (hl)
    00001F4B 2B               [ 8] 6788 	dec	hl
    00001F4C 83               [ 4] 6789 	add	a, e
    00001F4D 5F               [ 4] 6790 	ld	e, a
    00001F4E 78               [ 4] 6791 	ld	a, b
    00001F4F 8A               [ 4] 6792 	adc	a, d
    00001F50 57               [ 4] 6793 	ld	d, a
    00001F51 7B               [ 4] 6794 	ld	a, e
    00001F52 22               [ 8] 6795 	ld	(hl+), a
    00001F53 72               [ 8] 6796 	ld	(hl), d
    00001F54 18 2F            [12] 6797 	jr	00119$
    00001F56                       6798 00106$:
                                   6799 ;kaijugaiden.c:1223: else by += (gs.anim_tick & 0x02) ? 1 : 0;
    00001F56 B3               [ 4] 6800 	or	a, e
    00001F57 3E 01            [ 8] 6801 	ld	a, #0x01
    00001F59 20 01            [12] 6802 	jr	NZ, 00141$
    00001F5B AF               [ 4] 6803 	xor	a, a
    00001F5C                       6804 00141$:
    00001F5C C6 60            [ 8] 6805 	add	a, #0x60
    00001F5E F8 06            [12] 6806 	ldhl	sp,	#6
    00001F60 22               [ 8] 6807 	ld	(hl+), a
    00001F61 36 00            [12] 6808 	ld	(hl), #0x00
    00001F63 18 20            [12] 6809 	jr	00119$
    00001F65                       6810 00115$:
                                   6811 ;kaijugaiden.c:1224: } else if (gs.boss_recover > 0) {
    00001F65 FAr1Dr00         [16] 6812 	ld	a, (#(_gs + 29) + 0)
    00001F68 B7               [ 4] 6813 	or	a, a
    00001F69 28 09            [12] 6814 	jr	Z, 00112$
                                   6815 ;kaijugaiden.c:1225: by -= 1;
    00001F6B F8 06            [12] 6816 	ldhl	sp,	#6
    00001F6D 3E 5F            [ 8] 6817 	ld	a, #0x5f
    00001F6F 22               [ 8] 6818 	ld	(hl+), a
    00001F70 AF               [ 4] 6819 	xor	a, a
    00001F71 77               [ 8] 6820 	ld	(hl), a
    00001F72 18 11            [12] 6821 	jr	00119$
    00001F74                       6822 00112$:
                                   6823 ;kaijugaiden.c:1227: by += (gs.anim_tick & 0x08) ? 1 : 0;
    00001F74 FAr76r00         [16] 6824 	ld	a, (#(_gs + 118) + 0)
    00001F77 CB 5F            [ 8] 6825 	bit	3, a
    00001F79 3E 01            [ 8] 6826 	ld	a, #0x01
    00001F7B 20 01            [12] 6827 	jr	NZ, 00143$
    00001F7D AF               [ 4] 6828 	xor	a, a
    00001F7E                       6829 00143$:
    00001F7E C6 60            [ 8] 6830 	add	a, #0x60
    00001F80 F8 06            [12] 6831 	ldhl	sp,	#6
    00001F82 22               [ 8] 6832 	ld	(hl+), a
    00001F83 36 00            [12] 6833 	ld	(hl), #0x00
    00001F85                       6834 00119$:
                                   6835 ;kaijugaiden.c:1229: bx = camera_apply_x(bx);
    00001F85 C5               [16] 6836 	push	bc
    00001F86 F8 06            [12] 6837 	ldhl	sp,	#6
    00001F88 2A               [ 8] 6838 	ld	a, (hl+)
    00001F89 5F               [ 4] 6839 	ld	e, a
    00001F8A 56               [ 8] 6840 	ld	d, (hl)
    00001F8B CDrF9r12         [24] 6841 	call	_camera_apply_x
    00001F8E F8 02            [12] 6842 	ldhl	sp,	#2
    00001F90 79               [ 4] 6843 	ld	a, c
    00001F91 22               [ 8] 6844 	ld	(hl+), a
    00001F92 70               [ 8] 6845 	ld	(hl), b
                                   6846 ;kaijugaiden.c:1230: by = camera_apply_y(by);
    00001F93 F8 08            [12] 6847 	ldhl	sp,	#8
    00001F95 5E               [ 8] 6848 	ld	e, (hl)
    00001F96 16 00            [ 8] 6849 	ld	d, #0x00
    00001F98 CDr14r13         [24] 6850 	call	_camera_apply_y
    00001F9B F8 04            [12] 6851 	ldhl	sp,	#4
    00001F9D 79               [ 4] 6852 	ld	a, c
    00001F9E 22               [ 8] 6853 	ld	(hl+), a
    00001F9F 70               [ 8] 6854 	ld	(hl), b
    00001FA0 C1               [12] 6855 	pop	bc
                                   6856 ;kaijugaiden.c:1232: for (u8 row = 0; row < 2; ++row)
    00001FA1 F8 06            [12] 6857 	ldhl	sp,	#6
    00001FA3 36 00            [12] 6858 	ld	(hl), #0x00
    00001FA5                       6859 00130$:
    00001FA5 F8 06            [12] 6860 	ldhl	sp,	#6
    00001FA7 7E               [ 8] 6861 	ld	a, (hl)
    00001FA8 D6 02            [ 8] 6862 	sub	a, #0x02
    00001FAA 30 68            [12] 6863 	jr	NC, 00132$
                                   6864 ;kaijugaiden.c:1233: for (u8 col = 0; col < 4; ++col)
    00001FAC 23               [ 8] 6865 	inc	hl
    00001FAD 36 00            [12] 6866 	ld	(hl), #0x00
    00001FAF                       6867 00127$:
    00001FAF F8 07            [12] 6868 	ldhl	sp,	#7
    00001FB1 7E               [ 8] 6869 	ld	a, (hl)
    00001FB2 D6 04            [ 8] 6870 	sub	a, #0x04
    00001FB4 30 59            [12] 6871 	jr	NC, 00131$
                                   6872 ;kaijugaiden.c:1236: base_tile + row * 4 + col, 0x00);
    00001FB6 2B               [ 8] 6873 	dec	hl
    00001FB7 2A               [ 8] 6874 	ld	a, (hl+)
    00001FB8 47               [ 4] 6875 	ld	b, a
    00001FB9 87               [ 4] 6876 	add	a, a
    00001FBA 87               [ 4] 6877 	add	a, a
    00001FBB 5F               [ 4] 6878 	ld	e, a
    00001FBC 81               [ 4] 6879 	add	a,c
    00001FBD 56               [ 8] 6880 	ld	d, (hl)
    00001FBE 82               [ 4] 6881 	add	a, d
    00001FBF F8 04            [12] 6882 	ldhl	sp,	#4
                                   6883 ;kaijugaiden.c:1235: bx + col * TILE_W, (u8)(by + row * TILE_H),
    00001FC1 32               [ 8] 6884 	ld	(hl-), a
    00001FC2 2B               [ 8] 6885 	dec	hl
    00001FC3 6E               [ 8] 6886 	ld	l, (hl)
    00001FC4 78               [ 4] 6887 	ld	a, b
    00001FC5 87               [ 4] 6888 	add	a, a
    00001FC6 87               [ 4] 6889 	add	a, a
    00001FC7 87               [ 4] 6890 	add	a, a
    00001FC8 85               [ 4] 6891 	add	a, l
    00001FC9 F8 05            [12] 6892 	ldhl	sp,	#5
    00001FCB 77               [ 8] 6893 	ld	(hl), a
    00001FCC F8 00            [12] 6894 	ldhl	sp,	#0
    00001FCE 46               [ 8] 6895 	ld	b, (hl)
    00001FCF F8 07            [12] 6896 	ldhl	sp,	#7
                                   6897 ;kaijugaiden.c:1234: plat_set_sprite(id_base + row * 4 + col,
                                   6898 ;kaijugaiden.c:149: move_sprite(id, x + 8, y + 16);   /* GBDK uses offset convention */
    00001FD1 3A               [ 8] 6899 	ld	a, (hl-)
    00001FD2 2B               [ 8] 6900 	dec	hl
    00001FD3 87               [ 4] 6901 	add	a, a
    00001FD4 87               [ 4] 6902 	add	a, a
    00001FD5 87               [ 4] 6903 	add	a, a
    00001FD6 80               [ 4] 6904 	add	a, b
    00001FD7 47               [ 4] 6905 	ld	b, a
    00001FD8 7B               [ 4] 6906 	ld	a, e
    00001FD9 C6 1A            [ 8] 6907 	add	a, #0x1a
    00001FDB 82               [ 4] 6908 	add	a, d
    00001FDC 5F               [ 4] 6909 	ld	e, a
    00001FDD 7E               [ 8] 6910 	ld	a, (hl)
    00001FDE C6 10            [ 8] 6911 	add	a, #0x10
    00001FE0 77               [ 8] 6912 	ld	(hl), a
    00001FE1 78               [ 4] 6913 	ld	a, b
    00001FE2 C6 08            [ 8] 6914 	add	a, #0x08
    00001FE4 47               [ 4] 6915 	ld	b, a
                                   6916 ;c:\users\rrcar\documents\driptech\.tools\gbdk\gbdk\include\gb\gb.h:1973: OAM_item_t * itm = &shadow_OAM[nb];
    00001FE5 6B               [ 4] 6917 	ld	l, e
    00001FE6 26 00            [ 8] 6918 	ld	h, #0x00
    00001FE8 29               [ 8] 6919 	add	hl, hl
    00001FE9 29               [ 8] 6920 	add	hl, hl
    00001FEA 5D               [ 4] 6921 	ld	e, l
    00001FEB 54               [ 4] 6922 	ld	d, h
    00001FEC 21r00r00         [12] 6923 	ld	hl, #_shadow_OAM
    00001FEF 19               [ 8] 6924 	add	hl, de
                                   6925 ;c:\users\rrcar\documents\driptech\.tools\gbdk\gbdk\include\gb\gb.h:1974: itm->y=y, itm->x=x;
    00001FF0 E5               [16] 6926 	push	hl
    00001FF1 F8 07            [12] 6927 	ldhl	sp,	#7
    00001FF3 7E               [ 8] 6928 	ld	a, (hl)
    00001FF4 E1               [12] 6929 	pop	hl
    00001FF5 22               [ 8] 6930 	ld	(hl+), a
    00001FF6 70               [ 8] 6931 	ld	(hl), b
                                   6932 ;c:\users\rrcar\documents\driptech\.tools\gbdk\gbdk\include\gb\gb.h:1887: shadow_OAM[nb].tile=tile;
    00001FF7 21r01r00         [12] 6933 	ld	hl,#_shadow_OAM + 1
    00001FFA 19               [ 8] 6934 	add	hl,de
    00001FFB 23               [ 8] 6935 	inc	hl
    00001FFC E5               [16] 6936 	push	hl
    00001FFD F8 06            [12] 6937 	ldhl	sp,	#6
    00001FFF 7E               [ 8] 6938 	ld	a, (hl)
    00002000 E1               [12] 6939 	pop	hl
    00002001 77               [ 8] 6940 	ld	(hl), a
                                   6941 ;c:\users\rrcar\documents\driptech\.tools\gbdk\gbdk\include\gb\gb.h:1946: shadow_OAM[nb].prop=prop;
    00002002 21r01r00         [12] 6942 	ld	hl,#_shadow_OAM + 1
    00002005 19               [ 8] 6943 	add	hl,de
    00002006 23               [ 8] 6944 	inc	hl
    00002007 23               [ 8] 6945 	inc	hl
    00002008 36 00            [12] 6946 	ld	(hl), #0x00
                                   6947 ;kaijugaiden.c:1233: for (u8 col = 0; col < 4; ++col)
    0000200A F8 07            [12] 6948 	ldhl	sp,	#7
    0000200C 34               [12] 6949 	inc	(hl)
    0000200D 18 A0            [12] 6950 	jr	00127$
    0000200F                       6951 00131$:
                                   6952 ;kaijugaiden.c:1232: for (u8 row = 0; row < 2; ++row)
    0000200F F8 06            [12] 6953 	ldhl	sp,	#6
    00002011 34               [12] 6954 	inc	(hl)
    00002012 18 91            [12] 6955 	jr	00130$
    00002014                       6956 00132$:
                                   6957 ;kaijugaiden.c:1237: }
    00002014 E8 08            [16] 6958 	add	sp, #8
    00002016 C9               [16] 6959 	ret
                                   6960 ;kaijugaiden.c:1240: static void spr_draw_minions(void) {
                                   6961 ;	---------------------------------
                                   6962 ; Function spr_draw_minions
                                   6963 ; ---------------------------------
    00002017                       6964 _spr_draw_minions:
    00002017 E8 F1            [16] 6965 	add	sp, #-15
                                   6966 ;kaijugaiden.c:1241: for (u8 i = 0; i < MINION_MAX; ++i) {
    00002019 F8 0E            [12] 6967 	ldhl	sp,	#14
    0000201B 36 00            [12] 6968 	ld	(hl), #0x00
    0000201D                       6969 00136$:
    0000201D F8 0E            [12] 6970 	ldhl	sp,	#14
    0000201F 7E               [ 8] 6971 	ld	a, (hl)
    00002020 D6 05            [ 8] 6972 	sub	a, #0x05
    00002022 D2rD1r23         [16] 6973 	jp	NC, 00137$
                                   6974 ;kaijugaiden.c:1242: if (!gs.minions[i].active) continue;
    00002025 7E               [ 8] 6975 	ld	a, (hl)
    00002026 4F               [ 4] 6976 	ld	c, a
    00002027 87               [ 4] 6977 	add	a, a
    00002028 87               [ 4] 6978 	add	a, a
    00002029 87               [ 4] 6979 	add	a, a
    0000202A 81               [ 4] 6980 	add	a, c
    0000202B 5F               [ 4] 6981 	ld	e, a
    0000202C 16 00            [ 8] 6982 	ld	d, #0x00
    0000202E 21r1Fr00         [12] 6983 	ld	hl, #(_gs + 31)
    00002031 19               [ 8] 6984 	add	hl, de
    00002032 E5               [16] 6985 	push	hl
    00002033 7D               [ 4] 6986 	ld	a, l
    00002034 F8 0D            [12] 6987 	ldhl	sp,	#13
    00002036 77               [ 8] 6988 	ld	(hl), a
    00002037 E1               [12] 6989 	pop	hl
    00002038 7C               [ 4] 6990 	ld	a, h
    00002039 F8 0C            [12] 6991 	ldhl	sp,	#12
    0000203B 32               [ 8] 6992 	ld	(hl-), a
    0000203C 2A               [ 8] 6993 	ld	a, (hl+)
    0000203D 5F               [ 4] 6994 	ld	e, a
    0000203E 2A               [ 8] 6995 	ld	a, (hl+)
    0000203F 57               [ 4] 6996 	ld	d, a
    00002040 1A               [ 8] 6997 	ld	a, (de)
    00002041 77               [ 8] 6998 	ld	(hl), a
    00002042 7E               [ 8] 6999 	ld	a, (hl)
    00002043 B7               [ 4] 7000 	or	a, a
    00002044 CArCBr23         [16] 7001 	jp	Z, 00117$
                                   7002 ;kaijugaiden.c:1243: u8 id_base = 6 + i * 4;
    00002047 23               [ 8] 7003 	inc	hl
    00002048 7E               [ 8] 7004 	ld	a, (hl)
    00002049 87               [ 4] 7005 	add	a, a
    0000204A 87               [ 4] 7006 	add	a, a
    0000204B C6 06            [ 8] 7007 	add	a, #0x06
    0000204D F8 02            [12] 7008 	ldhl	sp,	#2
    0000204F 77               [ 8] 7009 	ld	(hl), a
                                   7010 ;kaijugaiden.c:1244: s16 mx = gs.minions[i].x;
    00002050 F8 0B            [12] 7011 	ldhl	sp,	#11
    00002052 2A               [ 8] 7012 	ld	a, (hl+)
    00002053 4F               [ 4] 7013 	ld	c, a
    00002054 46               [ 8] 7014 	ld	b, (hl)
    00002055 03               [ 8] 7015 	inc	bc
    00002056 59               [ 4] 7016 	ld	e, c
    00002057 50               [ 4] 7017 	ld	d, b
    00002058 1A               [ 8] 7018 	ld	a, (de)
    00002059 F8 08            [12] 7019 	ldhl	sp,	#8
    0000205B 22               [ 8] 7020 	ld	(hl+), a
    0000205C 13               [ 8] 7021 	inc	de
    0000205D 1A               [ 8] 7022 	ld	a, (de)
                                   7023 ;kaijugaiden.c:1245: u8  my = gs.minions[i].y;
    0000205E 22               [ 8] 7024 	ld	(hl+), a
    0000205F 23               [ 8] 7025 	inc	hl
    00002060 2A               [ 8] 7026 	ld	a, (hl+)
    00002061 4F               [ 4] 7027 	ld	c, a
    00002062 2A               [ 8] 7028 	ld	a, (hl+)
    00002063 47               [ 4] 7029 	ld	b, a
    00002064 03               [ 8] 7030 	inc	bc
    00002065 03               [ 8] 7031 	inc	bc
    00002066 03               [ 8] 7032 	inc	bc
    00002067 0A               [ 8] 7033 	ld	a, (bc)
                                   7034 ;kaijugaiden.c:1246: if (gs.minions[i].attack_windup > 0) {
    00002068 32               [ 8] 7035 	ld	(hl-), a
    00002069 2B               [ 8] 7036 	dec	hl
    0000206A 2A               [ 8] 7037 	ld	a, (hl+)
    0000206B 5F               [ 4] 7038 	ld	e, a
    0000206C 56               [ 8] 7039 	ld	d, (hl)
    0000206D 21 06 00         [12] 7040 	ld	hl, #0x0006
    00002070 19               [ 8] 7041 	add	hl, de
    00002071 4D               [ 4] 7042 	ld	c, l
    00002072 44               [ 4] 7043 	ld	b, h
    00002073 0A               [ 8] 7044 	ld	a, (bc)
    00002074 4F               [ 4] 7045 	ld	c, a
                                   7046 ;kaijugaiden.c:1248: if (my > 1) my -= 2;
    00002075 F8 0D            [12] 7047 	ldhl	sp,	#13
    00002077 7E               [ 8] 7048 	ld	a, (hl)
    00002078 F8 0A            [12] 7049 	ldhl	sp,	#10
    0000207A 77               [ 8] 7050 	ld	(hl), a
                                   7051 ;kaijugaiden.c:1246: if (gs.minions[i].attack_windup > 0) {
    0000207B 79               [ 4] 7052 	ld	a, c
    0000207C B7               [ 4] 7053 	or	a, a
    0000207D 28 42            [12] 7054 	jr	Z, 00115$
                                   7055 ;kaijugaiden.c:1247: mx += (gs.minions[i].vx >= 0) ? 1 : -1;
    0000207F 23               [ 8] 7056 	inc	hl
    00002080 2A               [ 8] 7057 	ld	a, (hl+)
    00002081 5F               [ 4] 7058 	ld	e, a
    00002082 56               [ 8] 7059 	ld	d, (hl)
    00002083 21 08 00         [12] 7060 	ld	hl, #0x0008
    00002086 19               [ 8] 7061 	add	hl, de
    00002087 4D               [ 4] 7062 	ld	c, l
    00002088 44               [ 4] 7063 	ld	b, h
    00002089 0A               [ 8] 7064 	ld	a, (bc)
    0000208A CB 7F            [ 8] 7065 	bit	7,a
    0000208C 20 09            [12] 7066 	jr	NZ, 00139$
    0000208E F8 0B            [12] 7067 	ldhl	sp,	#11
    00002090 3E 01            [ 8] 7068 	ld	a, #0x01
    00002092 22               [ 8] 7069 	ld	(hl+), a
    00002093 AF               [ 4] 7070 	xor	a, a
    00002094 77               [ 8] 7071 	ld	(hl), a
    00002095 18 07            [12] 7072 	jr	00140$
    00002097                       7073 00139$:
    00002097 F8 0B            [12] 7074 	ldhl	sp,	#11
    00002099 3E FF            [ 8] 7075 	ld	a, #0xff
    0000209B 22               [ 8] 7076 	ld	(hl+), a
    0000209C 36 FF            [12] 7077 	ld	(hl), #0xff
    0000209E                       7078 00140$:
    0000209E F8 08            [12] 7079 	ldhl	sp,	#8
    000020A0 2A               [ 8] 7080 	ld	a, (hl+)
    000020A1 4F               [ 4] 7081 	ld	c, a
    000020A2 2A               [ 8] 7082 	ld	a, (hl+)
    000020A3 23               [ 8] 7083 	inc	hl
    000020A4 47               [ 4] 7084 	ld	b, a
    000020A5 2A               [ 8] 7085 	ld	a,	(hl+)
    000020A6 66               [ 8] 7086 	ld	h, (hl)
    000020A7 6F               [ 4] 7087 	ld	l, a
    000020A8 09               [ 8] 7088 	add	hl, bc
    000020A9 4D               [ 4] 7089 	ld	c, l
    000020AA 7C               [ 4] 7090 	ld	a, h
    000020AB F8 08            [12] 7091 	ldhl	sp,	#8
    000020AD 71               [ 8] 7092 	ld	(hl), c
    000020AE 23               [ 8] 7093 	inc	hl
    000020AF 77               [ 8] 7094 	ld	(hl), a
                                   7095 ;kaijugaiden.c:1248: if (my > 1) my -= 2;
    000020B0 3E 01            [ 8] 7096 	ld	a, #0x01
    000020B2 F8 0D            [12] 7097 	ldhl	sp,	#13
    000020B4 96               [ 8] 7098 	sub	a, (hl)
    000020B5 30 48            [12] 7099 	jr	NC, 00116$
    000020B7 F8 0A            [12] 7100 	ldhl	sp,	#10
    000020B9 7E               [ 8] 7101 	ld	a, (hl)
    000020BA C6 FE            [ 8] 7102 	add	a, #0xfe
    000020BC F8 0D            [12] 7103 	ldhl	sp,	#13
    000020BE 77               [ 8] 7104 	ld	(hl), a
    000020BF 18 3E            [12] 7105 	jr	00116$
    000020C1                       7106 00115$:
                                   7107 ;kaijugaiden.c:1249: } else if (gs.minions[i].attack_recover > 0) {
    000020C1 F8 0B            [12] 7108 	ldhl	sp,#11
    000020C3 2A               [ 8] 7109 	ld	a, (hl+)
    000020C4 5F               [ 4] 7110 	ld	e, a
    000020C5 56               [ 8] 7111 	ld	d, (hl)
    000020C6 21 07 00         [12] 7112 	ld	hl, #0x0007
    000020C9 19               [ 8] 7113 	add	hl, de
    000020CA 4D               [ 4] 7114 	ld	c, l
    000020CB 44               [ 4] 7115 	ld	b, h
    000020CC 0A               [ 8] 7116 	ld	a, (bc)
    000020CD B7               [ 4] 7117 	or	a, a
    000020CE 28 11            [12] 7118 	jr	Z, 00112$
                                   7119 ;kaijugaiden.c:1250: if (my < SCR_H - 18) my += 2;
    000020D0 F8 0D            [12] 7120 	ldhl	sp,	#13
    000020D2 7E               [ 8] 7121 	ld	a, (hl)
    000020D3 D6 7E            [ 8] 7122 	sub	a, #0x7e
    000020D5 30 28            [12] 7123 	jr	NC, 00116$
    000020D7 F8 0A            [12] 7124 	ldhl	sp,	#10
    000020D9 7E               [ 8] 7125 	ld	a, (hl)
    000020DA C6 02            [ 8] 7126 	add	a, #0x02
    000020DC F8 0D            [12] 7127 	ldhl	sp,	#13
    000020DE 77               [ 8] 7128 	ld	(hl), a
    000020DF 18 1E            [12] 7129 	jr	00116$
    000020E1                       7130 00112$:
                                   7131 ;kaijugaiden.c:1251: } else if (gs.minions[i].anim & 0x04) {
    000020E1 F8 0B            [12] 7132 	ldhl	sp,#11
    000020E3 2A               [ 8] 7133 	ld	a, (hl+)
    000020E4 5F               [ 4] 7134 	ld	e, a
    000020E5 56               [ 8] 7135 	ld	d, (hl)
    000020E6 21 05 00         [12] 7136 	ld	hl, #0x0005
    000020E9 19               [ 8] 7137 	add	hl, de
    000020EA 4D               [ 4] 7138 	ld	c, l
    000020EB 44               [ 4] 7139 	ld	b, h
    000020EC 0A               [ 8] 7140 	ld	a, (bc)
    000020ED CB 57            [ 8] 7141 	bit	2, a
    000020EF 28 0E            [12] 7142 	jr	Z, 00116$
                                   7143 ;kaijugaiden.c:1252: if (my < SCR_H - 17) my += 1;
    000020F1 F8 0D            [12] 7144 	ldhl	sp,	#13
    000020F3 7E               [ 8] 7145 	ld	a, (hl)
    000020F4 D6 7F            [ 8] 7146 	sub	a, #0x7f
    000020F6 30 07            [12] 7147 	jr	NC, 00116$
    000020F8 F8 0A            [12] 7148 	ldhl	sp,	#10
    000020FA 7E               [ 8] 7149 	ld	a, (hl)
    000020FB 3C               [ 4] 7150 	inc	a
    000020FC F8 0D            [12] 7151 	ldhl	sp,	#13
    000020FE 77               [ 8] 7152 	ld	(hl), a
    000020FF                       7153 00116$:
                                   7154 ;kaijugaiden.c:1254: mx = camera_apply_x(mx);
    000020FF F8 08            [12] 7155 	ldhl	sp,	#8
    00002101 2A               [ 8] 7156 	ld	a, (hl+)
    00002102 5F               [ 4] 7157 	ld	e, a
    00002103 56               [ 8] 7158 	ld	d, (hl)
    00002104 CDrF9r12         [24] 7159 	call	_camera_apply_x
    00002107 F8 03            [12] 7160 	ldhl	sp,	#3
    00002109 79               [ 4] 7161 	ld	a, c
    0000210A 22               [ 8] 7162 	ld	(hl+), a
    0000210B 70               [ 8] 7163 	ld	(hl), b
                                   7164 ;kaijugaiden.c:1255: my = (u8)camera_apply_y(my);
    0000210C F8 0D            [12] 7165 	ldhl	sp,	#13
    0000210E 5E               [ 8] 7166 	ld	e, (hl)
    0000210F AF               [ 4] 7167 	xor	a, a
    00002110 57               [ 4] 7168 	ld	d, a
    00002111 CDr14r13         [24] 7169 	call	_camera_apply_y
                                   7170 ;kaijugaiden.c:1256: plat_set_sprite(id_base+0, mx,           my,           SPR_MINION+0, 0);
    00002114 F8 03            [12] 7171 	ldhl	sp,	#3
    00002116 2A               [ 8] 7172 	ld	a, (hl+)
    00002117 23               [ 8] 7173 	inc	hl
    00002118 77               [ 8] 7174 	ld	(hl), a
                                   7175 ;kaijugaiden.c:149: move_sprite(id, x + 8, y + 16);   /* GBDK uses offset convention */
    00002119 2A               [ 8] 7176 	ld	a, (hl+)
    0000211A 47               [ 4] 7177 	ld	b, a
    0000211B 71               [ 8] 7178 	ld	(hl), c
    0000211C 2A               [ 8] 7179 	ld	a, (hl+)
    0000211D C6 10            [ 8] 7180 	add	a, #0x10
    0000211F 77               [ 8] 7181 	ld	(hl), a
    00002120 2A               [ 8] 7182 	ld	a, (hl+)
    00002121 22               [ 8] 7183 	ld	(hl+), a
    00002122 78               [ 4] 7184 	ld	a, b
    00002123 C6 08            [ 8] 7185 	add	a, #0x08
    00002125 77               [ 8] 7186 	ld	(hl), a
                                   7187 ;c:\users\rrcar\documents\driptech\.tools\gbdk\gbdk\include\gb\gb.h:1973: OAM_item_t * itm = &shadow_OAM[nb];
    00002126 F8 02            [12] 7188 	ldhl	sp,	#2
    00002128 7E               [ 8] 7189 	ld	a, (hl)
    00002129 F8 0C            [12] 7190 	ldhl	sp,	#12
    0000212B 22               [ 8] 7191 	ld	(hl+), a
    0000212C AF               [ 4] 7192 	xor	a, a
    0000212D 32               [ 8] 7193 	ld	(hl-), a
    0000212E 3A               [ 8] 7194 	ld	a, (hl-)
    0000212F 2B               [ 8] 7195 	dec	hl
    00002130 22               [ 8] 7196 	ld	(hl+), a
    00002131 36 00            [12] 7197 	ld	(hl), #0x00
    00002133 3E 02            [ 8] 7198 	ld	a, #0x02
    00002135                       7199 00213$:
    00002135 F8 0A            [12] 7200 	ldhl	sp,	#10
    00002137 CB 26            [16] 7201 	sla	(hl)
    00002139 23               [ 8] 7202 	inc	hl
    0000213A CB 16            [16] 7203 	rl	(hl)
    0000213C 3D               [ 4] 7204 	dec	a
    0000213D 20 F6            [12] 7205 	jr	NZ, 00213$
    0000213F 11r00r00         [12] 7206 	ld	de, #_shadow_OAM
    00002142 3A               [ 8] 7207 	ld	a, (hl-)
    00002143 6E               [ 8] 7208 	ld	l, (hl)
    00002144 67               [ 4] 7209 	ld	h, a
    00002145 19               [ 8] 7210 	add	hl, de
    00002146 E5               [16] 7211 	push	hl
    00002147 7D               [ 4] 7212 	ld	a, l
    00002148 F8 0E            [12] 7213 	ldhl	sp,	#14
    0000214A 77               [ 8] 7214 	ld	(hl), a
    0000214B E1               [12] 7215 	pop	hl
    0000214C 7C               [ 4] 7216 	ld	a, h
    0000214D F8 0D            [12] 7217 	ldhl	sp,	#13
                                   7218 ;c:\users\rrcar\documents\driptech\.tools\gbdk\gbdk\include\gb\gb.h:1974: itm->y=y, itm->x=x;
    0000214F 32               [ 8] 7219 	ld	(hl-), a
    00002150 2A               [ 8] 7220 	ld	a, (hl+)
    00002151 5F               [ 4] 7221 	ld	e, a
    00002152 56               [ 8] 7222 	ld	d, (hl)
    00002153 F8 08            [12] 7223 	ldhl	sp,	#8
    00002155 7E               [ 8] 7224 	ld	a, (hl)
    00002156 12               [ 8] 7225 	ld	(de), a
    00002157 F8 0C            [12] 7226 	ldhl	sp,#12
    00002159 2A               [ 8] 7227 	ld	a, (hl+)
    0000215A 5F               [ 4] 7228 	ld	e, a
    0000215B 56               [ 8] 7229 	ld	d, (hl)
    0000215C 6B               [ 4] 7230 	ld	l, e
    0000215D 62               [ 4] 7231 	ld	h, d
    0000215E 23               [ 8] 7232 	inc	hl
    0000215F 33               [ 8] 7233 	inc	sp
    00002160 33               [ 8] 7234 	inc	sp
    00002161 5D               [ 4] 7235 	ld	e, l
    00002162 54               [ 4] 7236 	ld	d, h
    00002163 D5               [16] 7237 	push	de
    00002164 F8 09            [12] 7238 	ldhl	sp,	#9
                                   7239 ;c:\users\rrcar\documents\driptech\.tools\gbdk\gbdk\include\gb\gb.h:1887: shadow_OAM[nb].tile=tile;
    00002166 2A               [ 8] 7240 	ld	a, (hl+)
    00002167 12               [ 8] 7241 	ld	(de), a
    00002168 11r00r00         [12] 7242 	ld	de, #_shadow_OAM
    0000216B 2A               [ 8] 7243 	ld	a,	(hl+)
    0000216C 66               [ 8] 7244 	ld	h, (hl)
    0000216D 6F               [ 4] 7245 	ld	l, a
    0000216E 19               [ 8] 7246 	add	hl, de
    0000216F E5               [16] 7247 	push	hl
    00002170 7D               [ 4] 7248 	ld	a, l
    00002171 F8 0A            [12] 7249 	ldhl	sp,	#10
    00002173 77               [ 8] 7250 	ld	(hl), a
    00002174 E1               [12] 7251 	pop	hl
    00002175 7C               [ 4] 7252 	ld	a, h
    00002176 F8 09            [12] 7253 	ldhl	sp,	#9
    00002178 32               [ 8] 7254 	ld	(hl-), a
    00002179 2A               [ 8] 7255 	ld	a, (hl+)
    0000217A 5F               [ 4] 7256 	ld	e, a
    0000217B 56               [ 8] 7257 	ld	d, (hl)
    0000217C 21 02 00         [12] 7258 	ld	hl, #0x0002
    0000217F 19               [ 8] 7259 	add	hl, de
    00002180 E5               [16] 7260 	push	hl
    00002181 7D               [ 4] 7261 	ld	a, l
    00002182 F8 0E            [12] 7262 	ldhl	sp,	#14
    00002184 77               [ 8] 7263 	ld	(hl), a
    00002185 E1               [12] 7264 	pop	hl
    00002186 7C               [ 4] 7265 	ld	a, h
    00002187 F8 0D            [12] 7266 	ldhl	sp,	#13
    00002189 32               [ 8] 7267 	ld	(hl-), a
    0000218A 2A               [ 8] 7268 	ld	a, (hl+)
    0000218B 66               [ 8] 7269 	ld	h, (hl)
    0000218C 6F               [ 4] 7270 	ld	l, a
    0000218D 36 2A            [12] 7271 	ld	(hl), #0x2a
                                   7272 ;c:\users\rrcar\documents\driptech\.tools\gbdk\gbdk\include\gb\gb.h:1946: shadow_OAM[nb].prop=prop;
    0000218F 11r00r00         [12] 7273 	ld	de, #_shadow_OAM
    00002192 F8 0A            [12] 7274 	ldhl	sp,	#10
    00002194 2A               [ 8] 7275 	ld	a,	(hl+)
    00002195 66               [ 8] 7276 	ld	h, (hl)
    00002196 6F               [ 4] 7277 	ld	l, a
    00002197 19               [ 8] 7278 	add	hl, de
    00002198 E5               [16] 7279 	push	hl
    00002199 7D               [ 4] 7280 	ld	a, l
    0000219A F8 0E            [12] 7281 	ldhl	sp,	#14
    0000219C 77               [ 8] 7282 	ld	(hl), a
    0000219D E1               [12] 7283 	pop	hl
    0000219E 7C               [ 4] 7284 	ld	a, h
    0000219F F8 0D            [12] 7285 	ldhl	sp,	#13
    000021A1 32               [ 8] 7286 	ld	(hl-), a
    000021A2 2A               [ 8] 7287 	ld	a, (hl+)
    000021A3 5F               [ 4] 7288 	ld	e, a
    000021A4 56               [ 8] 7289 	ld	d, (hl)
    000021A5 21 03 00         [12] 7290 	ld	hl, #0x0003
    000021A8 19               [ 8] 7291 	add	hl, de
    000021A9 E5               [16] 7292 	push	hl
    000021AA 7D               [ 4] 7293 	ld	a, l
    000021AB F8 0C            [12] 7294 	ldhl	sp,	#12
    000021AD 77               [ 8] 7295 	ld	(hl), a
    000021AE E1               [12] 7296 	pop	hl
    000021AF 7C               [ 4] 7297 	ld	a, h
    000021B0 F8 0B            [12] 7298 	ldhl	sp,	#11
    000021B2 32               [ 8] 7299 	ld	(hl-), a
    000021B3 2A               [ 8] 7300 	ld	a, (hl+)
    000021B4 66               [ 8] 7301 	ld	h, (hl)
    000021B5 6F               [ 4] 7302 	ld	l, a
    000021B6 36 00            [12] 7303 	ld	(hl), #0x00
                                   7304 ;kaijugaiden.c:1257: plat_set_sprite(id_base+1, mx+TILE_W,    my,           SPR_MINION+1, 0);
    000021B8 F8 03            [12] 7305 	ldhl	sp,	#3
    000021BA 7E               [ 8] 7306 	ld	a, (hl)
    000021BB F8 0D            [12] 7307 	ldhl	sp,	#13
    000021BD 77               [ 8] 7308 	ld	(hl), a
    000021BE 3A               [ 8] 7309 	ld	a, (hl-)
    000021BF C6 08            [ 8] 7310 	add	a, #0x08
    000021C1 77               [ 8] 7311 	ld	(hl), a
    000021C2 4E               [ 8] 7312 	ld	c, (hl)
    000021C3 F8 02            [12] 7313 	ldhl	sp,	#2
    000021C5 7E               [ 8] 7314 	ld	a, (hl)
    000021C6 F8 0D            [12] 7315 	ldhl	sp,	#13
    000021C8 77               [ 8] 7316 	ld	(hl), a
    000021C9 3A               [ 8] 7317 	ld	a, (hl-)
    000021CA 2B               [ 8] 7318 	dec	hl
    000021CB 3C               [ 4] 7319 	inc	a
                                   7320 ;kaijugaiden.c:149: move_sprite(id, x + 8, y + 16);   /* GBDK uses offset convention */
    000021CC 32               [ 8] 7321 	ld	(hl-), a
    000021CD 71               [ 8] 7322 	ld	(hl), c
    000021CE 7E               [ 8] 7323 	ld	a, (hl)
    000021CF C6 08            [ 8] 7324 	add	a, #0x08
    000021D1 F8 04            [12] 7325 	ldhl	sp,	#4
    000021D3 77               [ 8] 7326 	ld	(hl), a
                                   7327 ;c:\users\rrcar\documents\driptech\.tools\gbdk\gbdk\include\gb\gb.h:1973: OAM_item_t * itm = &shadow_OAM[nb];
    000021D4 F8 0B            [12] 7328 	ldhl	sp,	#11
    000021D6 3A               [ 8] 7329 	ld	a, (hl-)
    000021D7 22               [ 8] 7330 	ld	(hl+), a
    000021D8 AF               [ 4] 7331 	xor	a, a
    000021D9 32               [ 8] 7332 	ld	(hl-), a
    000021DA 3A               [ 8] 7333 	ld	a, (hl-)
    000021DB 2B               [ 8] 7334 	dec	hl
    000021DC 22               [ 8] 7335 	ld	(hl+), a
    000021DD 36 00            [12] 7336 	ld	(hl), #0x00
    000021DF 3E 02            [ 8] 7337 	ld	a, #0x02
    000021E1                       7338 00214$:
    000021E1 F8 08            [12] 7339 	ldhl	sp,	#8
    000021E3 CB 26            [16] 7340 	sla	(hl)
    000021E5 23               [ 8] 7341 	inc	hl
    000021E6 CB 16            [16] 7342 	rl	(hl)
    000021E8 3D               [ 4] 7343 	dec	a
    000021E9 20 F6            [12] 7344 	jr	NZ, 00214$
    000021EB 11r00r00         [12] 7345 	ld	de, #_shadow_OAM
    000021EE 3A               [ 8] 7346 	ld	a, (hl-)
    000021EF 6E               [ 8] 7347 	ld	l, (hl)
    000021F0 67               [ 4] 7348 	ld	h, a
    000021F1 19               [ 8] 7349 	add	hl, de
    000021F2 E5               [16] 7350 	push	hl
    000021F3 7D               [ 4] 7351 	ld	a, l
    000021F4 F8 0C            [12] 7352 	ldhl	sp,	#12
    000021F6 77               [ 8] 7353 	ld	(hl), a
    000021F7 E1               [12] 7354 	pop	hl
    000021F8 7C               [ 4] 7355 	ld	a, h
    000021F9 F8 0B            [12] 7356 	ldhl	sp,	#11
                                   7357 ;c:\users\rrcar\documents\driptech\.tools\gbdk\gbdk\include\gb\gb.h:1974: itm->y=y, itm->x=x;
    000021FB 32               [ 8] 7358 	ld	(hl-), a
    000021FC 2A               [ 8] 7359 	ld	a, (hl+)
    000021FD 5F               [ 4] 7360 	ld	e, a
    000021FE 56               [ 8] 7361 	ld	d, (hl)
    000021FF F8 07            [12] 7362 	ldhl	sp,	#7
    00002201 7E               [ 8] 7363 	ld	a, (hl)
    00002202 12               [ 8] 7364 	ld	(de), a
    00002203 F8 0A            [12] 7365 	ldhl	sp,#10
    00002205 2A               [ 8] 7366 	ld	a, (hl+)
    00002206 5F               [ 4] 7367 	ld	e, a
    00002207 56               [ 8] 7368 	ld	d, (hl)
    00002208 6B               [ 4] 7369 	ld	l, e
    00002209 62               [ 4] 7370 	ld	h, d
    0000220A 23               [ 8] 7371 	inc	hl
    0000220B E5               [16] 7372 	push	hl
    0000220C 7D               [ 4] 7373 	ld	a, l
    0000220D F8 04            [12] 7374 	ldhl	sp,	#4
    0000220F 77               [ 8] 7375 	ld	(hl), a
    00002210 E1               [12] 7376 	pop	hl
    00002211 7C               [ 4] 7377 	ld	a, h
    00002212 F8 03            [12] 7378 	ldhl	sp,	#3
    00002214 32               [ 8] 7379 	ld	(hl-), a
    00002215 2A               [ 8] 7380 	ld	a, (hl+)
    00002216 5F               [ 4] 7381 	ld	e, a
    00002217 2A               [ 8] 7382 	ld	a, (hl+)
    00002218 57               [ 4] 7383 	ld	d, a
    00002219 7E               [ 8] 7384 	ld	a, (hl)
    0000221A 12               [ 8] 7385 	ld	(de), a
                                   7386 ;c:\users\rrcar\documents\driptech\.tools\gbdk\gbdk\include\gb\gb.h:1887: shadow_OAM[nb].tile=tile;
    0000221B 11r00r00         [12] 7387 	ld	de, #_shadow_OAM
    0000221E F8 08            [12] 7388 	ldhl	sp,	#8
    00002220 2A               [ 8] 7389 	ld	a,	(hl+)
    00002221 66               [ 8] 7390 	ld	h, (hl)
    00002222 6F               [ 4] 7391 	ld	l, a
    00002223 19               [ 8] 7392 	add	hl, de
    00002224 E5               [16] 7393 	push	hl
    00002225 7D               [ 4] 7394 	ld	a, l
    00002226 F8 05            [12] 7395 	ldhl	sp,	#5
    00002228 77               [ 8] 7396 	ld	(hl), a
    00002229 E1               [12] 7397 	pop	hl
    0000222A 7C               [ 4] 7398 	ld	a, h
    0000222B F8 04            [12] 7399 	ldhl	sp,	#4
    0000222D 32               [ 8] 7400 	ld	(hl-), a
    0000222E 2A               [ 8] 7401 	ld	a, (hl+)
    0000222F 5F               [ 4] 7402 	ld	e, a
    00002230 56               [ 8] 7403 	ld	d, (hl)
    00002231 21 02 00         [12] 7404 	ld	hl, #0x0002
    00002234 19               [ 8] 7405 	add	hl, de
    00002235 E5               [16] 7406 	push	hl
    00002236 7D               [ 4] 7407 	ld	a, l
    00002237 F8 0C            [12] 7408 	ldhl	sp,	#12
    00002239 77               [ 8] 7409 	ld	(hl), a
    0000223A E1               [12] 7410 	pop	hl
    0000223B 7C               [ 4] 7411 	ld	a, h
    0000223C F8 0B            [12] 7412 	ldhl	sp,	#11
    0000223E 32               [ 8] 7413 	ld	(hl-), a
    0000223F 2A               [ 8] 7414 	ld	a, (hl+)
    00002240 66               [ 8] 7415 	ld	h, (hl)
    00002241 6F               [ 4] 7416 	ld	l, a
    00002242 36 2B            [12] 7417 	ld	(hl), #0x2b
                                   7418 ;c:\users\rrcar\documents\driptech\.tools\gbdk\gbdk\include\gb\gb.h:1946: shadow_OAM[nb].prop=prop;
    00002244 11r00r00         [12] 7419 	ld	de, #_shadow_OAM
    00002247 F8 08            [12] 7420 	ldhl	sp,	#8
    00002249 2A               [ 8] 7421 	ld	a,	(hl+)
    0000224A 66               [ 8] 7422 	ld	h, (hl)
    0000224B 6F               [ 4] 7423 	ld	l, a
    0000224C 19               [ 8] 7424 	add	hl, de
    0000224D E5               [16] 7425 	push	hl
    0000224E 7D               [ 4] 7426 	ld	a, l
    0000224F F8 0C            [12] 7427 	ldhl	sp,	#12
    00002251 77               [ 8] 7428 	ld	(hl), a
    00002252 E1               [12] 7429 	pop	hl
    00002253 7C               [ 4] 7430 	ld	a, h
    00002254 F8 0B            [12] 7431 	ldhl	sp,	#11
    00002256 32               [ 8] 7432 	ld	(hl-), a
    00002257 2A               [ 8] 7433 	ld	a, (hl+)
    00002258 5F               [ 4] 7434 	ld	e, a
    00002259 56               [ 8] 7435 	ld	d, (hl)
    0000225A 21 03 00         [12] 7436 	ld	hl, #0x0003
    0000225D 19               [ 8] 7437 	add	hl, de
    0000225E E5               [16] 7438 	push	hl
    0000225F 7D               [ 4] 7439 	ld	a, l
    00002260 F8 0A            [12] 7440 	ldhl	sp,	#10
    00002262 77               [ 8] 7441 	ld	(hl), a
    00002263 E1               [12] 7442 	pop	hl
    00002264 7C               [ 4] 7443 	ld	a, h
    00002265 F8 09            [12] 7444 	ldhl	sp,	#9
    00002267 32               [ 8] 7445 	ld	(hl-), a
    00002268 2A               [ 8] 7446 	ld	a, (hl+)
    00002269 66               [ 8] 7447 	ld	h, (hl)
    0000226A 6F               [ 4] 7448 	ld	l, a
    0000226B 36 00            [12] 7449 	ld	(hl), #0x00
                                   7450 ;kaijugaiden.c:1258: plat_set_sprite(id_base+2, mx,           my+TILE_H,    SPR_MINION+2, 0);
    0000226D F8 06            [12] 7451 	ldhl	sp,	#6
    0000226F 7E               [ 8] 7452 	ld	a, (hl)
    00002270 C6 08            [ 8] 7453 	add	a, #0x08
    00002272 F8 0B            [12] 7454 	ldhl	sp,	#11
    00002274 77               [ 8] 7455 	ld	(hl), a
    00002275 2A               [ 8] 7456 	ld	a, (hl+)
    00002276 23               [ 8] 7457 	inc	hl
    00002277 4F               [ 4] 7458 	ld	c, a
    00002278 7E               [ 8] 7459 	ld	a, (hl)
    00002279 C6 02            [ 8] 7460 	add	a, #0x02
    0000227B F8 09            [12] 7461 	ldhl	sp,	#9
                                   7462 ;kaijugaiden.c:149: move_sprite(id, x + 8, y + 16);   /* GBDK uses offset convention */
    0000227D 22               [ 8] 7463 	ld	(hl+), a
    0000227E 71               [ 8] 7464 	ld	(hl), c
    0000227F 7E               [ 8] 7465 	ld	a, (hl)
    00002280 C6 10            [ 8] 7466 	add	a, #0x10
    00002282 77               [ 8] 7467 	ld	(hl), a
    00002283 F8 05            [12] 7468 	ldhl	sp,	#5
    00002285 7E               [ 8] 7469 	ld	a, (hl)
    00002286 F8 08            [12] 7470 	ldhl	sp,	#8
    00002288 77               [ 8] 7471 	ld	(hl), a
    00002289 7E               [ 8] 7472 	ld	a, (hl)
    0000228A C6 08            [ 8] 7473 	add	a, #0x08
    0000228C F8 05            [12] 7474 	ldhl	sp,	#5
    0000228E 77               [ 8] 7475 	ld	(hl), a
                                   7476 ;c:\users\rrcar\documents\driptech\.tools\gbdk\gbdk\include\gb\gb.h:1973: OAM_item_t * itm = &shadow_OAM[nb];
    0000228F F8 09            [12] 7477 	ldhl	sp,	#9
    00002291 3A               [ 8] 7478 	ld	a, (hl-)
    00002292 22               [ 8] 7479 	ld	(hl+), a
    00002293 AF               [ 4] 7480 	xor	a, a
    00002294 32               [ 8] 7481 	ld	(hl-), a
    00002295 3A               [ 8] 7482 	ld	a, (hl-)
    00002296 2B               [ 8] 7483 	dec	hl
    00002297 22               [ 8] 7484 	ld	(hl+), a
    00002298 36 00            [12] 7485 	ld	(hl), #0x00
    0000229A 3E 02            [ 8] 7486 	ld	a, #0x02
    0000229C                       7487 00215$:
    0000229C F8 06            [12] 7488 	ldhl	sp,	#6
    0000229E CB 26            [16] 7489 	sla	(hl)
    000022A0 23               [ 8] 7490 	inc	hl
    000022A1 CB 16            [16] 7491 	rl	(hl)
    000022A3 3D               [ 4] 7492 	dec	a
    000022A4 20 F6            [12] 7493 	jr	NZ, 00215$
    000022A6 11r00r00         [12] 7494 	ld	de, #_shadow_OAM
    000022A9 3A               [ 8] 7495 	ld	a, (hl-)
    000022AA 6E               [ 8] 7496 	ld	l, (hl)
    000022AB 67               [ 4] 7497 	ld	h, a
    000022AC 19               [ 8] 7498 	add	hl, de
    000022AD E5               [16] 7499 	push	hl
    000022AE 7D               [ 4] 7500 	ld	a, l
    000022AF F8 0A            [12] 7501 	ldhl	sp,	#10
    000022B1 77               [ 8] 7502 	ld	(hl), a
    000022B2 E1               [12] 7503 	pop	hl
    000022B3 7C               [ 4] 7504 	ld	a, h
    000022B4 F8 09            [12] 7505 	ldhl	sp,	#9
                                   7506 ;c:\users\rrcar\documents\driptech\.tools\gbdk\gbdk\include\gb\gb.h:1974: itm->y=y, itm->x=x;
    000022B6 32               [ 8] 7507 	ld	(hl-), a
    000022B7 2A               [ 8] 7508 	ld	a, (hl+)
    000022B8 5F               [ 4] 7509 	ld	e, a
    000022B9 2A               [ 8] 7510 	ld	a, (hl+)
    000022BA 57               [ 4] 7511 	ld	d, a
    000022BB 3A               [ 8] 7512 	ld	a, (hl-)
    000022BC 2B               [ 8] 7513 	dec	hl
    000022BD 12               [ 8] 7514 	ld	(de), a
    000022BE 2A               [ 8] 7515 	ld	a, (hl+)
    000022BF 5F               [ 4] 7516 	ld	e, a
    000022C0 56               [ 8] 7517 	ld	d, (hl)
    000022C1 6B               [ 4] 7518 	ld	l, e
    000022C2 62               [ 4] 7519 	ld	h, d
    000022C3 23               [ 8] 7520 	inc	hl
    000022C4 E5               [16] 7521 	push	hl
    000022C5 7D               [ 4] 7522 	ld	a, l
    000022C6 F8 05            [12] 7523 	ldhl	sp,	#5
    000022C8 77               [ 8] 7524 	ld	(hl), a
    000022C9 E1               [12] 7525 	pop	hl
    000022CA 7C               [ 4] 7526 	ld	a, h
    000022CB F8 04            [12] 7527 	ldhl	sp,	#4
    000022CD 32               [ 8] 7528 	ld	(hl-), a
    000022CE 2A               [ 8] 7529 	ld	a, (hl+)
    000022CF 5F               [ 4] 7530 	ld	e, a
    000022D0 2A               [ 8] 7531 	ld	a, (hl+)
    000022D1 57               [ 4] 7532 	ld	d, a
                                   7533 ;c:\users\rrcar\documents\driptech\.tools\gbdk\gbdk\include\gb\gb.h:1887: shadow_OAM[nb].tile=tile;
    000022D2 2A               [ 8] 7534 	ld	a, (hl+)
    000022D3 12               [ 8] 7535 	ld	(de), a
    000022D4 2A               [ 8] 7536 	ld	a, (hl+)
    000022D5 5F               [ 4] 7537 	ld	e, a
    000022D6 56               [ 8] 7538 	ld	d, (hl)
    000022D7 21r00r00         [12] 7539 	ld	hl, #_shadow_OAM
    000022DA 19               [ 8] 7540 	add	hl, de
    000022DB E5               [16] 7541 	push	hl
    000022DC 7D               [ 4] 7542 	ld	a, l
    000022DD F8 06            [12] 7543 	ldhl	sp,	#6
    000022DF 77               [ 8] 7544 	ld	(hl), a
    000022E0 E1               [12] 7545 	pop	hl
    000022E1 7C               [ 4] 7546 	ld	a, h
    000022E2 F8 05            [12] 7547 	ldhl	sp,	#5
    000022E4 32               [ 8] 7548 	ld	(hl-), a
    000022E5 2A               [ 8] 7549 	ld	a, (hl+)
    000022E6 5F               [ 4] 7550 	ld	e, a
    000022E7 56               [ 8] 7551 	ld	d, (hl)
    000022E8 21 02 00         [12] 7552 	ld	hl, #0x0002
    000022EB 19               [ 8] 7553 	add	hl, de
    000022EC E5               [16] 7554 	push	hl
    000022ED 7D               [ 4] 7555 	ld	a, l
    000022EE F8 0B            [12] 7556 	ldhl	sp,	#11
    000022F0 77               [ 8] 7557 	ld	(hl), a
    000022F1 E1               [12] 7558 	pop	hl
    000022F2 7C               [ 4] 7559 	ld	a, h
    000022F3 F8 0A            [12] 7560 	ldhl	sp,	#10
    000022F5 32               [ 8] 7561 	ld	(hl-), a
    000022F6 2A               [ 8] 7562 	ld	a, (hl+)
    000022F7 66               [ 8] 7563 	ld	h, (hl)
    000022F8 6F               [ 4] 7564 	ld	l, a
    000022F9 36 2C            [12] 7565 	ld	(hl), #0x2c
                                   7566 ;c:\users\rrcar\documents\driptech\.tools\gbdk\gbdk\include\gb\gb.h:1946: shadow_OAM[nb].prop=prop;
    000022FB 11r00r00         [12] 7567 	ld	de, #_shadow_OAM
    000022FE F8 06            [12] 7568 	ldhl	sp,	#6
    00002300 2A               [ 8] 7569 	ld	a,	(hl+)
    00002301 66               [ 8] 7570 	ld	h, (hl)
    00002302 6F               [ 4] 7571 	ld	l, a
    00002303 19               [ 8] 7572 	add	hl, de
    00002304 E5               [16] 7573 	push	hl
    00002305 7D               [ 4] 7574 	ld	a, l
    00002306 F8 0B            [12] 7575 	ldhl	sp,	#11
    00002308 77               [ 8] 7576 	ld	(hl), a
    00002309 E1               [12] 7577 	pop	hl
    0000230A 7C               [ 4] 7578 	ld	a, h
    0000230B F8 0A            [12] 7579 	ldhl	sp,	#10
    0000230D 32               [ 8] 7580 	ld	(hl-), a
    0000230E 2A               [ 8] 7581 	ld	a, (hl+)
    0000230F 5F               [ 4] 7582 	ld	e, a
    00002310 56               [ 8] 7583 	ld	d, (hl)
    00002311 21 03 00         [12] 7584 	ld	hl, #0x0003
    00002314 19               [ 8] 7585 	add	hl, de
    00002315 E5               [16] 7586 	push	hl
    00002316 7D               [ 4] 7587 	ld	a, l
    00002317 F8 09            [12] 7588 	ldhl	sp,	#9
    00002319 77               [ 8] 7589 	ld	(hl), a
    0000231A E1               [12] 7590 	pop	hl
    0000231B 7C               [ 4] 7591 	ld	a, h
    0000231C F8 08            [12] 7592 	ldhl	sp,	#8
    0000231E 32               [ 8] 7593 	ld	(hl-), a
    0000231F 2A               [ 8] 7594 	ld	a, (hl+)
    00002320 66               [ 8] 7595 	ld	h, (hl)
    00002321 6F               [ 4] 7596 	ld	l, a
    00002322 36 00            [12] 7597 	ld	(hl), #0x00
                                   7598 ;kaijugaiden.c:1259: plat_set_sprite(id_base+3, mx+TILE_W,    my+TILE_H,    SPR_MINION+3, 0);
    00002324 F8 0D            [12] 7599 	ldhl	sp,	#13
    00002326 34               [12] 7600 	inc	(hl)
    00002327 34               [12] 7601 	inc	(hl)
    00002328 34               [12] 7602 	inc	(hl)
                                   7603 ;kaijugaiden.c:149: move_sprite(id, x + 8, y + 16);   /* GBDK uses offset convention */
    00002329 2B               [ 8] 7604 	dec	hl
    0000232A 2B               [ 8] 7605 	dec	hl
    0000232B 7E               [ 8] 7606 	ld	a, (hl)
    0000232C C6 10            [ 8] 7607 	add	a, #0x10
    0000232E 22               [ 8] 7608 	ld	(hl+), a
    0000232F 7E               [ 8] 7609 	ld	a, (hl)
    00002330 C6 08            [ 8] 7610 	add	a, #0x08
                                   7611 ;c:\users\rrcar\documents\driptech\.tools\gbdk\gbdk\include\gb\gb.h:1973: OAM_item_t * itm = &shadow_OAM[nb];
    00002332 22               [ 8] 7612 	ld	(hl+), a
    00002333 7E               [ 8] 7613 	ld	a, (hl)
    00002334 F8 09            [12] 7614 	ldhl	sp,	#9
    00002336 22               [ 8] 7615 	ld	(hl+), a
    00002337 AF               [ 4] 7616 	xor	a, a
    00002338 32               [ 8] 7617 	ld	(hl-), a
    00002339 3A               [ 8] 7618 	ld	a, (hl-)
    0000233A 2B               [ 8] 7619 	dec	hl
    0000233B 22               [ 8] 7620 	ld	(hl+), a
    0000233C 36 00            [12] 7621 	ld	(hl), #0x00
    0000233E 3E 02            [ 8] 7622 	ld	a, #0x02
    00002340                       7623 00216$:
    00002340 F8 07            [12] 7624 	ldhl	sp,	#7
    00002342 CB 26            [16] 7625 	sla	(hl)
    00002344 23               [ 8] 7626 	inc	hl
    00002345 CB 16            [16] 7627 	rl	(hl)
    00002347 3D               [ 4] 7628 	dec	a
    00002348 20 F6            [12] 7629 	jr	NZ, 00216$
    0000234A 11r00r00         [12] 7630 	ld	de, #_shadow_OAM
    0000234D 3A               [ 8] 7631 	ld	a, (hl-)
    0000234E 6E               [ 8] 7632 	ld	l, (hl)
    0000234F 67               [ 4] 7633 	ld	h, a
    00002350 19               [ 8] 7634 	add	hl, de
    00002351 E5               [16] 7635 	push	hl
    00002352 7D               [ 4] 7636 	ld	a, l
    00002353 F8 0B            [12] 7637 	ldhl	sp,	#11
    00002355 77               [ 8] 7638 	ld	(hl), a
    00002356 E1               [12] 7639 	pop	hl
    00002357 7C               [ 4] 7640 	ld	a, h
    00002358 F8 0A            [12] 7641 	ldhl	sp,	#10
                                   7642 ;c:\users\rrcar\documents\driptech\.tools\gbdk\gbdk\include\gb\gb.h:1974: itm->y=y, itm->x=x;
    0000235A 32               [ 8] 7643 	ld	(hl-), a
    0000235B 2A               [ 8] 7644 	ld	a, (hl+)
    0000235C 5F               [ 4] 7645 	ld	e, a
    0000235D 2A               [ 8] 7646 	ld	a, (hl+)
    0000235E 57               [ 4] 7647 	ld	d, a
    0000235F 3A               [ 8] 7648 	ld	a, (hl-)
    00002360 2B               [ 8] 7649 	dec	hl
    00002361 12               [ 8] 7650 	ld	(de), a
    00002362 2A               [ 8] 7651 	ld	a, (hl+)
    00002363 5F               [ 4] 7652 	ld	e, a
    00002364 56               [ 8] 7653 	ld	d, (hl)
    00002365 6B               [ 4] 7654 	ld	l, e
    00002366 62               [ 4] 7655 	ld	h, d
    00002367 23               [ 8] 7656 	inc	hl
    00002368 E5               [16] 7657 	push	hl
    00002369 7D               [ 4] 7658 	ld	a, l
    0000236A F8 07            [12] 7659 	ldhl	sp,	#7
    0000236C 77               [ 8] 7660 	ld	(hl), a
    0000236D E1               [12] 7661 	pop	hl
    0000236E 7C               [ 4] 7662 	ld	a, h
    0000236F F8 06            [12] 7663 	ldhl	sp,	#6
    00002371 32               [ 8] 7664 	ld	(hl-), a
    00002372 2A               [ 8] 7665 	ld	a, (hl+)
    00002373 5F               [ 4] 7666 	ld	e, a
    00002374 56               [ 8] 7667 	ld	d, (hl)
    00002375 F8 0C            [12] 7668 	ldhl	sp,	#12
    00002377 7E               [ 8] 7669 	ld	a, (hl)
    00002378 12               [ 8] 7670 	ld	(de), a
                                   7671 ;c:\users\rrcar\documents\driptech\.tools\gbdk\gbdk\include\gb\gb.h:1887: shadow_OAM[nb].tile=tile;
    00002379 11r00r00         [12] 7672 	ld	de, #_shadow_OAM
    0000237C F8 07            [12] 7673 	ldhl	sp,	#7
    0000237E 2A               [ 8] 7674 	ld	a,	(hl+)
    0000237F 66               [ 8] 7675 	ld	h, (hl)
    00002380 6F               [ 4] 7676 	ld	l, a
    00002381 19               [ 8] 7677 	add	hl, de
    00002382 E5               [16] 7678 	push	hl
    00002383 7D               [ 4] 7679 	ld	a, l
    00002384 F8 0C            [12] 7680 	ldhl	sp,	#12
    00002386 77               [ 8] 7681 	ld	(hl), a
    00002387 E1               [12] 7682 	pop	hl
    00002388 7C               [ 4] 7683 	ld	a, h
    00002389 F8 0B            [12] 7684 	ldhl	sp,	#11
    0000238B 32               [ 8] 7685 	ld	(hl-), a
    0000238C 2A               [ 8] 7686 	ld	a, (hl+)
    0000238D 5F               [ 4] 7687 	ld	e, a
    0000238E 56               [ 8] 7688 	ld	d, (hl)
    0000238F 21 02 00         [12] 7689 	ld	hl, #0x0002
    00002392 19               [ 8] 7690 	add	hl, de
    00002393 E5               [16] 7691 	push	hl
    00002394 7D               [ 4] 7692 	ld	a, l
    00002395 F8 0E            [12] 7693 	ldhl	sp,	#14
    00002397 77               [ 8] 7694 	ld	(hl), a
    00002398 E1               [12] 7695 	pop	hl
    00002399 7C               [ 4] 7696 	ld	a, h
    0000239A F8 0D            [12] 7697 	ldhl	sp,	#13
    0000239C 32               [ 8] 7698 	ld	(hl-), a
    0000239D 2A               [ 8] 7699 	ld	a, (hl+)
    0000239E 66               [ 8] 7700 	ld	h, (hl)
    0000239F 6F               [ 4] 7701 	ld	l, a
    000023A0 36 2D            [12] 7702 	ld	(hl), #0x2d
                                   7703 ;c:\users\rrcar\documents\driptech\.tools\gbdk\gbdk\include\gb\gb.h:1946: shadow_OAM[nb].prop=prop;
    000023A2 11r00r00         [12] 7704 	ld	de, #_shadow_OAM
    000023A5 F8 07            [12] 7705 	ldhl	sp,	#7
    000023A7 2A               [ 8] 7706 	ld	a,	(hl+)
    000023A8 66               [ 8] 7707 	ld	h, (hl)
    000023A9 6F               [ 4] 7708 	ld	l, a
    000023AA 19               [ 8] 7709 	add	hl, de
    000023AB E5               [16] 7710 	push	hl
    000023AC 7D               [ 4] 7711 	ld	a, l
    000023AD F8 0E            [12] 7712 	ldhl	sp,	#14
    000023AF 77               [ 8] 7713 	ld	(hl), a
    000023B0 E1               [12] 7714 	pop	hl
    000023B1 7C               [ 4] 7715 	ld	a, h
    000023B2 F8 0D            [12] 7716 	ldhl	sp,	#13
    000023B4 32               [ 8] 7717 	ld	(hl-), a
    000023B5 2A               [ 8] 7718 	ld	a, (hl+)
    000023B6 5F               [ 4] 7719 	ld	e, a
    000023B7 56               [ 8] 7720 	ld	d, (hl)
    000023B8 21 03 00         [12] 7721 	ld	hl, #0x0003
    000023BB 19               [ 8] 7722 	add	hl, de
    000023BC E5               [16] 7723 	push	hl
    000023BD 7D               [ 4] 7724 	ld	a, l
    000023BE F8 0C            [12] 7725 	ldhl	sp,	#12
    000023C0 77               [ 8] 7726 	ld	(hl), a
    000023C1 E1               [12] 7727 	pop	hl
    000023C2 7C               [ 4] 7728 	ld	a, h
    000023C3 F8 0B            [12] 7729 	ldhl	sp,	#11
    000023C5 32               [ 8] 7730 	ld	(hl-), a
    000023C6 2A               [ 8] 7731 	ld	a, (hl+)
    000023C7 66               [ 8] 7732 	ld	h, (hl)
    000023C8 6F               [ 4] 7733 	ld	l, a
    000023C9 36 00            [12] 7734 	ld	(hl), #0x00
                                   7735 ;kaijugaiden.c:1259: plat_set_sprite(id_base+3, mx+TILE_W,    my+TILE_H,    SPR_MINION+3, 0);
    000023CB                       7736 00117$:
                                   7737 ;kaijugaiden.c:1241: for (u8 i = 0; i < MINION_MAX; ++i) {
    000023CB F8 0E            [12] 7738 	ldhl	sp,	#14
    000023CD 34               [12] 7739 	inc	(hl)
    000023CE C3r1Dr20         [16] 7740 	jp	00136$
    000023D1                       7741 00137$:
                                   7742 ;kaijugaiden.c:1261: }
    000023D1 E8 0F            [16] 7743 	add	sp, #15
    000023D3 C9               [16] 7744 	ret
                                   7745 ;kaijugaiden.c:1264: static void spr_draw_fx(void) {
                                   7746 ;	---------------------------------
                                   7747 ; Function spr_draw_fx
                                   7748 ; ---------------------------------
    000023D4                       7749 _spr_draw_fx:
    000023D4 E8 FD            [16] 7750 	add	sp, #-3
                                   7751 ;kaijugaiden.c:1265: if (gs.fx_hit_timer > 0) {
    000023D6 FAr72r00         [16] 7752 	ld	a, (#(_gs + 114) + 0)
    000023D9 B7               [ 4] 7753 	or	a, a
    000023DA 28 50            [12] 7754 	jr	Z, 00102$
                                   7755 ;kaijugaiden.c:1266: s16 fx_hit_x = camera_apply_x(gs.fx_hit_x);
    000023DC 21r70r00         [12] 7756 	ld	hl, #_gs + 112
    000023DF 5E               [ 8] 7757 	ld	e, (hl)
    000023E0 AF               [ 4] 7758 	xor	a, a
    000023E1 57               [ 4] 7759 	ld	d, a
    000023E2 CDrF9r12         [24] 7760 	call	_camera_apply_x
    000023E5 E1               [12] 7761 	pop	hl
    000023E6 C5               [16] 7762 	push	bc
                                   7763 ;kaijugaiden.c:1267: s16 fx_hit_y = camera_apply_y(gs.fx_hit_y);
    000023E7 21r71r00         [12] 7764 	ld	hl, #_gs + 113
    000023EA 5E               [ 8] 7765 	ld	e, (hl)
    000023EB AF               [ 4] 7766 	xor	a, a
    000023EC 57               [ 4] 7767 	ld	d, a
    000023ED CDr14r13         [24] 7768 	call	_camera_apply_y
                                   7769 ;kaijugaiden.c:1268: plat_set_sprite(34, fx_hit_x,          fx_hit_y,   SPR_FX_HIT+0, 0);
    000023F0 79               [ 4] 7770 	ld	a, c
    000023F1 F8 00            [12] 7771 	ldhl	sp,	#0
    000023F3 6E               [ 8] 7772 	ld	l, (hl)
                                   7773 ;kaijugaiden.c:149: move_sprite(id, x + 8, y + 16);   /* GBDK uses offset convention */
    000023F4 C6 10            [ 8] 7774 	add	a, #0x10
    000023F6 5F               [ 4] 7775 	ld	e, a
    000023F7 7D               [ 4] 7776 	ld	a, l
    000023F8 C6 08            [ 8] 7777 	add	a, #0x08
    000023FA F8 02            [12] 7778 	ldhl	sp,	#2
    000023FC 77               [ 8] 7779 	ld	(hl), a
                                   7780 ;c:\users\rrcar\documents\driptech\.tools\gbdk\gbdk\include\gb\gb.h:1973: OAM_item_t * itm = &shadow_OAM[nb];
    000023FD 21r88r00         [12] 7781 	ld	hl, #(_shadow_OAM + 136)
                                   7782 ;c:\users\rrcar\documents\driptech\.tools\gbdk\gbdk\include\gb\gb.h:1974: itm->y=y, itm->x=x;
    00002400 73               [ 8] 7783 	ld	(hl), e
    00002401 11r89r00         [12] 7784 	ld	de, #(_shadow_OAM + 137)
    00002404 F8 02            [12] 7785 	ldhl	sp,	#2
    00002406 7E               [ 8] 7786 	ld	a, (hl)
    00002407 12               [ 8] 7787 	ld	(de), a
                                   7788 ;c:\users\rrcar\documents\driptech\.tools\gbdk\gbdk\include\gb\gb.h:1887: shadow_OAM[nb].tile=tile;
    00002408 21r8Ar00         [12] 7789 	ld	hl, #(_shadow_OAM + 138)
                                   7790 ;c:\users\rrcar\documents\driptech\.tools\gbdk\gbdk\include\gb\gb.h:1946: shadow_OAM[nb].prop=prop;
    0000240B 3E 2E            [ 8] 7791 	ld	a, #0x2e
    0000240D 22               [ 8] 7792 	ld	(hl+), a
    0000240E 36 00            [12] 7793 	ld	(hl), #0x00
                                   7794 ;kaijugaiden.c:1269: plat_set_sprite(35, fx_hit_x+TILE_W,   fx_hit_y,   SPR_FX_HIT+1, 0);
    00002410 F8 00            [12] 7795 	ldhl	sp,	#0
    00002412 7E               [ 8] 7796 	ld	a, (hl)
    00002413 C6 08            [ 8] 7797 	add	a, #0x08
    00002415 5F               [ 4] 7798 	ld	e, a
                                   7799 ;kaijugaiden.c:149: move_sprite(id, x + 8, y + 16);   /* GBDK uses offset convention */
    00002416 79               [ 4] 7800 	ld	a, c
    00002417 C6 10            [ 8] 7801 	add	a, #0x10
    00002419 47               [ 4] 7802 	ld	b, a
    0000241A 7B               [ 4] 7803 	ld	a, e
    0000241B C6 08            [ 8] 7804 	add	a, #0x08
    0000241D 4F               [ 4] 7805 	ld	c, a
                                   7806 ;c:\users\rrcar\documents\driptech\.tools\gbdk\gbdk\include\gb\gb.h:1973: OAM_item_t * itm = &shadow_OAM[nb];
    0000241E 21r8Cr00         [12] 7807 	ld	hl, #(_shadow_OAM + 140)
                                   7808 ;c:\users\rrcar\documents\driptech\.tools\gbdk\gbdk\include\gb\gb.h:1974: itm->y=y, itm->x=x;
    00002421 78               [ 4] 7809 	ld	a, b
    00002422 22               [ 8] 7810 	ld	(hl+), a
    00002423 71               [ 8] 7811 	ld	(hl), c
                                   7812 ;c:\users\rrcar\documents\driptech\.tools\gbdk\gbdk\include\gb\gb.h:1887: shadow_OAM[nb].tile=tile;
    00002424 21r8Er00         [12] 7813 	ld	hl, #(_shadow_OAM + 142)
                                   7814 ;c:\users\rrcar\documents\driptech\.tools\gbdk\gbdk\include\gb\gb.h:1946: shadow_OAM[nb].prop=prop;
    00002427 3E 2F            [ 8] 7815 	ld	a, #0x2f
    00002429 22               [ 8] 7816 	ld	(hl+), a
    0000242A 36 00            [12] 7817 	ld	(hl), #0x00
                                   7818 ;kaijugaiden.c:1269: plat_set_sprite(35, fx_hit_x+TILE_W,   fx_hit_y,   SPR_FX_HIT+1, 0);
    0000242C                       7819 00102$:
                                   7820 ;kaijugaiden.c:1271: if (gs.fx_nano_timer > 0) {
    0000242C FAr75r00         [16] 7821 	ld	a, (#(_gs + 117) + 0)
    0000242F B7               [ 4] 7822 	or	a, a
    00002430 28 50            [12] 7823 	jr	Z, 00121$
                                   7824 ;kaijugaiden.c:1272: s16 fx_nano_x = camera_apply_x(gs.fx_nano_x);
    00002432 21r73r00         [12] 7825 	ld	hl, #_gs + 115
    00002435 5E               [ 8] 7826 	ld	e, (hl)
    00002436 AF               [ 4] 7827 	xor	a, a
    00002437 57               [ 4] 7828 	ld	d, a
    00002438 CDrF9r12         [24] 7829 	call	_camera_apply_x
    0000243B E1               [12] 7830 	pop	hl
    0000243C C5               [16] 7831 	push	bc
                                   7832 ;kaijugaiden.c:1273: s16 fx_nano_y = camera_apply_y(gs.fx_nano_y);
    0000243D 21r74r00         [12] 7833 	ld	hl, #_gs + 116
    00002440 5E               [ 8] 7834 	ld	e, (hl)
    00002441 AF               [ 4] 7835 	xor	a, a
    00002442 57               [ 4] 7836 	ld	d, a
    00002443 CDr14r13         [24] 7837 	call	_camera_apply_y
                                   7838 ;kaijugaiden.c:1274: plat_set_sprite(36, fx_nano_x,          fx_nano_y,  SPR_FX_NANO+0, 0);
    00002446 79               [ 4] 7839 	ld	a, c
    00002447 F8 00            [12] 7840 	ldhl	sp,	#0
    00002449 6E               [ 8] 7841 	ld	l, (hl)
                                   7842 ;kaijugaiden.c:149: move_sprite(id, x + 8, y + 16);   /* GBDK uses offset convention */
    0000244A C6 10            [ 8] 7843 	add	a, #0x10
    0000244C 5F               [ 4] 7844 	ld	e, a
    0000244D 7D               [ 4] 7845 	ld	a, l
    0000244E C6 08            [ 8] 7846 	add	a, #0x08
    00002450 F8 02            [12] 7847 	ldhl	sp,	#2
    00002452 77               [ 8] 7848 	ld	(hl), a
                                   7849 ;c:\users\rrcar\documents\driptech\.tools\gbdk\gbdk\include\gb\gb.h:1973: OAM_item_t * itm = &shadow_OAM[nb];
    00002453 21r90r00         [12] 7850 	ld	hl, #(_shadow_OAM + 144)
                                   7851 ;c:\users\rrcar\documents\driptech\.tools\gbdk\gbdk\include\gb\gb.h:1974: itm->y=y, itm->x=x;
    00002456 73               [ 8] 7852 	ld	(hl), e
    00002457 11r91r00         [12] 7853 	ld	de, #(_shadow_OAM + 145)
    0000245A F8 02            [12] 7854 	ldhl	sp,	#2
    0000245C 7E               [ 8] 7855 	ld	a, (hl)
    0000245D 12               [ 8] 7856 	ld	(de), a
                                   7857 ;c:\users\rrcar\documents\driptech\.tools\gbdk\gbdk\include\gb\gb.h:1887: shadow_OAM[nb].tile=tile;
    0000245E 21r92r00         [12] 7858 	ld	hl, #(_shadow_OAM + 146)
                                   7859 ;c:\users\rrcar\documents\driptech\.tools\gbdk\gbdk\include\gb\gb.h:1946: shadow_OAM[nb].prop=prop;
    00002461 3E 30            [ 8] 7860 	ld	a, #0x30
    00002463 22               [ 8] 7861 	ld	(hl+), a
    00002464 36 00            [12] 7862 	ld	(hl), #0x00
                                   7863 ;kaijugaiden.c:1275: plat_set_sprite(37, fx_nano_x+TILE_W,   fx_nano_y,  SPR_FX_NANO+1, 0);
    00002466 F8 00            [12] 7864 	ldhl	sp,	#0
    00002468 7E               [ 8] 7865 	ld	a, (hl)
    00002469 C6 08            [ 8] 7866 	add	a, #0x08
    0000246B 5F               [ 4] 7867 	ld	e, a
                                   7868 ;kaijugaiden.c:149: move_sprite(id, x + 8, y + 16);   /* GBDK uses offset convention */
    0000246C 79               [ 4] 7869 	ld	a, c
    0000246D C6 10            [ 8] 7870 	add	a, #0x10
    0000246F 47               [ 4] 7871 	ld	b, a
    00002470 7B               [ 4] 7872 	ld	a, e
    00002471 C6 08            [ 8] 7873 	add	a, #0x08
    00002473 4F               [ 4] 7874 	ld	c, a
                                   7875 ;c:\users\rrcar\documents\driptech\.tools\gbdk\gbdk\include\gb\gb.h:1973: OAM_item_t * itm = &shadow_OAM[nb];
    00002474 21r94r00         [12] 7876 	ld	hl, #(_shadow_OAM + 148)
                                   7877 ;c:\users\rrcar\documents\driptech\.tools\gbdk\gbdk\include\gb\gb.h:1974: itm->y=y, itm->x=x;
    00002477 78               [ 4] 7878 	ld	a, b
    00002478 22               [ 8] 7879 	ld	(hl+), a
    00002479 71               [ 8] 7880 	ld	(hl), c
                                   7881 ;c:\users\rrcar\documents\driptech\.tools\gbdk\gbdk\include\gb\gb.h:1887: shadow_OAM[nb].tile=tile;
    0000247A 21r96r00         [12] 7882 	ld	hl, #(_shadow_OAM + 150)
                                   7883 ;c:\users\rrcar\documents\driptech\.tools\gbdk\gbdk\include\gb\gb.h:1946: shadow_OAM[nb].prop=prop;
    0000247D 3E 31            [ 8] 7884 	ld	a, #0x31
    0000247F 22               [ 8] 7885 	ld	(hl+), a
    00002480 36 00            [12] 7886 	ld	(hl), #0x00
                                   7887 ;kaijugaiden.c:1275: plat_set_sprite(37, fx_nano_x+TILE_W,   fx_nano_y,  SPR_FX_NANO+1, 0);
    00002482                       7888 00121$:
                                   7889 ;kaijugaiden.c:1277: }
    00002482 E8 03            [16] 7890 	add	sp, #3
    00002484 C9               [16] 7891 	ret
                                   7892 ;kaijugaiden.c:1281: static void spr_draw_cinematic(void) {
                                   7893 ;	---------------------------------
                                   7894 ; Function spr_draw_cinematic
                                   7895 ; ---------------------------------
    00002485                       7896 _spr_draw_cinematic:
    00002485 E8 F0            [16] 7897 	add	sp, #-16
                                   7898 ;kaijugaiden.c:1283: s16 ay = (s16)(SCR_H/2 - 24 + (gs.cut_frame % 2) * 2);
    00002487 FAr65r00         [16] 7899 	ld	a, (#(_gs + 101) + 0)
    0000248A E6 01            [ 8] 7900 	and	a, #0x01
    0000248C 87               [ 4] 7901 	add	a, a
    0000248D 4F               [ 4] 7902 	ld	c, a
    0000248E C6 30            [ 8] 7903 	add	a, #0x30
    00002490 F8 02            [12] 7904 	ldhl	sp,	#2
                                   7905 ;kaijugaiden.c:1284: s16 by_pos = (s16)(SCR_H/2 - 24 - (gs.cut_frame % 2) * 2);
    00002492 22               [ 8] 7906 	ld	(hl+), a
    00002493 3E 30            [ 8] 7907 	ld	a, #0x30
    00002495 91               [ 4] 7908 	sub	a, c
    00002496 77               [ 8] 7909 	ld	(hl), a
                                   7910 ;kaijugaiden.c:1285: for (u8 row = 0; row < 4; ++row)
    00002497 F8 0E            [12] 7911 	ldhl	sp,	#14
    00002499 36 00            [12] 7912 	ld	(hl), #0x00
    0000249B                       7913 00115$:
    0000249B F8 0E            [12] 7914 	ldhl	sp,	#14
    0000249D 7E               [ 8] 7915 	ld	a, (hl)
    0000249E D6 04            [ 8] 7916 	sub	a, #0x04
    000024A0 D2r06r26         [16] 7917 	jp	NC, 00117$
                                   7918 ;kaijugaiden.c:1286: for (u8 col = 0; col < 3; ++col) {
    000024A3 23               [ 8] 7919 	inc	hl
    000024A4 36 00            [12] 7920 	ld	(hl), #0x00
    000024A6                       7921 00112$:
    000024A6 F8 0F            [12] 7922 	ldhl	sp,	#15
    000024A8 7E               [ 8] 7923 	ld	a, (hl)
    000024A9 D6 03            [ 8] 7924 	sub	a, #0x03
    000024AB D2r00r26         [16] 7925 	jp	NC, 00116$
                                   7926 ;kaijugaiden.c:1290: SPR_CINEMATIC_A + row*3+col, 0x00);
    000024AE 2B               [ 8] 7927 	dec	hl
    000024AF 4E               [ 8] 7928 	ld	c, (hl)
    000024B0 79               [ 4] 7929 	ld	a, c
    000024B1 87               [ 4] 7930 	add	a, a
    000024B2 81               [ 4] 7931 	add	a, c
    000024B3 F8 04            [12] 7932 	ldhl	sp,	#4
    000024B5 77               [ 8] 7933 	ld	(hl), a
    000024B6 7E               [ 8] 7934 	ld	a, (hl)
    000024B7 C6 32            [ 8] 7935 	add	a, #0x32
    000024B9 47               [ 4] 7936 	ld	b, a
    000024BA F8 0F            [12] 7937 	ldhl	sp,	#15
    000024BC 7E               [ 8] 7938 	ld	a, (hl)
    000024BD F8 05            [12] 7939 	ldhl	sp,	#5
    000024BF 22               [ 8] 7940 	ld	(hl+), a
    000024C0 80               [ 4] 7941 	add	a, b
                                   7942 ;kaijugaiden.c:1289: 8  + col * TILE_W, (u8)(ay + row * TILE_H),
    000024C1 22               [ 8] 7943 	ld	(hl+), a
    000024C2 79               [ 4] 7944 	ld	a, c
    000024C3 87               [ 4] 7945 	add	a, a
    000024C4 87               [ 4] 7946 	add	a, a
    000024C5 87               [ 4] 7947 	add	a, a
    000024C6 77               [ 8] 7948 	ld	(hl), a
    000024C7 F8 02            [12] 7949 	ldhl	sp,	#2
    000024C9 7E               [ 8] 7950 	ld	a, (hl)
    000024CA F8 07            [12] 7951 	ldhl	sp,	#7
    000024CC 86               [ 8] 7952 	add	a, (hl)
    000024CD 4F               [ 4] 7953 	ld	c, a
    000024CE F8 0F            [12] 7954 	ldhl	sp,	#15
    000024D0 7E               [ 8] 7955 	ld	a, (hl)
    000024D1 87               [ 4] 7956 	add	a, a
    000024D2 87               [ 4] 7957 	add	a, a
    000024D3 87               [ 4] 7958 	add	a, a
    000024D4 C6 08            [ 8] 7959 	add	a, #0x08
    000024D6 47               [ 4] 7960 	ld	b, a
                                   7961 ;kaijugaiden.c:1288: plat_set_sprite(row*3+col,
    000024D7 F8 04            [12] 7962 	ldhl	sp,	#4
    000024D9 2A               [ 8] 7963 	ld	a, (hl+)
    000024DA 86               [ 8] 7964 	add	a, (hl)
    000024DB 5F               [ 4] 7965 	ld	e, a
                                   7966 ;kaijugaiden.c:149: move_sprite(id, x + 8, y + 16);   /* GBDK uses offset convention */
    000024DC 79               [ 4] 7967 	ld	a, c
    000024DD C6 10            [ 8] 7968 	add	a, #0x10
    000024DF F8 08            [12] 7969 	ldhl	sp,	#8
    000024E1 22               [ 8] 7970 	ld	(hl+), a
    000024E2 78               [ 4] 7971 	ld	a, b
    000024E3 C6 08            [ 8] 7972 	add	a, #0x08
                                   7973 ;c:\users\rrcar\documents\driptech\.tools\gbdk\gbdk\include\gb\gb.h:1973: OAM_item_t * itm = &shadow_OAM[nb];
    000024E5 22               [ 8] 7974 	ld	(hl+), a
    000024E6 AF               [ 4] 7975 	xor	a, a
    000024E7 CB 23            [ 8] 7976 	sla	e
    000024E9 8F               [ 4] 7977 	adc	a, a
    000024EA CB 23            [ 8] 7978 	sla	e
    000024EC 8F               [ 4] 7979 	adc	a, a
    000024ED 73               [ 8] 7980 	ld	(hl), e
    000024EE 23               [ 8] 7981 	inc	hl
    000024EF 77               [ 8] 7982 	ld	(hl), a
    000024F0 11r00r00         [12] 7983 	ld	de, #_shadow_OAM
    000024F3 3A               [ 8] 7984 	ld	a, (hl-)
    000024F4 6E               [ 8] 7985 	ld	l, (hl)
    000024F5 67               [ 4] 7986 	ld	h, a
    000024F6 19               [ 8] 7987 	add	hl, de
    000024F7 E5               [16] 7988 	push	hl
    000024F8 7D               [ 4] 7989 	ld	a, l
    000024F9 F8 0E            [12] 7990 	ldhl	sp,	#14
    000024FB 77               [ 8] 7991 	ld	(hl), a
    000024FC E1               [12] 7992 	pop	hl
    000024FD 7C               [ 4] 7993 	ld	a, h
    000024FE F8 0D            [12] 7994 	ldhl	sp,	#13
                                   7995 ;c:\users\rrcar\documents\driptech\.tools\gbdk\gbdk\include\gb\gb.h:1974: itm->y=y, itm->x=x;
    00002500 32               [ 8] 7996 	ld	(hl-), a
    00002501 2A               [ 8] 7997 	ld	a, (hl+)
    00002502 5F               [ 4] 7998 	ld	e, a
    00002503 56               [ 8] 7999 	ld	d, (hl)
    00002504 F8 08            [12] 8000 	ldhl	sp,	#8
    00002506 7E               [ 8] 8001 	ld	a, (hl)
    00002507 12               [ 8] 8002 	ld	(de), a
    00002508 F8 0C            [12] 8003 	ldhl	sp,#12
    0000250A 2A               [ 8] 8004 	ld	a, (hl+)
    0000250B 5F               [ 4] 8005 	ld	e, a
    0000250C 56               [ 8] 8006 	ld	d, (hl)
    0000250D 6B               [ 4] 8007 	ld	l, e
    0000250E 62               [ 4] 8008 	ld	h, d
    0000250F 23               [ 8] 8009 	inc	hl
    00002510 33               [ 8] 8010 	inc	sp
    00002511 33               [ 8] 8011 	inc	sp
    00002512 5D               [ 4] 8012 	ld	e, l
    00002513 54               [ 4] 8013 	ld	d, h
    00002514 D5               [16] 8014 	push	de
    00002515 F8 09            [12] 8015 	ldhl	sp,	#9
                                   8016 ;c:\users\rrcar\documents\driptech\.tools\gbdk\gbdk\include\gb\gb.h:1887: shadow_OAM[nb].tile=tile;
    00002517 2A               [ 8] 8017 	ld	a, (hl+)
    00002518 12               [ 8] 8018 	ld	(de), a
    00002519 11r00r00         [12] 8019 	ld	de, #_shadow_OAM
    0000251C 2A               [ 8] 8020 	ld	a,	(hl+)
    0000251D 66               [ 8] 8021 	ld	h, (hl)
    0000251E 6F               [ 4] 8022 	ld	l, a
    0000251F 19               [ 8] 8023 	add	hl, de
    00002520 E5               [16] 8024 	push	hl
    00002521 7D               [ 4] 8025 	ld	a, l
    00002522 F8 0A            [12] 8026 	ldhl	sp,	#10
    00002524 77               [ 8] 8027 	ld	(hl), a
    00002525 E1               [12] 8028 	pop	hl
    00002526 7C               [ 4] 8029 	ld	a, h
    00002527 F8 09            [12] 8030 	ldhl	sp,	#9
    00002529 32               [ 8] 8031 	ld	(hl-), a
    0000252A 2A               [ 8] 8032 	ld	a, (hl+)
    0000252B 5F               [ 4] 8033 	ld	e, a
    0000252C 56               [ 8] 8034 	ld	d, (hl)
    0000252D 21 02 00         [12] 8035 	ld	hl, #0x0002
    00002530 19               [ 8] 8036 	add	hl, de
    00002531 E5               [16] 8037 	push	hl
    00002532 7D               [ 4] 8038 	ld	a, l
    00002533 F8 0E            [12] 8039 	ldhl	sp,	#14
    00002535 77               [ 8] 8040 	ld	(hl), a
    00002536 E1               [12] 8041 	pop	hl
    00002537 7C               [ 4] 8042 	ld	a, h
    00002538 F8 0D            [12] 8043 	ldhl	sp,	#13
    0000253A 32               [ 8] 8044 	ld	(hl-), a
    0000253B 2A               [ 8] 8045 	ld	a, (hl+)
    0000253C 5F               [ 4] 8046 	ld	e, a
    0000253D 56               [ 8] 8047 	ld	d, (hl)
    0000253E F8 06            [12] 8048 	ldhl	sp,	#6
    00002540 7E               [ 8] 8049 	ld	a, (hl)
    00002541 12               [ 8] 8050 	ld	(de), a
                                   8051 ;c:\users\rrcar\documents\driptech\.tools\gbdk\gbdk\include\gb\gb.h:1946: shadow_OAM[nb].prop=prop;
    00002542 11r00r00         [12] 8052 	ld	de, #_shadow_OAM
    00002545 F8 0A            [12] 8053 	ldhl	sp,	#10
    00002547 2A               [ 8] 8054 	ld	a,	(hl+)
    00002548 66               [ 8] 8055 	ld	h, (hl)
    00002549 6F               [ 4] 8056 	ld	l, a
    0000254A 19               [ 8] 8057 	add	hl, de
    0000254B E5               [16] 8058 	push	hl
    0000254C 7D               [ 4] 8059 	ld	a, l
    0000254D F8 0E            [12] 8060 	ldhl	sp,	#14
    0000254F 77               [ 8] 8061 	ld	(hl), a
    00002550 E1               [12] 8062 	pop	hl
    00002551 7C               [ 4] 8063 	ld	a, h
    00002552 F8 0D            [12] 8064 	ldhl	sp,	#13
    00002554 32               [ 8] 8065 	ld	(hl-), a
    00002555 2A               [ 8] 8066 	ld	a, (hl+)
    00002556 5F               [ 4] 8067 	ld	e, a
    00002557 56               [ 8] 8068 	ld	d, (hl)
    00002558 21 03 00         [12] 8069 	ld	hl, #0x0003
    0000255B 19               [ 8] 8070 	add	hl, de
    0000255C E5               [16] 8071 	push	hl
    0000255D 7D               [ 4] 8072 	ld	a, l
    0000255E F8 0C            [12] 8073 	ldhl	sp,	#12
    00002560 77               [ 8] 8074 	ld	(hl), a
    00002561 E1               [12] 8075 	pop	hl
    00002562 7C               [ 4] 8076 	ld	a, h
    00002563 F8 0B            [12] 8077 	ldhl	sp,	#11
    00002565 32               [ 8] 8078 	ld	(hl-), a
    00002566 2A               [ 8] 8079 	ld	a, (hl+)
    00002567 66               [ 8] 8080 	ld	h, (hl)
    00002568 6F               [ 4] 8081 	ld	l, a
    00002569 36 00            [12] 8082 	ld	(hl), #0x00
                                   8083 ;kaijugaiden.c:1294: SPR_CINEMATIC_B + row*3+col, 0x20);
    0000256B F8 04            [12] 8084 	ldhl	sp,	#4
    0000256D 7E               [ 8] 8085 	ld	a, (hl)
    0000256E C6 3E            [ 8] 8086 	add	a, #0x3e
    00002570 F8 0D            [12] 8087 	ldhl	sp,	#13
    00002572 77               [ 8] 8088 	ld	(hl), a
    00002573 7E               [ 8] 8089 	ld	a, (hl)
    00002574 F8 05            [12] 8090 	ldhl	sp,	#5
    00002576 86               [ 8] 8091 	add	a, (hl)
    00002577 F8 0D            [12] 8092 	ldhl	sp,	#13
    00002579 77               [ 8] 8093 	ld	(hl), a
                                   8094 ;kaijugaiden.c:1293: 92 + (2-col) * TILE_W, (u8)(by_pos + row * TILE_H),
    0000257A F8 07            [12] 8095 	ldhl	sp,	#7
    0000257C 7E               [ 8] 8096 	ld	a, (hl)
    0000257D F8 03            [12] 8097 	ldhl	sp,	#3
    0000257F 86               [ 8] 8098 	add	a, (hl)
    00002580 F8 0A            [12] 8099 	ldhl	sp,	#10
    00002582 77               [ 8] 8100 	ld	(hl), a
    00002583 3E 02            [ 8] 8101 	ld	a, #0x02
    00002585 F8 05            [12] 8102 	ldhl	sp,	#5
    00002587 96               [ 8] 8103 	sub	a, (hl)
    00002588 87               [ 4] 8104 	add	a, a
    00002589 87               [ 4] 8105 	add	a, a
    0000258A 87               [ 4] 8106 	add	a, a
    0000258B C6 5C            [ 8] 8107 	add	a, #0x5c
    0000258D F8 0B            [12] 8108 	ldhl	sp,	#11
    0000258F 77               [ 8] 8109 	ld	(hl), a
                                   8110 ;kaijugaiden.c:1292: plat_set_sprite(12 + row*3+col,
    00002590 F8 04            [12] 8111 	ldhl	sp,	#4
    00002592 7E               [ 8] 8112 	ld	a, (hl)
    00002593 C6 0C            [ 8] 8113 	add	a, #0x0c
    00002595 F8 0C            [12] 8114 	ldhl	sp,	#12
    00002597 77               [ 8] 8115 	ld	(hl), a
    00002598 7E               [ 8] 8116 	ld	a, (hl)
    00002599 F8 05            [12] 8117 	ldhl	sp,	#5
    0000259B 86               [ 8] 8118 	add	a, (hl)
    0000259C F8 0C            [12] 8119 	ldhl	sp,	#12
                                   8120 ;kaijugaiden.c:149: move_sprite(id, x + 8, y + 16);   /* GBDK uses offset convention */
    0000259E 32               [ 8] 8121 	ld	(hl-), a
    0000259F 2B               [ 8] 8122 	dec	hl
    000025A0 7E               [ 8] 8123 	ld	a, (hl)
    000025A1 C6 10            [ 8] 8124 	add	a, #0x10
    000025A3 22               [ 8] 8125 	ld	(hl+), a
                                   8126 ;c:\users\rrcar\documents\driptech\.tools\gbdk\gbdk\include\gb\gb.h:1973: OAM_item_t * itm = &shadow_OAM[nb];
    000025A4 2A               [ 8] 8127 	ld	a, (hl+)
    000025A5 C6 08            [ 8] 8128 	add	a, #0x08
    000025A7 4F               [ 4] 8129 	ld	c, a
    000025A8 11r00r00         [12] 8130 	ld	de, #_shadow_OAM+0
    000025AB 3A               [ 8] 8131 	ld	a, (hl-)
    000025AC 47               [ 4] 8132 	ld	b, a
    000025AD AF               [ 4] 8133 	xor	a, a
    000025AE CB 20            [ 8] 8134 	sla	b
    000025B0 8F               [ 4] 8135 	adc	a, a
    000025B1 CB 20            [ 8] 8136 	sla	b
    000025B3 8F               [ 4] 8137 	adc	a, a
    000025B4 70               [ 8] 8138 	ld	(hl), b
    000025B5 23               [ 8] 8139 	inc	hl
    000025B6 32               [ 8] 8140 	ld	(hl-), a
    000025B7 2A               [ 8] 8141 	ld	a,	(hl+)
    000025B8 66               [ 8] 8142 	ld	h, (hl)
    000025B9 6F               [ 4] 8143 	ld	l, a
    000025BA 19               [ 8] 8144 	add	hl, de
    000025BB 5D               [ 4] 8145 	ld	e, l
    000025BC 54               [ 4] 8146 	ld	d, h
                                   8147 ;c:\users\rrcar\documents\driptech\.tools\gbdk\gbdk\include\gb\gb.h:1974: itm->y=y, itm->x=x;
    000025BD F8 0A            [12] 8148 	ldhl	sp,	#10
                                   8149 ;c:\users\rrcar\documents\driptech\.tools\gbdk\gbdk\include\gb\gb.h:1887: shadow_OAM[nb].tile=tile;
    000025BF 2A               [ 8] 8150 	ld	a, (hl+)
    000025C0 12               [ 8] 8151 	ld	(de), a
    000025C1 13               [ 8] 8152 	inc	de
    000025C2 79               [ 4] 8153 	ld	a, c
    000025C3 12               [ 8] 8154 	ld	(de), a
    000025C4 01r00r00         [12] 8155 	ld	bc, #_shadow_OAM+0
    000025C7 2A               [ 8] 8156 	ld	a,	(hl+)
    000025C8 66               [ 8] 8157 	ld	h, (hl)
    000025C9 6F               [ 4] 8158 	ld	l, a
    000025CA 09               [ 8] 8159 	add	hl, bc
    000025CB 23               [ 8] 8160 	inc	hl
    000025CC 23               [ 8] 8161 	inc	hl
    000025CD 4D               [ 4] 8162 	ld	c, l
    000025CE 44               [ 4] 8163 	ld	b, h
    000025CF F8 0D            [12] 8164 	ldhl	sp,	#13
                                   8165 ;c:\users\rrcar\documents\driptech\.tools\gbdk\gbdk\include\gb\gb.h:1946: shadow_OAM[nb].prop=prop;
    000025D1 3A               [ 8] 8166 	ld	a, (hl-)
    000025D2 02               [ 8] 8167 	ld	(bc), a
    000025D3 11r00r00         [12] 8168 	ld	de, #_shadow_OAM
    000025D6 3A               [ 8] 8169 	ld	a, (hl-)
    000025D7 6E               [ 8] 8170 	ld	l, (hl)
    000025D8 67               [ 4] 8171 	ld	h, a
    000025D9 19               [ 8] 8172 	add	hl, de
    000025DA E5               [16] 8173 	push	hl
    000025DB 7D               [ 4] 8174 	ld	a, l
    000025DC F8 0B            [12] 8175 	ldhl	sp,	#11
    000025DE 77               [ 8] 8176 	ld	(hl), a
    000025DF E1               [12] 8177 	pop	hl
    000025E0 7C               [ 4] 8178 	ld	a, h
    000025E1 F8 0A            [12] 8179 	ldhl	sp,	#10
    000025E3 32               [ 8] 8180 	ld	(hl-), a
    000025E4 2A               [ 8] 8181 	ld	a, (hl+)
    000025E5 5F               [ 4] 8182 	ld	e, a
    000025E6 56               [ 8] 8183 	ld	d, (hl)
    000025E7 21 03 00         [12] 8184 	ld	hl, #0x0003
    000025EA 19               [ 8] 8185 	add	hl, de
    000025EB E5               [16] 8186 	push	hl
    000025EC 7D               [ 4] 8187 	ld	a, l
    000025ED F8 0E            [12] 8188 	ldhl	sp,	#14
    000025EF 77               [ 8] 8189 	ld	(hl), a
    000025F0 E1               [12] 8190 	pop	hl
    000025F1 7C               [ 4] 8191 	ld	a, h
    000025F2 F8 0D            [12] 8192 	ldhl	sp,	#13
    000025F4 32               [ 8] 8193 	ld	(hl-), a
    000025F5 2A               [ 8] 8194 	ld	a, (hl+)
    000025F6 66               [ 8] 8195 	ld	h, (hl)
    000025F7 6F               [ 4] 8196 	ld	l, a
    000025F8 36 20            [12] 8197 	ld	(hl), #0x20
                                   8198 ;kaijugaiden.c:1286: for (u8 col = 0; col < 3; ++col) {
    000025FA F8 0F            [12] 8199 	ldhl	sp,	#15
    000025FC 34               [12] 8200 	inc	(hl)
    000025FD C3rA6r24         [16] 8201 	jp	00112$
    00002600                       8202 00116$:
                                   8203 ;kaijugaiden.c:1285: for (u8 row = 0; row < 4; ++row)
    00002600 F8 0E            [12] 8204 	ldhl	sp,	#14
    00002602 34               [12] 8205 	inc	(hl)
    00002603 C3r9Br24         [16] 8206 	jp	00115$
    00002606                       8207 00117$:
                                   8208 ;kaijugaiden.c:1296: }
    00002606 E8 10            [16] 8209 	add	sp, #16
    00002608 C9               [16] 8210 	ret
                                   8211 ;kaijugaiden.c:1299: static void spr_hide_all(void) {
                                   8212 ;	---------------------------------
                                   8213 ; Function spr_hide_all
                                   8214 ; ---------------------------------
    00002609                       8215 _spr_hide_all:
                                   8216 ;kaijugaiden.c:1304: for (u8 i = 0; i < 40; ++i) { move_sprite(i, 0, 0); }
    00002609 0E 00            [ 8] 8217 	ld	c, #0x00
    0000260B                       8218 00104$:
    0000260B 79               [ 4] 8219 	ld	a, c
    0000260C D6 28            [ 8] 8220 	sub	a, #0x28
    0000260E D0               [20] 8221 	ret	NC
                                   8222 ;c:\users\rrcar\documents\driptech\.tools\gbdk\gbdk\include\gb\gb.h:1973: OAM_item_t * itm = &shadow_OAM[nb];
    0000260F 11r00r00         [12] 8223 	ld	de, #_shadow_OAM+0
    00002612 69               [ 4] 8224 	ld	l, c
    00002613 AF               [ 4] 8225 	xor	a, a
    00002614 67               [ 4] 8226 	ld	h, a
    00002615 29               [ 8] 8227 	add	hl, hl
    00002616 29               [ 8] 8228 	add	hl, hl
    00002617 19               [ 8] 8229 	add	hl, de
                                   8230 ;c:\users\rrcar\documents\driptech\.tools\gbdk\gbdk\include\gb\gb.h:1974: itm->y=y, itm->x=x;
    00002618 AF               [ 4] 8231 	xor	a, a
    00002619 22               [ 8] 8232 	ld	(hl+), a
    0000261A 77               [ 8] 8233 	ld	(hl), a
                                   8234 ;kaijugaiden.c:1304: for (u8 i = 0; i < 40; ++i) { move_sprite(i, 0, 0); }
    0000261B 0C               [ 4] 8235 	inc	c
                                   8236 ;kaijugaiden.c:1311: }
    0000261C 18 ED            [12] 8237 	jr	00104$
                                   8238 ;kaijugaiden.c:1318: static void splash_init(void) {
                                   8239 ;	---------------------------------
                                   8240 ; Function splash_init
                                   8241 ; ---------------------------------
    0000261E                       8242 _splash_init:
                                   8243 ;kaijugaiden.c:1319: camera_reset();
    0000261E CDr8Cr12         [24] 8244 	call	_camera_reset
                                   8245 ;kaijugaiden.c:1320: gs.phase_timer = 0;
    00002621 21r4Dr00         [12] 8246 	ld	hl, #(_gs + 77)
    00002624 AF               [ 4] 8247 	xor	a, a
    00002625 22               [ 8] 8248 	ld	(hl+), a
                                   8249 ;kaijugaiden.c:1321: gs.skip_b_hold = 0;
    00002626 22               [ 8] 8250 	ld	(hl+), a
    00002627 36 00            [12] 8251 	ld	(hl), #0x00
                                   8252 ;kaijugaiden.c:1322: spr_hide_all();
    00002629 CDr09r26         [24] 8253 	call	_spr_hide_all
                                   8254 ;kaijugaiden.c:1323: bg_draw_splash();
                                   8255 ;kaijugaiden.c:1324: }
    0000262C C3r25r10         [16] 8256 	jp	_bg_draw_splash
                                   8257 ;kaijugaiden.c:1327: static int splash_update(void) {
                                   8258 ;	---------------------------------
                                   8259 ; Function splash_update
                                   8260 ; ---------------------------------
    0000262F                       8261 _splash_update:
                                   8262 ;kaijugaiden.c:1328: gs.phase_timer++;
    0000262F 21r4Dr00         [12] 8263 	ld	hl, #(_gs + 77)
    00002632 2A               [ 8] 8264 	ld	a, (hl+)
    00002633 4F               [ 4] 8265 	ld	c, a
    00002634 46               [ 8] 8266 	ld	b, (hl)
    00002635 03               [ 8] 8267 	inc	bc
    00002636 21r4Dr00         [12] 8268 	ld	hl, #(_gs + 77)
    00002639 79               [ 4] 8269 	ld	a, c
    0000263A 22               [ 8] 8270 	ld	(hl+), a
    0000263B 70               [ 8] 8271 	ld	(hl), b
                                   8272 ;kaijugaiden.c:136: static inline u8 plat_held(u8 mask)  { return (_joy_cur  & mask) ? 1 : 0; }
    0000263C E5               [16] 8273 	push	hl
    0000263D 21r01r00         [12] 8274 	ld	hl, #__joy_cur
    00002640 CB 4E            [12] 8275 	bit	1, (hl)
    00002642 E1               [12] 8276 	pop	hl
    00002643 1E 01            [ 8] 8277 	ld	e, #0x01
    00002645 20 02            [12] 8278 	jr	NZ, 00117$
    00002647 1E 00            [ 8] 8279 	ld	e, #0x00
    00002649                       8280 00117$:
                                   8281 ;kaijugaiden.c:1329: if (plat_held(BTN_B)) gs.skip_b_hold++;
    00002649 01r4Fr00         [12] 8282 	ld	bc, #_gs + 79
    0000264C 7B               [ 4] 8283 	ld	a, e
    0000264D B7               [ 4] 8284 	or	a, a
    0000264E 28 05            [12] 8285 	jr	Z, 00102$
    00002650 0A               [ 8] 8286 	ld	a, (bc)
    00002651 3C               [ 4] 8287 	inc	a
    00002652 02               [ 8] 8288 	ld	(bc), a
    00002653 18 02            [12] 8289 	jr	00103$
    00002655                       8290 00102$:
                                   8291 ;kaijugaiden.c:1330: else                   gs.skip_b_hold = 0;
    00002655 AF               [ 4] 8292 	xor	a, a
    00002656 02               [ 8] 8293 	ld	(bc), a
    00002657                       8294 00103$:
                                   8295 ;kaijugaiden.c:1332: if (gs.phase_timer >= SPLASH_HOLD_FRAMES) return 1;
    00002657 21r4Dr00         [12] 8296 	ld	hl, #(_gs + 77)
    0000265A 2A               [ 8] 8297 	ld	a,	(hl+)
    0000265B 66               [ 8] 8298 	ld	h, (hl)
    0000265C 6F               [ 4] 8299 	ld	l, a
    0000265D D6 78            [ 8] 8300 	sub	a, #0x78
    0000265F 7C               [ 4] 8301 	ld	a, h
    00002660 DE 00            [ 8] 8302 	sbc	a, #0x00
    00002662 38 04            [12] 8303 	jr	C, 00105$
    00002664 01 01 00         [12] 8304 	ld	bc, #0x0001
    00002667 C9               [16] 8305 	ret
    00002668                       8306 00105$:
                                   8307 ;kaijugaiden.c:138: return ((_joy_cur & mask) && !(_joy_prev & mask)) ? 1 : 0;
    00002668 E5               [16] 8308 	push	hl
    00002669 21r01r00         [12] 8309 	ld	hl, #__joy_cur
    0000266C CB 46            [12] 8310 	bit	0, (hl)
    0000266E E1               [12] 8311 	pop	hl
    0000266F 28 0B            [12] 8312 	jr	Z, 00118$
    00002671 E5               [16] 8313 	push	hl
    00002672 21r00r00         [12] 8314 	ld	hl, #__joy_prev
    00002675 CB 46            [12] 8315 	bit	0, (hl)
    00002677 E1               [12] 8316 	pop	hl
    00002678 3E 01            [ 8] 8317 	ld	a, #0x01
    0000267A 28 01            [12] 8318 	jr	Z, 00119$
    0000267C                       8319 00118$:
    0000267C AF               [ 4] 8320 	xor	a, a
    0000267D                       8321 00119$:
                                   8322 ;kaijugaiden.c:1333: if (plat_pressed(BTN_A) || plat_pressed(BTN_START)) return 1;
    0000267D B7               [ 4] 8323 	or	a, a
    0000267E 20 18            [12] 8324 	jr	NZ, 00106$
                                   8325 ;kaijugaiden.c:138: return ((_joy_cur & mask) && !(_joy_prev & mask)) ? 1 : 0;
    00002680 E5               [16] 8326 	push	hl
    00002681 21r01r00         [12] 8327 	ld	hl, #__joy_cur
    00002684 CB 5E            [12] 8328 	bit	3, (hl)
    00002686 E1               [12] 8329 	pop	hl
    00002687 28 0B            [12] 8330 	jr	Z, 00123$
    00002689 E5               [16] 8331 	push	hl
    0000268A 21r00r00         [12] 8332 	ld	hl, #__joy_prev
    0000268D CB 5E            [12] 8333 	bit	3, (hl)
    0000268F E1               [12] 8334 	pop	hl
    00002690 3E 01            [ 8] 8335 	ld	a, #0x01
    00002692 28 01            [12] 8336 	jr	Z, 00124$
    00002694                       8337 00123$:
    00002694 AF               [ 4] 8338 	xor	a, a
    00002695                       8339 00124$:
                                   8340 ;kaijugaiden.c:1333: if (plat_pressed(BTN_A) || plat_pressed(BTN_START)) return 1;
    00002695 B7               [ 4] 8341 	or	a, a
    00002696 28 04            [12] 8342 	jr	Z, 00107$
    00002698                       8343 00106$:
    00002698 01 01 00         [12] 8344 	ld	bc, #0x0001
    0000269B C9               [16] 8345 	ret
    0000269C                       8346 00107$:
                                   8347 ;kaijugaiden.c:1334: if (gs.skip_b_hold >= SKIP_HOLD_FRAMES) return 1;
    0000269C 0A               [ 8] 8348 	ld	a, (bc)
    0000269D D6 5A            [ 8] 8349 	sub	a, #0x5a
    0000269F 38 04            [12] 8350 	jr	C, 00110$
    000026A1 01 01 00         [12] 8351 	ld	bc, #0x0001
    000026A4 C9               [16] 8352 	ret
    000026A5                       8353 00110$:
                                   8354 ;kaijugaiden.c:1335: return 0;
    000026A5 01 00 00         [12] 8355 	ld	bc, #0x0000
                                   8356 ;kaijugaiden.c:1336: }
    000026A8 C9               [16] 8357 	ret
                                   8358 ;kaijugaiden.c:1361: static void cinematic_init(void) {
                                   8359 ;	---------------------------------
                                   8360 ; Function cinematic_init
                                   8361 ; ---------------------------------
    000026A9                       8362 _cinematic_init:
                                   8363 ;kaijugaiden.c:1362: camera_reset();
    000026A9 CDr8Cr12         [24] 8364 	call	_camera_reset
                                   8365 ;kaijugaiden.c:1363: gs.cut_frame = 0;
    000026AC 21r65r00         [12] 8366 	ld	hl, #_gs + 101
    000026AF 36 00            [12] 8367 	ld	(hl), #0x00
                                   8368 ;kaijugaiden.c:1364: gs.cut_timer = 0;
    000026B1 21r66r00         [12] 8369 	ld	hl, #(_gs + 102)
    000026B4 AF               [ 4] 8370 	xor	a, a
    000026B5 22               [ 8] 8371 	ld	(hl+), a
    000026B6 77               [ 8] 8372 	ld	(hl), a
                                   8373 ;kaijugaiden.c:1365: gs.skip_b_hold = 0;
    000026B7 21r4Fr00         [12] 8374 	ld	hl, #_gs + 79
    000026BA 36 00            [12] 8375 	ld	(hl), #0x00
                                   8376 ;kaijugaiden.c:1366: bg_draw_beach();
    000026BC CDrEBr0F         [24] 8377 	call	_bg_draw_beach
                                   8378 ;kaijugaiden.c:1367: spr_draw_cinematic();
                                   8379 ;kaijugaiden.c:1368: }
    000026BF C3r85r24         [16] 8380 	jp	_spr_draw_cinematic
                                   8381 ;kaijugaiden.c:1371: static int cinematic_update(void) {
                                   8382 ;	---------------------------------
                                   8383 ; Function cinematic_update
                                   8384 ; ---------------------------------
    000026C2                       8385 _cinematic_update:
                                   8386 ;kaijugaiden.c:1372: gs.cut_timer++;
    000026C2 21r66r00         [12] 8387 	ld	hl, #(_gs + 102)
    000026C5 2A               [ 8] 8388 	ld	a, (hl+)
    000026C6 4F               [ 4] 8389 	ld	c, a
    000026C7 46               [ 8] 8390 	ld	b, (hl)
    000026C8 03               [ 8] 8391 	inc	bc
    000026C9 21r66r00         [12] 8392 	ld	hl, #(_gs + 102)
    000026CC 79               [ 4] 8393 	ld	a, c
    000026CD 22               [ 8] 8394 	ld	(hl+), a
    000026CE 70               [ 8] 8395 	ld	(hl), b
                                   8396 ;kaijugaiden.c:1373: gs.anim_tick++;
    000026CF 01r76r00         [12] 8397 	ld	bc, #_gs + 118
    000026D2 0A               [ 8] 8398 	ld	a, (bc)
    000026D3 3C               [ 4] 8399 	inc	a
    000026D4 02               [ 8] 8400 	ld	(bc), a
                                   8401 ;kaijugaiden.c:136: static inline u8 plat_held(u8 mask)  { return (_joy_cur  & mask) ? 1 : 0; }
    000026D5 E5               [16] 8402 	push	hl
    000026D6 21r01r00         [12] 8403 	ld	hl, #__joy_cur
    000026D9 CB 4E            [12] 8404 	bit	1, (hl)
    000026DB E1               [12] 8405 	pop	hl
    000026DC 1E 01            [ 8] 8406 	ld	e, #0x01
    000026DE 20 02            [12] 8407 	jr	NZ, 00116$
    000026E0 1E 00            [ 8] 8408 	ld	e, #0x00
    000026E2                       8409 00116$:
                                   8410 ;kaijugaiden.c:1376: if (plat_held(BTN_B)) gs.skip_b_hold++;
    000026E2 21r4Fr00         [12] 8411 	ld	hl, #_gs + 79
    000026E5 7B               [ 4] 8412 	ld	a, e
    000026E6 B7               [ 4] 8413 	or	a, a
    000026E7 28 03            [12] 8414 	jr	Z, 00102$
    000026E9 34               [12] 8415 	inc	(hl)
    000026EA 18 02            [12] 8416 	jr	00103$
    000026EC                       8417 00102$:
                                   8418 ;kaijugaiden.c:1377: else                   gs.skip_b_hold = 0;
    000026EC 36 00            [12] 8419 	ld	(hl), #0x00
    000026EE                       8420 00103$:
                                   8421 ;kaijugaiden.c:1378: if (gs.skip_b_hold >= SKIP_HOLD_FRAMES) return 1;
    000026EE 7E               [ 8] 8422 	ld	a, (hl)
    000026EF D6 5A            [ 8] 8423 	sub	a, #0x5a
    000026F1 38 04            [12] 8424 	jr	C, 00105$
    000026F3 01 01 00         [12] 8425 	ld	bc, #0x0001
    000026F6 C9               [16] 8426 	ret
    000026F7                       8427 00105$:
                                   8428 ;kaijugaiden.c:1381: if (gs.cut_timer >= CUT_DURATION) {
    000026F7 21r66r00         [12] 8429 	ld	hl, #(_gs + 102)
    000026FA 2A               [ 8] 8430 	ld	a,	(hl+)
    000026FB 66               [ 8] 8431 	ld	h, (hl)
    000026FC D6 3C            [ 8] 8432 	sub	a, #0x3c
    000026FE 7C               [ 4] 8433 	ld	a, h
    000026FF DE 00            [ 8] 8434 	sbc	a, #0x00
    00002701 38 18            [12] 8435 	jr	C, 00109$
                                   8436 ;kaijugaiden.c:1382: gs.cut_timer = 0;
    00002703 21r66r00         [12] 8437 	ld	hl, #(_gs + 102)
    00002706 AF               [ 4] 8438 	xor	a, a
    00002707 22               [ 8] 8439 	ld	(hl+), a
                                   8440 ;kaijugaiden.c:1383: gs.cut_frame++;
    00002708 32               [ 8] 8441 	ld	(hl-), a
    00002709 2B               [ 8] 8442 	dec	hl
    0000270A 34               [12] 8443 	inc	(hl)
                                   8444 ;kaijugaiden.c:1385: bg_draw_beach();
    0000270B E5               [16] 8445 	push	hl
    0000270C C5               [16] 8446 	push	bc
    0000270D CDrEBr0F         [24] 8447 	call	_bg_draw_beach
    00002710 C1               [12] 8448 	pop	bc
    00002711 E1               [12] 8449 	pop	hl
                                   8450 ;kaijugaiden.c:1386: if (gs.cut_frame >= CUT_COUNT) return 1;
    00002712 7E               [ 8] 8451 	ld	a, (hl)
    00002713 D6 08            [ 8] 8452 	sub	a, #0x08
    00002715 38 04            [12] 8453 	jr	C, 00109$
    00002717 01 01 00         [12] 8454 	ld	bc, #0x0001
    0000271A C9               [16] 8455 	ret
    0000271B                       8456 00109$:
                                   8457 ;kaijugaiden.c:1389: if ((gs.anim_tick % 8) == 0) bg_draw_beach();
    0000271B 0A               [ 8] 8458 	ld	a, (bc)
    0000271C E6 07            [ 8] 8459 	and	a, #0x07
    0000271E 20 03            [12] 8460 	jr	NZ, 00111$
    00002720 CDrEBr0F         [24] 8461 	call	_bg_draw_beach
    00002723                       8462 00111$:
                                   8463 ;kaijugaiden.c:1391: spr_draw_cinematic();
    00002723 CDr85r24         [24] 8464 	call	_spr_draw_cinematic
                                   8465 ;kaijugaiden.c:1392: return 0;
    00002726 01 00 00         [12] 8466 	ld	bc, #0x0000
                                   8467 ;kaijugaiden.c:1393: }
    00002729 C9               [16] 8468 	ret
                                   8469 ;kaijugaiden.c:1400: static void title_init(void) {
                                   8470 ;	---------------------------------
                                   8471 ; Function title_init
                                   8472 ; ---------------------------------
    0000272A                       8473 _title_init:
                                   8474 ;kaijugaiden.c:1401: camera_reset();
    0000272A CDr8Cr12         [24] 8475 	call	_camera_reset
                                   8476 ;kaijugaiden.c:1402: gs.menu_sel  = 0;
    0000272D 21r52r00         [12] 8477 	ld	hl, #_gs + 82
    00002730 36 00            [12] 8478 	ld	(hl), #0x00
                                   8479 ;kaijugaiden.c:1403: gs.phase_timer = 0;
    00002732 21r4Dr00         [12] 8480 	ld	hl, #(_gs + 77)
    00002735 AF               [ 4] 8481 	xor	a, a
    00002736 22               [ 8] 8482 	ld	(hl+), a
    00002737 77               [ 8] 8483 	ld	(hl), a
                                   8484 ;kaijugaiden.c:1404: spr_hide_all();
    00002738 CDr09r26         [24] 8485 	call	_spr_hide_all
                                   8486 ;kaijugaiden.c:1405: bg_draw_title();
                                   8487 ;kaijugaiden.c:1406: }
    0000273B C3r75r10         [16] 8488 	jp	_bg_draw_title
                                   8489 ;kaijugaiden.c:1409: static int title_update(void) {
                                   8490 ;	---------------------------------
                                   8491 ; Function title_update
                                   8492 ; ---------------------------------
    0000273E                       8493 _title_update:
    0000273E E8 FC            [16] 8494 	add	sp, #-4
                                   8495 ;kaijugaiden.c:1410: gs.phase_timer++;
    00002740 21r4Dr00         [12] 8496 	ld	hl, #(_gs + 77)
    00002743 2A               [ 8] 8497 	ld	a, (hl+)
    00002744 4F               [ 4] 8498 	ld	c, a
    00002745 46               [ 8] 8499 	ld	b, (hl)
    00002746 03               [ 8] 8500 	inc	bc
    00002747 21r4Dr00         [12] 8501 	ld	hl, #(_gs + 77)
    0000274A 79               [ 4] 8502 	ld	a, c
    0000274B 22               [ 8] 8503 	ld	(hl+), a
    0000274C 70               [ 8] 8504 	ld	(hl), b
                                   8505 ;kaijugaiden.c:138: return ((_joy_cur & mask) && !(_joy_prev & mask)) ? 1 : 0;
    0000274D E5               [16] 8506 	push	hl
    0000274E 21r01r00         [12] 8507 	ld	hl, #__joy_cur
    00002751 CB 7E            [12] 8508 	bit	7, (hl)
    00002753 E1               [12] 8509 	pop	hl
    00002754 28 0B            [12] 8510 	jr	Z, 00114$
    00002756 E5               [16] 8511 	push	hl
    00002757 21r00r00         [12] 8512 	ld	hl, #__joy_prev
    0000275A CB 7E            [12] 8513 	bit	7, (hl)
    0000275C E1               [12] 8514 	pop	hl
    0000275D 3E 01            [ 8] 8515 	ld	a, #0x01
    0000275F 28 01            [12] 8516 	jr	Z, 00115$
    00002761                       8517 00114$:
    00002761 AF               [ 4] 8518 	xor	a, a
    00002762                       8519 00115$:
    00002762 F8 03            [12] 8520 	ldhl	sp,	#3
                                   8521 ;kaijugaiden.c:1412: gs.menu_sel = (gs.menu_sel + 1) % 2;
                                   8522 ;kaijugaiden.c:1411: if (plat_pressed(BTN_DOWN)) {
    00002764 77               [ 8] 8523 	ld	(hl), a
    00002765 B7               [ 4] 8524 	or	a, a
    00002766 28 2A            [12] 8525 	jr	Z, 00102$
                                   8526 ;kaijugaiden.c:1412: gs.menu_sel = (gs.menu_sel + 1) % 2;
    00002768 FAr52r00         [16] 8527 	ld	a, (#(_gs + 82) + 0)
    0000276B F8 03            [12] 8528 	ldhl	sp,#3
    0000276D 77               [ 8] 8529 	ld	(hl), a
    0000276E F8 00            [12] 8530 	ldhl	sp,	#0
    00002770 22               [ 8] 8531 	ld	(hl+), a
    00002771 36 00            [12] 8532 	ld	(hl), #0x00
    00002773 D1               [12] 8533 	pop	de
    00002774 D5               [16] 8534 	push	de
    00002775 6B               [ 4] 8535 	ld	l, e
    00002776 62               [ 4] 8536 	ld	h, d
    00002777 23               [ 8] 8537 	inc	hl
    00002778 E5               [16] 8538 	push	hl
    00002779 7D               [ 4] 8539 	ld	a, l
    0000277A F8 04            [12] 8540 	ldhl	sp,	#4
    0000277C 77               [ 8] 8541 	ld	(hl), a
    0000277D E1               [12] 8542 	pop	hl
    0000277E 7C               [ 4] 8543 	ld	a, h
    0000277F F8 03            [12] 8544 	ldhl	sp,	#3
    00002781 32               [ 8] 8545 	ld	(hl-), a
    00002782 01 02 00         [12] 8546 	ld	bc, #0x0002
    00002785 2A               [ 8] 8547 	ld	a, (hl+)
    00002786 5F               [ 4] 8548 	ld	e, a
    00002787 56               [ 8] 8549 	ld	d, (hl)
    00002788 CDr00r00         [24] 8550 	call	__modsint
    0000278B 21r52r00         [12] 8551 	ld	hl, #(_gs + 82)
    0000278E 71               [ 8] 8552 	ld	(hl), c
                                   8553 ;kaijugaiden.c:1413: bg_draw_title();
    0000278F CDr75r10         [24] 8554 	call	_bg_draw_title
    00002792                       8555 00102$:
                                   8556 ;kaijugaiden.c:138: return ((_joy_cur & mask) && !(_joy_prev & mask)) ? 1 : 0;
    00002792 E5               [16] 8557 	push	hl
    00002793 21r01r00         [12] 8558 	ld	hl, #__joy_cur
    00002796 CB 76            [12] 8559 	bit	6, (hl)
    00002798 E1               [12] 8560 	pop	hl
    00002799 28 0B            [12] 8561 	jr	Z, 00119$
    0000279B E5               [16] 8562 	push	hl
    0000279C 21r00r00         [12] 8563 	ld	hl, #__joy_prev
    0000279F CB 76            [12] 8564 	bit	6, (hl)
    000027A1 E1               [12] 8565 	pop	hl
    000027A2 3E 01            [ 8] 8566 	ld	a, #0x01
    000027A4 28 01            [12] 8567 	jr	Z, 00120$
    000027A6                       8568 00119$:
    000027A6 AF               [ 4] 8569 	xor	a, a
    000027A7                       8570 00120$:
                                   8571 ;kaijugaiden.c:1415: if (plat_pressed(BTN_UP)) {
    000027A7 B7               [ 4] 8572 	or	a, a
    000027A8 28 0F            [12] 8573 	jr	Z, 00104$
                                   8574 ;kaijugaiden.c:1416: gs.menu_sel = (gs.menu_sel == 0) ? 1 : 0;
    000027AA FAr52r00         [16] 8575 	ld	a, (#(_gs + 82) + 0)
    000027AD B7               [ 4] 8576 	or	a, a
    000027AE 3E 01            [ 8] 8577 	ld	a, #0x01
    000027B0 28 01            [12] 8578 	jr	Z, 00125$
    000027B2 AF               [ 4] 8579 	xor	a, a
    000027B3                       8580 00125$:
    000027B3 EAr52r00         [16] 8581 	ld	(#(_gs + 82)),a
                                   8582 ;kaijugaiden.c:1417: bg_draw_title();
    000027B6 CDr75r10         [24] 8583 	call	_bg_draw_title
    000027B9                       8584 00104$:
                                   8585 ;kaijugaiden.c:138: return ((_joy_cur & mask) && !(_joy_prev & mask)) ? 1 : 0;
    000027B9 E5               [16] 8586 	push	hl
    000027BA 21r01r00         [12] 8587 	ld	hl, #__joy_cur
    000027BD CB 46            [12] 8588 	bit	0, (hl)
    000027BF E1               [12] 8589 	pop	hl
    000027C0 28 0B            [12] 8590 	jr	Z, 00126$
    000027C2 E5               [16] 8591 	push	hl
    000027C3 21r00r00         [12] 8592 	ld	hl, #__joy_prev
    000027C6 CB 46            [12] 8593 	bit	0, (hl)
    000027C8 E1               [12] 8594 	pop	hl
    000027C9 3E 01            [ 8] 8595 	ld	a, #0x01
    000027CB 28 01            [12] 8596 	jr	Z, 00127$
    000027CD                       8597 00126$:
    000027CD AF               [ 4] 8598 	xor	a, a
    000027CE                       8599 00127$:
                                   8600 ;kaijugaiden.c:1419: if (plat_pressed(BTN_A) || plat_pressed(BTN_START)) {
    000027CE B7               [ 4] 8601 	or	a, a
    000027CF 20 18            [12] 8602 	jr	NZ, 00105$
                                   8603 ;kaijugaiden.c:138: return ((_joy_cur & mask) && !(_joy_prev & mask)) ? 1 : 0;
    000027D1 E5               [16] 8604 	push	hl
    000027D2 21r01r00         [12] 8605 	ld	hl, #__joy_cur
    000027D5 CB 5E            [12] 8606 	bit	3, (hl)
    000027D7 E1               [12] 8607 	pop	hl
    000027D8 28 0B            [12] 8608 	jr	Z, 00131$
    000027DA E5               [16] 8609 	push	hl
    000027DB 21r00r00         [12] 8610 	ld	hl, #__joy_prev
    000027DE CB 5E            [12] 8611 	bit	3, (hl)
    000027E0 E1               [12] 8612 	pop	hl
    000027E1 3E 01            [ 8] 8613 	ld	a, #0x01
    000027E3 28 01            [12] 8614 	jr	Z, 00132$
    000027E5                       8615 00131$:
    000027E5 AF               [ 4] 8616 	xor	a, a
    000027E6                       8617 00132$:
                                   8618 ;kaijugaiden.c:1419: if (plat_pressed(BTN_A) || plat_pressed(BTN_START)) {
    000027E6 B7               [ 4] 8619 	or	a, a
    000027E7 28 10            [12] 8620 	jr	Z, 00106$
    000027E9                       8621 00105$:
                                   8622 ;kaijugaiden.c:1420: return (gs.menu_sel == 0) ? 1 : 2;
    000027E9 FAr52r00         [16] 8623 	ld	a, (#(_gs + 82) + 0)
    000027EC B7               [ 4] 8624 	or	a, a
    000027ED 20 05            [12] 8625 	jr	NZ, 00136$
    000027EF 01 01 00         [12] 8626 	ld	bc, #0x0001
    000027F2 18 08            [12] 8627 	jr	00112$
    000027F4                       8628 00136$:
    000027F4 01 02 00         [12] 8629 	ld	bc, #0x0002
    000027F7 18 03            [12] 8630 	jr	00112$
    000027F9                       8631 00106$:
                                   8632 ;kaijugaiden.c:1422: return 0;
    000027F9 01 00 00         [12] 8633 	ld	bc, #0x0000
    000027FC                       8634 00112$:
                                   8635 ;kaijugaiden.c:1423: }
    000027FC E8 04            [16] 8636 	add	sp, #4
    000027FE C9               [16] 8637 	ret
                                   8638 ;kaijugaiden.c:1425: static void password_draw(void) {
                                   8639 ;	---------------------------------
                                   8640 ; Function password_draw
                                   8641 ; ---------------------------------
    000027FF                       8642 _password_draw:
                                   8643 ;kaijugaiden.c:1426: bg_fill(TILE_BLANK);
    000027FF AF               [ 4] 8644 	xor	a, a
    00002800 CDr76r0B         [24] 8645 	call	_bg_fill
                                   8646 ;kaijugaiden.c:1427: spr_hide_all();
    00002803 CDr09r26         [24] 8647 	call	_spr_hide_all
                                   8648 ;kaijugaiden.c:1428: bg_draw_text(6, 2, "PASSWORD");
    00002806 11r91r28         [12] 8649 	ld	de, #___str_31
    00002809 D5               [16] 8650 	push	de
    0000280A 1E 02            [ 8] 8651 	ld	e, #0x02
    0000280C 3E 06            [ 8] 8652 	ld	a, #0x06
    0000280E CDr03r0C         [24] 8653 	call	_bg_draw_text
                                   8654 ;kaijugaiden.c:1429: bg_draw_text(2, 5, "EDIT 16 HEX");
    00002811 11r9Ar28         [12] 8655 	ld	de, #___str_32
    00002814 D5               [16] 8656 	push	de
    00002815 1E 05            [ 8] 8657 	ld	e, #0x05
    00002817 3E 02            [ 8] 8658 	ld	a, #0x02
    00002819 CDr03r0C         [24] 8659 	call	_bg_draw_text
                                   8660 ;kaijugaiden.c:1430: for (u8 i = 0; i < PASSWORD_LEN; ++i)
    0000281C 0E 00            [ 8] 8661 	ld	c, #0x00
    0000281E                       8662 00107$:
    0000281E 79               [ 4] 8663 	ld	a, c
    0000281F D6 10            [ 8] 8664 	sub	a, #0x10
    00002821 30 1C            [12] 8665 	jr	NC, 00101$
                                   8666 ;kaijugaiden.c:1431: plat_set_bkg_tile(2 + i, 8, bg_char_to_tile(gs.password_buf[i]));
    00002823 21r53r00         [12] 8667 	ld	hl, #(_gs + 83)
    00002826 06 00            [ 8] 8668 	ld	b, #0x00
    00002828 09               [ 8] 8669 	add	hl, bc
    00002829 7E               [ 8] 8670 	ld	a, (hl)
    0000282A C5               [16] 8671 	push	bc
    0000282B CDr9Br0B         [24] 8672 	call	_bg_char_to_tile
    0000282E C1               [12] 8673 	pop	bc
    0000282F 41               [ 4] 8674 	ld	b, c
    00002830 04               [ 4] 8675 	inc	b
    00002831 04               [ 4] 8676 	inc	b
                                   8677 ;kaijugaiden.c:146: set_bkg_tile_xy(x, y, tile);
    00002832 C5               [16] 8678 	push	bc
    00002833 F5               [16] 8679 	push	af
    00002834 33               [ 8] 8680 	inc	sp
    00002835 1E 08            [ 8] 8681 	ld	e, #0x08
    00002837 78               [ 4] 8682 	ld	a, b
    00002838 CDr00r00         [24] 8683 	call	_set_bkg_tile_xy
    0000283B C1               [12] 8684 	pop	bc
                                   8685 ;kaijugaiden.c:1430: for (u8 i = 0; i < PASSWORD_LEN; ++i)
    0000283C 0C               [ 4] 8686 	inc	c
    0000283D 18 DF            [12] 8687 	jr	00107$
    0000283F                       8688 00101$:
                                   8689 ;kaijugaiden.c:1432: for (u8 i = 0; i < PASSWORD_LEN; ++i)
    0000283F 0E 00            [ 8] 8690 	ld	c, #0x00
    00002841                       8691 00110$:
                                   8692 ;kaijugaiden.c:1433: plat_set_bkg_tile(2 + i, 9, TILE_BLANK);
    00002841 79               [ 4] 8693 	ld	a,c
    00002842 FE 10            [ 8] 8694 	cp	a,#0x10
    00002844 30 10            [12] 8695 	jr	NC, 00102$
    00002846 C6 02            [ 8] 8696 	add	a, #0x02
                                   8697 ;kaijugaiden.c:146: set_bkg_tile_xy(x, y, tile);
    00002848 C5               [16] 8698 	push	bc
    00002849 26 00            [ 8] 8699 	ld	h, #0x00
    0000284B E5               [16] 8700 	push	hl
    0000284C 33               [ 8] 8701 	inc	sp
    0000284D 1E 09            [ 8] 8702 	ld	e, #0x09
    0000284F CDr00r00         [24] 8703 	call	_set_bkg_tile_xy
    00002852 C1               [12] 8704 	pop	bc
                                   8705 ;kaijugaiden.c:1432: for (u8 i = 0; i < PASSWORD_LEN; ++i)
    00002853 0C               [ 4] 8706 	inc	c
    00002854 18 EB            [12] 8707 	jr	00110$
    00002856                       8708 00102$:
                                   8709 ;kaijugaiden.c:1434: plat_set_bkg_tile(2 + gs.password_index, 9, TILE_CLIFF_A);
    00002856 FAr64r00         [16] 8710 	ld	a, (#(_gs + 100) + 0)
    00002859 C6 02            [ 8] 8711 	add	a, #0x02
                                   8712 ;kaijugaiden.c:146: set_bkg_tile_xy(x, y, tile);
    0000285B 26 05            [ 8] 8713 	ld	h, #0x05
    0000285D E5               [16] 8714 	push	hl
    0000285E 33               [ 8] 8715 	inc	sp
    0000285F 1E 09            [ 8] 8716 	ld	e, #0x09
    00002861 CDr00r00         [24] 8717 	call	_set_bkg_tile_xy
                                   8718 ;kaijugaiden.c:1435: bg_draw_text(2, 12, "UD CHANGE");
    00002864 11rA6r28         [12] 8719 	ld	de, #___str_33
    00002867 D5               [16] 8720 	push	de
    00002868 1E 0C            [ 8] 8721 	ld	e, #0x0c
    0000286A 3E 02            [ 8] 8722 	ld	a, #0x02
    0000286C CDr03r0C         [24] 8723 	call	_bg_draw_text
                                   8724 ;kaijugaiden.c:1436: bg_draw_text(2, 13, "LR MOVE");
    0000286F 11rB0r28         [12] 8725 	ld	de, #___str_34
    00002872 D5               [16] 8726 	push	de
    00002873 1E 0D            [ 8] 8727 	ld	e, #0x0d
    00002875 3E 02            [ 8] 8728 	ld	a, #0x02
    00002877 CDr03r0C         [24] 8729 	call	_bg_draw_text
                                   8730 ;kaijugaiden.c:1437: bg_draw_text(2, 14, "A APPLY");
    0000287A 11rB8r28         [12] 8731 	ld	de, #___str_35
    0000287D D5               [16] 8732 	push	de
    0000287E 1E 0E            [ 8] 8733 	ld	e, #0x0e
    00002880 3E 02            [ 8] 8734 	ld	a, #0x02
    00002882 CDr03r0C         [24] 8735 	call	_bg_draw_text
                                   8736 ;kaijugaiden.c:1438: bg_draw_text(2, 15, "B BACK");
    00002885 11rC0r28         [12] 8737 	ld	de, #___str_36
    00002888 D5               [16] 8738 	push	de
    00002889 1E 0F            [ 8] 8739 	ld	e, #0x0f
    0000288B 3E 02            [ 8] 8740 	ld	a, #0x02
    0000288D CDr03r0C         [24] 8741 	call	_bg_draw_text
                                   8742 ;kaijugaiden.c:1439: }
    00002890 C9               [16] 8743 	ret
    00002891                       8744 ___str_31:
    00002891 50 41 53 53 57 4F 52  8745 	.ascii "PASSWORD"
             44
    00002899 00                    8746 	.db 0x00
    0000289A                       8747 ___str_32:
    0000289A 45 44 49 54 20 31 36  8748 	.ascii "EDIT 16 HEX"
             20 48 45 58
    000028A5 00                    8749 	.db 0x00
    000028A6                       8750 ___str_33:
    000028A6 55 44 20 43 48 41 4E  8751 	.ascii "UD CHANGE"
             47 45
    000028AF 00                    8752 	.db 0x00
    000028B0                       8753 ___str_34:
    000028B0 4C 52 20 4D 4F 56 45  8754 	.ascii "LR MOVE"
    000028B7 00                    8755 	.db 0x00
    000028B8                       8756 ___str_35:
    000028B8 41 20 41 50 50 4C 59  8757 	.ascii "A APPLY"
    000028BF 00                    8758 	.db 0x00
    000028C0                       8759 ___str_36:
    000028C0 42 20 42 41 43 4B     8760 	.ascii "B BACK"
    000028C6 00                    8761 	.db 0x00
                                   8762 ;kaijugaiden.c:1441: static void password_init(void) {
                                   8763 ;	---------------------------------
                                   8764 ; Function password_init
                                   8765 ; ---------------------------------
    000028C7                       8766 _password_init:
    000028C7 E8 F8            [16] 8767 	add	sp, #-8
                                   8768 ;kaijugaiden.c:1442: camera_reset();
    000028C9 CDr8Cr12         [24] 8769 	call	_camera_reset
                                   8770 ;kaijugaiden.c:1443: gs.phase_timer = 0;
    000028CC 21r4Dr00         [12] 8771 	ld	hl, #(_gs + 77)
    000028CF AF               [ 4] 8772 	xor	a, a
    000028D0 22               [ 8] 8773 	ld	(hl+), a
    000028D1 77               [ 8] 8774 	ld	(hl), a
                                   8775 ;kaijugaiden.c:1444: gs.password_index = 0;
    000028D2 21r64r00         [12] 8776 	ld	hl, #_gs + 100
    000028D5 36 00            [12] 8777 	ld	(hl), #0x00
                                   8778 ;kaijugaiden.c:1445: password_encode(gs.password_buf, gs.cleared_bosses, gs.cyphers);
    000028D7 11r6Cr00         [12] 8779 	ld	de, #(_gs + 108)
    000028DA 1A               [ 8] 8780 	ld	a, (de)
    000028DB F8 00            [12] 8781 	ldhl	sp,	#0
    000028DD 22               [ 8] 8782 	ld	(hl+), a
    000028DE 13               [ 8] 8783 	inc	de
    000028DF 1A               [ 8] 8784 	ld	a, (de)
    000028E0 22               [ 8] 8785 	ld	(hl+), a
    000028E1 13               [ 8] 8786 	inc	de
    000028E2 1A               [ 8] 8787 	ld	a, (de)
    000028E3 22               [ 8] 8788 	ld	(hl+), a
    000028E4 13               [ 8] 8789 	inc	de
    000028E5 1A               [ 8] 8790 	ld	a, (de)
    000028E6 22               [ 8] 8791 	ld	(hl+), a
    000028E7 11r68r00         [12] 8792 	ld	de, #(_gs + 104)
    000028EA 1A               [ 8] 8793 	ld	a, (de)
    000028EB 22               [ 8] 8794 	ld	(hl+), a
    000028EC 13               [ 8] 8795 	inc	de
    000028ED 1A               [ 8] 8796 	ld	a, (de)
    000028EE 22               [ 8] 8797 	ld	(hl+), a
    000028EF 13               [ 8] 8798 	inc	de
    000028F0 1A               [ 8] 8799 	ld	a, (de)
    000028F1 22               [ 8] 8800 	ld	(hl+), a
    000028F2 13               [ 8] 8801 	inc	de
    000028F3 1A               [ 8] 8802 	ld	a, (de)
    000028F4 77               [ 8] 8803 	ld	(hl), a
    000028F5 F8 02            [12] 8804 	ldhl	sp,	#2
    000028F7 2A               [ 8] 8805 	ld	a, (hl+)
    000028F8 5F               [ 4] 8806 	ld	e, a
    000028F9 56               [ 8] 8807 	ld	d, (hl)
    000028FA D5               [16] 8808 	push	de
    000028FB F8 02            [12] 8809 	ldhl	sp,	#2
    000028FD 2A               [ 8] 8810 	ld	a, (hl+)
    000028FE 5F               [ 4] 8811 	ld	e, a
    000028FF 56               [ 8] 8812 	ld	d, (hl)
    00002900 D5               [16] 8813 	push	de
    00002901 F8 0A            [12] 8814 	ldhl	sp,	#10
    00002903 2A               [ 8] 8815 	ld	a, (hl+)
    00002904 5F               [ 4] 8816 	ld	e, a
    00002905 56               [ 8] 8817 	ld	d, (hl)
    00002906 D5               [16] 8818 	push	de
    00002907 F8 0A            [12] 8819 	ldhl	sp,	#10
    00002909 2A               [ 8] 8820 	ld	a, (hl+)
    0000290A 5F               [ 4] 8821 	ld	e, a
    0000290B 56               [ 8] 8822 	ld	d, (hl)
    0000290C D5               [16] 8823 	push	de
    0000290D 11r53r00         [12] 8824 	ld	de, #(_gs + 83)
    00002910 CDrC3r0C         [24] 8825 	call	_password_encode
                                   8826 ;kaijugaiden.c:1446: password_draw();
    00002913 CDrFFr27         [24] 8827 	call	_password_draw
                                   8828 ;kaijugaiden.c:1447: }
    00002916 E8 08            [16] 8829 	add	sp, #8
    00002918 C9               [16] 8830 	ret
                                   8831 ;kaijugaiden.c:1450: static int password_update(void) {
                                   8832 ;	---------------------------------
                                   8833 ; Function password_update
                                   8834 ; ---------------------------------
    00002919                       8835 _password_update:
    00002919 E8 FC            [16] 8836 	add	sp, #-4
                                   8837 ;kaijugaiden.c:1451: gs.phase_timer++;
    0000291B 01r00r00         [12] 8838 	ld	bc, #_gs+0
    0000291E 11r4Dr00         [12] 8839 	ld	de, #(_gs + 77)
    00002921 1A               [ 8] 8840 	ld	a, (de)
    00002922 F8 00            [12] 8841 	ldhl	sp,	#0
    00002924 22               [ 8] 8842 	ld	(hl+), a
    00002925 13               [ 8] 8843 	inc	de
    00002926 1A               [ 8] 8844 	ld	a, (de)
    00002927 77               [ 8] 8845 	ld	(hl), a
    00002928 D1               [12] 8846 	pop	de
    00002929 D5               [16] 8847 	push	de
    0000292A 6B               [ 4] 8848 	ld	l, e
    0000292B 62               [ 4] 8849 	ld	h, d
    0000292C 23               [ 8] 8850 	inc	hl
    0000292D E5               [16] 8851 	push	hl
    0000292E 7D               [ 4] 8852 	ld	a, l
    0000292F F8 04            [12] 8853 	ldhl	sp,	#4
    00002931 77               [ 8] 8854 	ld	(hl), a
    00002932 E1               [12] 8855 	pop	hl
    00002933 7C               [ 4] 8856 	ld	a, h
    00002934 F8 03            [12] 8857 	ldhl	sp,	#3
    00002936 32               [ 8] 8858 	ld	(hl-), a
    00002937 11r4Dr00         [12] 8859 	ld	de, #(_gs + 77)
    0000293A 2A               [ 8] 8860 	ld	a, (hl+)
    0000293B 12               [ 8] 8861 	ld	(de), a
    0000293C 13               [ 8] 8862 	inc	de
    0000293D 7E               [ 8] 8863 	ld	a, (hl)
    0000293E 12               [ 8] 8864 	ld	(de), a
                                   8865 ;kaijugaiden.c:138: return ((_joy_cur & mask) && !(_joy_prev & mask)) ? 1 : 0;
    0000293F E5               [16] 8866 	push	hl
    00002940 21r01r00         [12] 8867 	ld	hl, #__joy_cur
    00002943 CB 6E            [12] 8868 	bit	5, (hl)
    00002945 E1               [12] 8869 	pop	hl
    00002946 28 0B            [12] 8870 	jr	Z, 00125$
    00002948 E5               [16] 8871 	push	hl
    00002949 21r00r00         [12] 8872 	ld	hl, #__joy_prev
    0000294C CB 6E            [12] 8873 	bit	5, (hl)
    0000294E E1               [12] 8874 	pop	hl
    0000294F 1E 01            [ 8] 8875 	ld	e, #0x01
    00002951 28 02            [12] 8876 	jr	Z, 00126$
    00002953                       8877 00125$:
    00002953 1E 00            [ 8] 8878 	ld	e, #0x00
    00002955                       8879 00126$:
                                   8880 ;kaijugaiden.c:1453: if (plat_pressed(BTN_LEFT) && gs.password_index > 0) {
    00002955 7B               [ 4] 8881 	ld	a, e
    00002956 B7               [ 4] 8882 	or	a, a
    00002957 28 0F            [12] 8883 	jr	Z, 00102$
    00002959 FAr64r00         [16] 8884 	ld	a, (#(_gs + 100) + 0)
    0000295C B7               [ 4] 8885 	or	a, a
    0000295D 28 09            [12] 8886 	jr	Z, 00102$
                                   8887 ;kaijugaiden.c:1454: gs.password_index--;
    0000295F 3D               [ 4] 8888 	dec	a
    00002960 EAr64r00         [16] 8889 	ld	(#(_gs + 100)),a
                                   8890 ;kaijugaiden.c:1455: password_draw();
    00002963 C5               [16] 8891 	push	bc
    00002964 CDrFFr27         [24] 8892 	call	_password_draw
    00002967 C1               [12] 8893 	pop	bc
    00002968                       8894 00102$:
                                   8895 ;kaijugaiden.c:138: return ((_joy_cur & mask) && !(_joy_prev & mask)) ? 1 : 0;
    00002968 E5               [16] 8896 	push	hl
    00002969 21r01r00         [12] 8897 	ld	hl, #__joy_cur
    0000296C CB 66            [12] 8898 	bit	4, (hl)
    0000296E E1               [12] 8899 	pop	hl
    0000296F 28 0B            [12] 8900 	jr	Z, 00130$
    00002971 E5               [16] 8901 	push	hl
    00002972 21r00r00         [12] 8902 	ld	hl, #__joy_prev
    00002975 CB 66            [12] 8903 	bit	4, (hl)
    00002977 E1               [12] 8904 	pop	hl
    00002978 3E 01            [ 8] 8905 	ld	a, #0x01
    0000297A 28 01            [12] 8906 	jr	Z, 00131$
    0000297C                       8907 00130$:
    0000297C AF               [ 4] 8908 	xor	a, a
    0000297D                       8909 00131$:
                                   8910 ;kaijugaiden.c:1457: if (plat_pressed(BTN_RIGHT) && gs.password_index + 1 < PASSWORD_LEN) {
    0000297D B7               [ 4] 8911 	or	a, a
    0000297E 28 1F            [12] 8912 	jr	Z, 00105$
    00002980 FAr64r00         [16] 8913 	ld	a, (#(_gs + 100) + 0)
    00002983 F8 03            [12] 8914 	ldhl	sp,#3
    00002985 77               [ 8] 8915 	ld	(hl), a
    00002986 5E               [ 8] 8916 	ld	e, (hl)
    00002987 AF               [ 4] 8917 	xor	a, a
    00002988 6B               [ 4] 8918 	ld	l, e
    00002989 67               [ 4] 8919 	ld	h, a
    0000298A 23               [ 8] 8920 	inc	hl
    0000298B 7D               [ 4] 8921 	ld	a, l
    0000298C D6 10            [ 8] 8922 	sub	a, #0x10
    0000298E 7C               [ 4] 8923 	ld	a, h
    0000298F DE 00            [ 8] 8924 	sbc	a, #0x00
    00002991 30 0C            [12] 8925 	jr	NC, 00105$
                                   8926 ;kaijugaiden.c:1458: gs.password_index++;
    00002993 F8 03            [12] 8927 	ldhl	sp,	#3
    00002995 7E               [ 8] 8928 	ld	a, (hl)
    00002996 3C               [ 4] 8929 	inc	a
    00002997 EAr64r00         [16] 8930 	ld	(#(_gs + 100)),a
                                   8931 ;kaijugaiden.c:1459: password_draw();
    0000299A C5               [16] 8932 	push	bc
    0000299B CDrFFr27         [24] 8933 	call	_password_draw
    0000299E C1               [12] 8934 	pop	bc
    0000299F                       8935 00105$:
                                   8936 ;kaijugaiden.c:138: return ((_joy_cur & mask) && !(_joy_prev & mask)) ? 1 : 0;
    0000299F E5               [16] 8937 	push	hl
    000029A0 21r01r00         [12] 8938 	ld	hl, #__joy_cur
    000029A3 CB 76            [12] 8939 	bit	6, (hl)
    000029A5 E1               [12] 8940 	pop	hl
    000029A6 28 0B            [12] 8941 	jr	Z, 00135$
    000029A8 E5               [16] 8942 	push	hl
    000029A9 21r00r00         [12] 8943 	ld	hl, #__joy_prev
    000029AC CB 76            [12] 8944 	bit	6, (hl)
    000029AE E1               [12] 8945 	pop	hl
    000029AF 1E 01            [ 8] 8946 	ld	e, #0x01
    000029B1 28 02            [12] 8947 	jr	Z, 00136$
    000029B3                       8948 00135$:
    000029B3 1E 00            [ 8] 8949 	ld	e, #0x00
    000029B5                       8950 00136$:
                                   8951 ;kaijugaiden.c:1462: u8 nibble = password_hex_to_nibble(gs.password_buf[gs.password_index]);
                                   8952 ;kaijugaiden.c:1461: if (plat_pressed(BTN_UP)) {
    000029B5 7B               [ 4] 8953 	ld	a, e
    000029B6 B7               [ 4] 8954 	or	a, a
    000029B7 28 2F            [12] 8955 	jr	Z, 00108$
                                   8956 ;kaijugaiden.c:1462: u8 nibble = password_hex_to_nibble(gs.password_buf[gs.password_index]);
    000029B9 21r64r00         [12] 8957 	ld	hl, #(_gs + 100)
    000029BC 6E               [ 8] 8958 	ld	l, (hl)
    000029BD 26 00            [ 8] 8959 	ld	h, #0x00
    000029BF 11r53r00         [12] 8960 	ld	de, #(_gs + 83)
    000029C2 19               [ 8] 8961 	add	hl, de
    000029C3 7E               [ 8] 8962 	ld	a, (hl)
    000029C4 C5               [16] 8963 	push	bc
    000029C5 CDr5Ar0C         [24] 8964 	call	_password_hex_to_nibble
    000029C8 F8 05            [12] 8965 	ldhl	sp,	#5
    000029CA 77               [ 8] 8966 	ld	(hl), a
    000029CB C1               [12] 8967 	pop	bc
                                   8968 ;kaijugaiden.c:1463: gs.password_buf[gs.password_index] = password_nibble_to_hex((u8)((nibble + 1) & 0x0F));
    000029CC FAr64r00         [16] 8969 	ld	a, (#(_gs + 100) + 0)
    000029CF C6r53            [ 8] 8970 	add	a, #<((_gs + 83))
    000029D1 5F               [ 4] 8971 	ld	e, a
    000029D2 3E 00            [ 8] 8972 	ld	a, #0x00
    000029D4 CEs00            [ 8] 8973 	adc	a, #>((_gs + 83))
    000029D6 57               [ 4] 8974 	ld	d, a
    000029D7 F8 03            [12] 8975 	ldhl	sp,	#3
    000029D9 7E               [ 8] 8976 	ld	a, (hl)
    000029DA 3C               [ 4] 8977 	inc	a
    000029DB E6 0F            [ 8] 8978 	and	a, #0x0f
    000029DD C5               [16] 8979 	push	bc
    000029DE D5               [16] 8980 	push	de
    000029DF CDr4Br0C         [24] 8981 	call	_password_nibble_to_hex
    000029E2 D1               [12] 8982 	pop	de
                                   8983 ;kaijugaiden.c:1464: password_draw();
    000029E3 12               [ 8] 8984 	ld	(de), a
    000029E4 CDrFFr27         [24] 8985 	call	_password_draw
    000029E7 C1               [12] 8986 	pop	bc
    000029E8                       8987 00108$:
                                   8988 ;kaijugaiden.c:138: return ((_joy_cur & mask) && !(_joy_prev & mask)) ? 1 : 0;
    000029E8 E5               [16] 8989 	push	hl
    000029E9 21r01r00         [12] 8990 	ld	hl, #__joy_cur
    000029EC CB 7E            [12] 8991 	bit	7, (hl)
    000029EE E1               [12] 8992 	pop	hl
    000029EF 28 0B            [12] 8993 	jr	Z, 00140$
    000029F1 E5               [16] 8994 	push	hl
    000029F2 21r00r00         [12] 8995 	ld	hl, #__joy_prev
    000029F5 CB 7E            [12] 8996 	bit	7, (hl)
    000029F7 E1               [12] 8997 	pop	hl
    000029F8 3E 01            [ 8] 8998 	ld	a, #0x01
    000029FA 28 01            [12] 8999 	jr	Z, 00141$
    000029FC                       9000 00140$:
    000029FC AF               [ 4] 9001 	xor	a, a
    000029FD                       9002 00141$:
                                   9003 ;kaijugaiden.c:1466: if (plat_pressed(BTN_DOWN)) {
    000029FD B7               [ 4] 9004 	or	a, a
    000029FE 28 2F            [12] 9005 	jr	Z, 00110$
                                   9006 ;kaijugaiden.c:1467: u8 nibble = password_hex_to_nibble(gs.password_buf[gs.password_index]);
    00002A00 21r64r00         [12] 9007 	ld	hl, #(_gs + 100)
    00002A03 6E               [ 8] 9008 	ld	l, (hl)
    00002A04 26 00            [ 8] 9009 	ld	h, #0x00
    00002A06 11r53r00         [12] 9010 	ld	de, #(_gs + 83)
    00002A09 19               [ 8] 9011 	add	hl, de
    00002A0A 7E               [ 8] 9012 	ld	a, (hl)
    00002A0B C5               [16] 9013 	push	bc
    00002A0C CDr5Ar0C         [24] 9014 	call	_password_hex_to_nibble
    00002A0F F8 05            [12] 9015 	ldhl	sp,	#5
    00002A11 77               [ 8] 9016 	ld	(hl), a
    00002A12 C1               [12] 9017 	pop	bc
                                   9018 ;kaijugaiden.c:1468: gs.password_buf[gs.password_index] = password_nibble_to_hex((u8)((nibble - 1) & 0x0F));
    00002A13 FAr64r00         [16] 9019 	ld	a, (#(_gs + 100) + 0)
    00002A16 C6r53            [ 8] 9020 	add	a, #<((_gs + 83))
    00002A18 5F               [ 4] 9021 	ld	e, a
    00002A19 3E 00            [ 8] 9022 	ld	a, #0x00
    00002A1B CEs00            [ 8] 9023 	adc	a, #>((_gs + 83))
    00002A1D 57               [ 4] 9024 	ld	d, a
    00002A1E F8 03            [12] 9025 	ldhl	sp,	#3
    00002A20 7E               [ 8] 9026 	ld	a, (hl)
    00002A21 3D               [ 4] 9027 	dec	a
    00002A22 E6 0F            [ 8] 9028 	and	a, #0x0f
    00002A24 C5               [16] 9029 	push	bc
    00002A25 D5               [16] 9030 	push	de
    00002A26 CDr4Br0C         [24] 9031 	call	_password_nibble_to_hex
    00002A29 D1               [12] 9032 	pop	de
                                   9033 ;kaijugaiden.c:1469: password_draw();
    00002A2A 12               [ 8] 9034 	ld	(de), a
    00002A2B CDrFFr27         [24] 9035 	call	_password_draw
    00002A2E C1               [12] 9036 	pop	bc
    00002A2F                       9037 00110$:
                                   9038 ;kaijugaiden.c:138: return ((_joy_cur & mask) && !(_joy_prev & mask)) ? 1 : 0;
    00002A2F E5               [16] 9039 	push	hl
    00002A30 21r01r00         [12] 9040 	ld	hl, #__joy_cur
    00002A33 CB 46            [12] 9041 	bit	0, (hl)
    00002A35 E1               [12] 9042 	pop	hl
    00002A36 28 0B            [12] 9043 	jr	Z, 00145$
    00002A38 E5               [16] 9044 	push	hl
    00002A39 21r00r00         [12] 9045 	ld	hl, #__joy_prev
    00002A3C CB 46            [12] 9046 	bit	0, (hl)
    00002A3E E1               [12] 9047 	pop	hl
    00002A3F 3E 01            [ 8] 9048 	ld	a, #0x01
    00002A41 28 01            [12] 9049 	jr	Z, 00146$
    00002A43                       9050 00145$:
    00002A43 AF               [ 4] 9051 	xor	a, a
    00002A44                       9052 00146$:
                                   9053 ;kaijugaiden.c:1471: if (plat_pressed(BTN_A) || plat_pressed(BTN_START)) {
    00002A44 B7               [ 4] 9054 	or	a, a
    00002A45 20 18            [12] 9055 	jr	NZ, 00111$
                                   9056 ;kaijugaiden.c:138: return ((_joy_cur & mask) && !(_joy_prev & mask)) ? 1 : 0;
    00002A47 E5               [16] 9057 	push	hl
    00002A48 21r01r00         [12] 9058 	ld	hl, #__joy_cur
    00002A4B CB 5E            [12] 9059 	bit	3, (hl)
    00002A4D E1               [12] 9060 	pop	hl
    00002A4E 28 0B            [12] 9061 	jr	Z, 00150$
    00002A50 E5               [16] 9062 	push	hl
    00002A51 21r00r00         [12] 9063 	ld	hl, #__joy_prev
    00002A54 CB 5E            [12] 9064 	bit	3, (hl)
    00002A56 E1               [12] 9065 	pop	hl
    00002A57 3E 01            [ 8] 9066 	ld	a, #0x01
    00002A59 28 01            [12] 9067 	jr	Z, 00151$
    00002A5B                       9068 00150$:
    00002A5B AF               [ 4] 9069 	xor	a, a
    00002A5C                       9070 00151$:
                                   9071 ;kaijugaiden.c:1471: if (plat_pressed(BTN_A) || plat_pressed(BTN_START)) {
    00002A5C B7               [ 4] 9072 	or	a, a
    00002A5D 28 12            [12] 9073 	jr	Z, 00112$
    00002A5F                       9074 00111$:
                                   9075 ;kaijugaiden.c:1472: (void)password_decode(gs.password_buf, &gs.cleared_bosses, &gs.cyphers);
    00002A5F 11r6Cr00         [12] 9076 	ld	de, #(_gs + 108)
    00002A62 D5               [16] 9077 	push	de
    00002A63 01r68r00         [12] 9078 	ld	bc, #(_gs + 104)
    00002A66 11r53r00         [12] 9079 	ld	de, #(_gs + 83)
    00002A69 CDr75r0D         [24] 9080 	call	_password_decode
                                   9081 ;kaijugaiden.c:1473: return 1;
    00002A6C 01 01 00         [12] 9082 	ld	bc, #0x0001
    00002A6F 18 20            [12] 9083 	jr	00123$
    00002A71                       9084 00112$:
                                   9085 ;kaijugaiden.c:138: return ((_joy_cur & mask) && !(_joy_prev & mask)) ? 1 : 0;
    00002A71 E5               [16] 9086 	push	hl
    00002A72 21r01r00         [12] 9087 	ld	hl, #__joy_cur
    00002A75 CB 4E            [12] 9088 	bit	1, (hl)
    00002A77 E1               [12] 9089 	pop	hl
    00002A78 28 0B            [12] 9090 	jr	Z, 00155$
    00002A7A E5               [16] 9091 	push	hl
    00002A7B 21r00r00         [12] 9092 	ld	hl, #__joy_prev
    00002A7E CB 4E            [12] 9093 	bit	1, (hl)
    00002A80 E1               [12] 9094 	pop	hl
    00002A81 3E 01            [ 8] 9095 	ld	a, #0x01
    00002A83 28 01            [12] 9096 	jr	Z, 00156$
    00002A85                       9097 00155$:
    00002A85 AF               [ 4] 9098 	xor	a, a
    00002A86                       9099 00156$:
                                   9100 ;kaijugaiden.c:1475: if (plat_pressed(BTN_B)) return 2;
    00002A86 B7               [ 4] 9101 	or	a, a
    00002A87 28 05            [12] 9102 	jr	Z, 00115$
    00002A89 01 02 00         [12] 9103 	ld	bc, #0x0002
    00002A8C 18 03            [12] 9104 	jr	00123$
    00002A8E                       9105 00115$:
                                   9106 ;kaijugaiden.c:1476: return 0;
    00002A8E 01 00 00         [12] 9107 	ld	bc, #0x0000
    00002A91                       9108 00123$:
                                   9109 ;kaijugaiden.c:1477: }
    00002A91 E8 04            [16] 9110 	add	sp, #4
    00002A93 C9               [16] 9111 	ret
                                   9112 ;kaijugaiden.c:1486: static void stage_intro_init(void) {
                                   9113 ;	---------------------------------
                                   9114 ; Function stage_intro_init
                                   9115 ; ---------------------------------
    00002A94                       9116 _stage_intro_init:
                                   9117 ;kaijugaiden.c:1487: camera_reset();
    00002A94 CDr8Cr12         [24] 9118 	call	_camera_reset
                                   9119 ;kaijugaiden.c:1488: gs.phase_timer = 0;
    00002A97 21r4Dr00         [12] 9120 	ld	hl, #(_gs + 77)
    00002A9A AF               [ 4] 9121 	xor	a, a
    00002A9B 22               [ 8] 9122 	ld	(hl+), a
    00002A9C 77               [ 8] 9123 	ld	(hl), a
                                   9124 ;kaijugaiden.c:1489: bg_draw_beach();
    00002A9D CDrEBr0F         [24] 9125 	call	_bg_draw_beach
                                   9126 ;kaijugaiden.c:1490: spr_hide_all();
    00002AA0 CDr09r26         [24] 9127 	call	_spr_hide_all
                                   9128 ;kaijugaiden.c:1491: bg_draw_text(8, 6, "DUEL");
    00002AA3 11rC4r2A         [12] 9129 	ld	de, #___str_37
    00002AA6 D5               [16] 9130 	push	de
    00002AA7 1E 06            [ 8] 9131 	ld	e, #0x06
    00002AA9 3E 08            [ 8] 9132 	ld	a, #0x08
    00002AAB CDr03r0C         [24] 9133 	call	_bg_draw_text
                                   9134 ;kaijugaiden.c:146: set_bkg_tile_xy(x, y, tile);
    00002AAE 3E 23            [ 8] 9135 	ld	a, #0x23
    00002AB0 F5               [16] 9136 	push	af
    00002AB1 33               [ 8] 9137 	inc	sp
    00002AB2 1E 08            [ 8] 9138 	ld	e, #0x08
    00002AB4 3E 09            [ 8] 9139 	ld	a, #0x09
    00002AB6 CDr00r00         [24] 9140 	call	_set_bkg_tile_xy
    00002AB9 AF               [ 4] 9141 	xor	a, a
    00002ABA F5               [16] 9142 	push	af
    00002ABB 33               [ 8] 9143 	inc	sp
    00002ABC 1E 08            [ 8] 9144 	ld	e, #0x08
    00002ABE 3E 0A            [ 8] 9145 	ld	a, #0x0a
    00002AC0 CDr00r00         [24] 9146 	call	_set_bkg_tile_xy
                                   9147 ;kaijugaiden.c:1493: plat_set_bkg_tile(10, 8, TILE_BLANK);
                                   9148 ;kaijugaiden.c:1494: }
    00002AC3 C9               [16] 9149 	ret
    00002AC4                       9150 ___str_37:
    00002AC4 44 55 45 4C           9151 	.ascii "DUEL"
    00002AC8 00                    9152 	.db 0x00
                                   9153 ;kaijugaiden.c:1497: static int stage_intro_update(void) {
                                   9154 ;	---------------------------------
                                   9155 ; Function stage_intro_update
                                   9156 ; ---------------------------------
    00002AC9                       9157 _stage_intro_update:
                                   9158 ;kaijugaiden.c:1498: gs.phase_timer++;
    00002AC9 21r4Dr00         [12] 9159 	ld	hl, #(_gs + 77)
    00002ACC 2A               [ 8] 9160 	ld	a, (hl+)
    00002ACD 4F               [ 4] 9161 	ld	c, a
    00002ACE 46               [ 8] 9162 	ld	b, (hl)
    00002ACF 03               [ 8] 9163 	inc	bc
    00002AD0 21r4Dr00         [12] 9164 	ld	hl, #(_gs + 77)
    00002AD3 79               [ 4] 9165 	ld	a, c
    00002AD4 22               [ 8] 9166 	ld	(hl+), a
    00002AD5 70               [ 8] 9167 	ld	(hl), b
                                   9168 ;kaijugaiden.c:1499: u8 beat = (u8)(gs.phase_timer / INTRO_BEAT_DUR);
    00002AD6 59               [ 4] 9169 	ld	e, c
    00002AD7 50               [ 4] 9170 	ld	d, b
    00002AD8 01 28 00         [12] 9171 	ld	bc, #0x0028
    00002ADB CDr00r00         [24] 9172 	call	__divuint
                                   9173 ;kaijugaiden.c:1501: if (beat < 3)
    00002ADE 79               [ 4] 9174 	ld	a, c
    00002ADF D6 03            [ 8] 9175 	sub	a, #0x03
    00002AE1 30 11            [12] 9176 	jr	NC, 00104$
                                   9177 ;kaijugaiden.c:1502: plat_set_bkg_tile(9, 8, TILE_FONT_0 + (3 - beat));
    00002AE3 41               [ 4] 9178 	ld	b, c
    00002AE4 3E 23            [ 8] 9179 	ld	a, #0x23
    00002AE6 90               [ 4] 9180 	sub	a, b
                                   9181 ;kaijugaiden.c:146: set_bkg_tile_xy(x, y, tile);
    00002AE7 C5               [16] 9182 	push	bc
    00002AE8 F5               [16] 9183 	push	af
    00002AE9 33               [ 8] 9184 	inc	sp
    00002AEA 1E 08            [ 8] 9185 	ld	e, #0x08
    00002AEC 3E 09            [ 8] 9186 	ld	a, #0x09
    00002AEE CDr00r00         [24] 9187 	call	_set_bkg_tile_xy
    00002AF1 C1               [12] 9188 	pop	bc
                                   9189 ;kaijugaiden.c:1502: plat_set_bkg_tile(9, 8, TILE_FONT_0 + (3 - beat));
    00002AF2 18 11            [12] 9190 	jr	00105$
    00002AF4                       9191 00104$:
                                   9192 ;kaijugaiden.c:1503: else if (beat == 3) {
    00002AF4 79               [ 4] 9193 	ld	a, c
    00002AF5 D6 03            [ 8] 9194 	sub	a, #0x03
    00002AF7 20 0C            [12] 9195 	jr	NZ, 00105$
                                   9196 ;kaijugaiden.c:1504: bg_draw_text(8, 8, "DUEL");
    00002AF9 C5               [16] 9197 	push	bc
    00002AFA 11r12r2B         [12] 9198 	ld	de, #___str_38
    00002AFD D5               [16] 9199 	push	de
    00002AFE 3E 08            [ 8] 9200 	ld	a,#0x08
    00002B00 5F               [ 4] 9201 	ld	e,a
    00002B01 CDr03r0C         [24] 9202 	call	_bg_draw_text
    00002B04 C1               [12] 9203 	pop	bc
    00002B05                       9204 00105$:
                                   9205 ;kaijugaiden.c:1506: if (beat >= 5) return 1;
    00002B05 79               [ 4] 9206 	ld	a, c
    00002B06 D6 05            [ 8] 9207 	sub	a, #0x05
    00002B08 38 04            [12] 9208 	jr	C, 00107$
    00002B0A 01 01 00         [12] 9209 	ld	bc, #0x0001
    00002B0D C9               [16] 9210 	ret
    00002B0E                       9211 00107$:
                                   9212 ;kaijugaiden.c:1507: return 0;
    00002B0E 01 00 00         [12] 9213 	ld	bc, #0x0000
                                   9214 ;kaijugaiden.c:1508: }
    00002B11 C9               [16] 9215 	ret
    00002B12                       9216 ___str_38:
    00002B12 44 55 45 4C           9217 	.ascii "DUEL"
    00002B16 00                    9218 	.db 0x00
                                   9219 ;kaijugaiden.c:1515: static void minion_spawn_wave(void) {
                                   9220 ;	---------------------------------
                                   9221 ; Function minion_spawn_wave
                                   9222 ; ---------------------------------
    00002B17                       9223 _minion_spawn_wave:
    00002B17 E8 F9            [16] 9224 	add	sp, #-7
                                   9225 ;kaijugaiden.c:1517: u8 wave_size = (gs.wave + 1 >= BOSS_WAVES_TO_CLEAR) ? 3 : 2;
    00002B19 21r50r00         [12] 9226 	ld	hl, #(_gs + 80)
    00002B1C 4E               [ 8] 9227 	ld	c, (hl)
    00002B1D 06 00            [ 8] 9228 	ld	b, #0x00
    00002B1F 03               [ 8] 9229 	inc	bc
    00002B20 79               [ 4] 9230 	ld	a, c
    00002B21 D6 03            [ 8] 9231 	sub	a, #0x03
    00002B23 78               [ 4] 9232 	ld	a, b
    00002B24 DE 00            [ 8] 9233 	sbc	a, #0x00
    00002B26 38 04            [12] 9234 	jr	C, 00113$
    00002B28 3E 03            [ 8] 9235 	ld	a, #0x03
    00002B2A 18 02            [12] 9236 	jr	00114$
    00002B2C                       9237 00113$:
    00002B2C 3E 02            [ 8] 9238 	ld	a, #0x02
    00002B2E                       9239 00114$:
    00002B2E F8 00            [12] 9240 	ldhl	sp,	#0
    00002B30 77               [ 8] 9241 	ld	(hl), a
                                   9242 ;kaijugaiden.c:1518: for (u8 i = 0; i < MINION_MAX && spawned < wave_size; ++i) {
    00002B31 F8 06            [12] 9243 	ldhl	sp,	#6
    00002B33 36 00            [12] 9244 	ld	(hl), #0x00
    00002B35 0E 00            [ 8] 9245 	ld	c, #0x00
    00002B37                       9246 00109$:
    00002B37 79               [ 4] 9247 	ld	a, c
    00002B38 D6 05            [ 8] 9248 	sub	a, #0x05
    00002B3A D2rE8r2B         [16] 9249 	jp	NC, 00106$
    00002B3D F8 06            [12] 9250 	ldhl	sp,	#6
    00002B3F 7E               [ 8] 9251 	ld	a, (hl)
    00002B40 F8 00            [12] 9252 	ldhl	sp,	#0
    00002B42 96               [ 8] 9253 	sub	a, (hl)
    00002B43 D2rE8r2B         [16] 9254 	jp	NC, 00106$
                                   9255 ;kaijugaiden.c:1519: if (!gs.minions[i].active) {
    00002B46 79               [ 4] 9256 	ld	a, c
    00002B47 87               [ 4] 9257 	add	a, a
    00002B48 87               [ 4] 9258 	add	a, a
    00002B49 87               [ 4] 9259 	add	a, a
    00002B4A 81               [ 4] 9260 	add	a, c
    00002B4B 5F               [ 4] 9261 	ld	e, a
    00002B4C 16 00            [ 8] 9262 	ld	d, #0x00
    00002B4E 21r1Fr00         [12] 9263 	ld	hl, #(_gs + 31)
    00002B51 19               [ 8] 9264 	add	hl, de
    00002B52 E5               [16] 9265 	push	hl
    00002B53 7D               [ 4] 9266 	ld	a, l
    00002B54 F8 03            [12] 9267 	ldhl	sp,	#3
    00002B56 77               [ 8] 9268 	ld	(hl), a
    00002B57 E1               [12] 9269 	pop	hl
    00002B58 7C               [ 4] 9270 	ld	a, h
    00002B59 F8 02            [12] 9271 	ldhl	sp,	#2
    00002B5B 32               [ 8] 9272 	ld	(hl-), a
    00002B5C 2A               [ 8] 9273 	ld	a, (hl+)
    00002B5D 5F               [ 4] 9274 	ld	e, a
    00002B5E 56               [ 8] 9275 	ld	d, (hl)
    00002B5F 1A               [ 8] 9276 	ld	a, (de)
    00002B60 B7               [ 4] 9277 	or	a, a
    00002B61 C2rE4r2B         [16] 9278 	jp	NZ, 00110$
                                   9279 ;kaijugaiden.c:1520: gs.minions[i].active = 1;
                                   9280 ;kaijugaiden.c:1521: gs.minions[i].hp     = MINION_HP;
    00002B64 2B               [ 8] 9281 	dec	hl
    00002B65 3E 01            [ 8] 9282 	ld	a, #0x01
    00002B67 12               [ 8] 9283 	ld	(de), a
    00002B68 2A               [ 8] 9284 	ld	a, (hl+)
    00002B69 5F               [ 4] 9285 	ld	e, a
    00002B6A 56               [ 8] 9286 	ld	d, (hl)
    00002B6B 21 04 00         [12] 9287 	ld	hl, #0x0004
    00002B6E 19               [ 8] 9288 	add	hl, de
    00002B6F 36 02            [12] 9289 	ld	(hl), #0x02
                                   9290 ;kaijugaiden.c:1522: gs.minions[i].y      = (u8)(SCR_H - 32);
    00002B71 F8 01            [12] 9291 	ldhl	sp,	#1
    00002B73 2A               [ 8] 9292 	ld	a, (hl+)
    00002B74 66               [ 8] 9293 	ld	h, (hl)
    00002B75 6F               [ 4] 9294 	ld	l, a
    00002B76 23               [ 8] 9295 	inc	hl
    00002B77 23               [ 8] 9296 	inc	hl
    00002B78 23               [ 8] 9297 	inc	hl
    00002B79 36 70            [12] 9298 	ld	(hl), #0x70
                                   9299 ;kaijugaiden.c:1523: gs.minions[i].attack_windup = 0;
    00002B7B F8 01            [12] 9300 	ldhl	sp,#1
    00002B7D 2A               [ 8] 9301 	ld	a, (hl+)
    00002B7E 5F               [ 4] 9302 	ld	e, a
    00002B7F 56               [ 8] 9303 	ld	d, (hl)
    00002B80 21 06 00         [12] 9304 	ld	hl, #0x0006
    00002B83 19               [ 8] 9305 	add	hl, de
    00002B84 5D               [ 4] 9306 	ld	e, l
    00002B85 54               [ 4] 9307 	ld	d, h
    00002B86 AF               [ 4] 9308 	xor	a, a
    00002B87 12               [ 8] 9309 	ld	(de), a
                                   9310 ;kaijugaiden.c:1524: gs.minions[i].attack_recover = 0;
    00002B88 F8 01            [12] 9311 	ldhl	sp,#1
    00002B8A 2A               [ 8] 9312 	ld	a, (hl+)
    00002B8B 5F               [ 4] 9313 	ld	e, a
    00002B8C 56               [ 8] 9314 	ld	d, (hl)
    00002B8D 21 07 00         [12] 9315 	ld	hl, #0x0007
    00002B90 19               [ 8] 9316 	add	hl, de
    00002B91 5D               [ 4] 9317 	ld	e, l
    00002B92 54               [ 4] 9318 	ld	d, h
    00002B93 AF               [ 4] 9319 	xor	a, a
    00002B94 12               [ 8] 9320 	ld	(de), a
                                   9321 ;kaijugaiden.c:1526: if (i % 2 == 0) {
    00002B95 79               [ 4] 9322 	ld	a, c
    00002B96 E6 01            [ 8] 9323 	and	a, #0x01
    00002B98 F8 03            [12] 9324 	ldhl	sp,	#3
                                   9325 ;kaijugaiden.c:1527: gs.minions[i].x  = SCR_W - 24;
    00002B9A 32               [ 8] 9326 	ld	(hl-), a
    00002B9B 2B               [ 8] 9327 	dec	hl
    00002B9C 2A               [ 8] 9328 	ld	a, (hl+)
    00002B9D 5F               [ 4] 9329 	ld	e, a
                                   9330 ;kaijugaiden.c:1528: gs.minions[i].vx = -1;
    00002B9E 3A               [ 8] 9331 	ld	a, (hl-)
    00002B9F 57               [ 4] 9332 	ld	d, a
    00002BA0 13               [ 8] 9333 	inc	de
    00002BA1 D5               [16] 9334 	push	de
    00002BA2 2A               [ 8] 9335 	ld	a, (hl+)
    00002BA3 5F               [ 4] 9336 	ld	e, a
    00002BA4 56               [ 8] 9337 	ld	d, (hl)
    00002BA5 21 08 00         [12] 9338 	ld	hl, #0x0008
    00002BA8 19               [ 8] 9339 	add	hl, de
    00002BA9 D1               [12] 9340 	pop	de
    00002BAA E5               [16] 9341 	push	hl
    00002BAB 7D               [ 4] 9342 	ld	a, l
    00002BAC F8 06            [12] 9343 	ldhl	sp,	#6
    00002BAE 77               [ 8] 9344 	ld	(hl), a
    00002BAF E1               [12] 9345 	pop	hl
    00002BB0 7C               [ 4] 9346 	ld	a, h
    00002BB1 F8 05            [12] 9347 	ldhl	sp,	#5
                                   9348 ;kaijugaiden.c:1526: if (i % 2 == 0) {
    00002BB3 32               [ 8] 9349 	ld	(hl-), a
    00002BB4 2B               [ 8] 9350 	dec	hl
    00002BB5 7E               [ 8] 9351 	ld	a, (hl)
    00002BB6 B7               [ 4] 9352 	or	a, a
    00002BB7 20 0E            [12] 9353 	jr	NZ, 00102$
                                   9354 ;kaijugaiden.c:1527: gs.minions[i].x  = SCR_W - 24;
                                   9355 ;kaijugaiden.c:1528: gs.minions[i].vx = -1;
    00002BB9 23               [ 8] 9356 	inc	hl
    00002BBA 3E 88            [ 8] 9357 	ld	a, #0x88
    00002BBC 12               [ 8] 9358 	ld	(de), a
    00002BBD 13               [ 8] 9359 	inc	de
    00002BBE AF               [ 4] 9360 	xor	a, a
    00002BBF 12               [ 8] 9361 	ld	(de), a
    00002BC0 2A               [ 8] 9362 	ld	a, (hl+)
    00002BC1 66               [ 8] 9363 	ld	h, (hl)
    00002BC2 6F               [ 4] 9364 	ld	l, a
    00002BC3 36 FF            [12] 9365 	ld	(hl), #0xff
    00002BC5 18 0D            [12] 9366 	jr	00103$
    00002BC7                       9367 00102$:
                                   9368 ;kaijugaiden.c:1530: gs.minions[i].x  = 4;
    00002BC7 3E 04            [ 8] 9369 	ld	a, #0x04
    00002BC9 12               [ 8] 9370 	ld	(de), a
    00002BCA 13               [ 8] 9371 	inc	de
    00002BCB AF               [ 4] 9372 	xor	a, a
    00002BCC 12               [ 8] 9373 	ld	(de), a
                                   9374 ;kaijugaiden.c:1531: gs.minions[i].vx = +1;
    00002BCD F8 04            [12] 9375 	ldhl	sp,	#4
    00002BCF 2A               [ 8] 9376 	ld	a, (hl+)
    00002BD0 66               [ 8] 9377 	ld	h, (hl)
    00002BD1 6F               [ 4] 9378 	ld	l, a
    00002BD2 36 01            [12] 9379 	ld	(hl), #0x01
    00002BD4                       9380 00103$:
                                   9381 ;kaijugaiden.c:1533: gs.minions[i].anim = 0;
    00002BD4 F8 01            [12] 9382 	ldhl	sp,#1
    00002BD6 2A               [ 8] 9383 	ld	a, (hl+)
    00002BD7 5F               [ 4] 9384 	ld	e, a
    00002BD8 56               [ 8] 9385 	ld	d, (hl)
    00002BD9 21 05 00         [12] 9386 	ld	hl, #0x0005
    00002BDC 19               [ 8] 9387 	add	hl, de
    00002BDD 5D               [ 4] 9388 	ld	e, l
    00002BDE 54               [ 4] 9389 	ld	d, h
    00002BDF AF               [ 4] 9390 	xor	a, a
    00002BE0 12               [ 8] 9391 	ld	(de), a
                                   9392 ;kaijugaiden.c:1534: spawned++;
    00002BE1 F8 06            [12] 9393 	ldhl	sp,	#6
    00002BE3 34               [12] 9394 	inc	(hl)
    00002BE4                       9395 00110$:
                                   9396 ;kaijugaiden.c:1518: for (u8 i = 0; i < MINION_MAX && spawned < wave_size; ++i) {
    00002BE4 0C               [ 4] 9397 	inc	c
    00002BE5 C3r37r2B         [16] 9398 	jp	00109$
    00002BE8                       9399 00106$:
                                   9400 ;kaijugaiden.c:1537: gs.wave++;
    00002BE8 FAr50r00         [16] 9401 	ld	a, (#(_gs + 80) + 0)
    00002BEB 3C               [ 4] 9402 	inc	a
    00002BEC 21r50r00         [12] 9403 	ld	hl, #(_gs + 80)
                                   9404 ;kaijugaiden.c:1538: gs.wave_timer = 120; /* next wave in 2s */
    00002BEF 22               [ 8] 9405 	ld	(hl+), a
    00002BF0 36 78            [12] 9406 	ld	(hl), #0x78
                                   9407 ;kaijugaiden.c:1539: }
    00002BF2 E8 07            [16] 9408 	add	sp, #7
    00002BF4 C9               [16] 9409 	ret
                                   9410 ;kaijugaiden.c:1541: static void minion_update_all(void) {
                                   9411 ;	---------------------------------
                                   9412 ; Function minion_update_all
                                   9413 ; ---------------------------------
    00002BF5                       9414 _minion_update_all:
    00002BF5 E8 F0            [16] 9415 	add	sp, #-16
                                   9416 ;kaijugaiden.c:1542: for (u8 i = 0; i < MINION_MAX; ++i) {
    00002BF7 F8 0F            [12] 9417 	ldhl	sp,	#15
    00002BF9 36 00            [12] 9418 	ld	(hl), #0x00
    00002BFB                       9419 00134$:
    00002BFB F8 0F            [12] 9420 	ldhl	sp,	#15
                                   9421 ;kaijugaiden.c:1545: if (!gs.minions[i].active) continue;
    00002BFD 7E               [ 8] 9422 	ld	a,(hl)
    00002BFE FE 05            [ 8] 9423 	cp	a,#0x05
    00002C00 D2r00r2E         [16] 9424 	jp	NC,00135$
    00002C03 4F               [ 4] 9425 	ld	c, a
    00002C04 87               [ 4] 9426 	add	a, a
    00002C05 87               [ 4] 9427 	add	a, a
    00002C06 87               [ 4] 9428 	add	a, a
    00002C07 81               [ 4] 9429 	add	a, c
    00002C08 5F               [ 4] 9430 	ld	e, a
    00002C09 16 00            [ 8] 9431 	ld	d, #0x00
    00002C0B 21r1Fr00         [12] 9432 	ld	hl, #(_gs + 31)
    00002C0E 19               [ 8] 9433 	add	hl, de
    00002C0F 33               [ 8] 9434 	inc	sp
    00002C10 33               [ 8] 9435 	inc	sp
    00002C11 E5               [16] 9436 	push	hl
    00002C12 F8 00            [12] 9437 	ldhl	sp,	#0
    00002C14 2A               [ 8] 9438 	ld	a, (hl+)
    00002C15 23               [ 8] 9439 	inc	hl
    00002C16 32               [ 8] 9440 	ld	(hl-), a
    00002C17 2A               [ 8] 9441 	ld	a, (hl+)
    00002C18 23               [ 8] 9442 	inc	hl
    00002C19 32               [ 8] 9443 	ld	(hl-), a
    00002C1A 2A               [ 8] 9444 	ld	a, (hl+)
    00002C1B 5F               [ 4] 9445 	ld	e, a
    00002C1C 56               [ 8] 9446 	ld	d, (hl)
    00002C1D 1A               [ 8] 9447 	ld	a, (de)
    00002C1E 4F               [ 4] 9448 	ld	c, a
    00002C1F B7               [ 4] 9449 	or	a, a
    00002C20 CArFAr2D         [16] 9450 	jp	Z, 00131$
                                   9451 ;kaijugaiden.c:1546: gs.minions[i].anim++;
    00002C23 D1               [12] 9452 	pop	de
    00002C24 D5               [16] 9453 	push	de
    00002C25 21 05 00         [12] 9454 	ld	hl, #0x0005
    00002C28 19               [ 8] 9455 	add	hl, de
    00002C29 4D               [ 4] 9456 	ld	c, l
    00002C2A 44               [ 4] 9457 	ld	b, h
    00002C2B 0A               [ 8] 9458 	ld	a, (bc)
    00002C2C 3C               [ 4] 9459 	inc	a
    00002C2D 02               [ 8] 9460 	ld	(bc), a
                                   9461 ;kaijugaiden.c:1547: player_px = (s16)(gs.player_x * TILE_W);
    00002C2E 21r01r00         [12] 9462 	ld	hl, #_gs + 1
    00002C31 6E               [ 8] 9463 	ld	l, (hl)
    00002C32 26 00            [ 8] 9464 	ld	h, #0x00
    00002C34 29               [ 8] 9465 	add	hl, hl
    00002C35 29               [ 8] 9466 	add	hl, hl
    00002C36 29               [ 8] 9467 	add	hl, hl
    00002C37 7D               [ 4] 9468 	ld	a, l
    00002C38 4C               [ 4] 9469 	ld	c, h
    00002C39 F8 04            [12] 9470 	ldhl	sp,	#4
    00002C3B 22               [ 8] 9471 	ld	(hl+), a
    00002C3C 71               [ 8] 9472 	ld	(hl), c
                                   9473 ;kaijugaiden.c:1548: delta = player_px - gs.minions[i].x;
    00002C3D D1               [12] 9474 	pop	de
    00002C3E D5               [16] 9475 	push	de
    00002C3F 6B               [ 4] 9476 	ld	l, e
    00002C40 62               [ 4] 9477 	ld	h, d
    00002C41 23               [ 8] 9478 	inc	hl
    00002C42 E5               [16] 9479 	push	hl
    00002C43 7D               [ 4] 9480 	ld	a, l
    00002C44 F8 08            [12] 9481 	ldhl	sp,	#8
    00002C46 77               [ 8] 9482 	ld	(hl), a
    00002C47 E1               [12] 9483 	pop	hl
    00002C48 7C               [ 4] 9484 	ld	a, h
    00002C49 F8 07            [12] 9485 	ldhl	sp,	#7
    00002C4B 32               [ 8] 9486 	ld	(hl-), a
    00002C4C 2A               [ 8] 9487 	ld	a, (hl+)
    00002C4D 5F               [ 4] 9488 	ld	e, a
    00002C4E 3A               [ 8] 9489 	ld	a, (hl-)
    00002C4F 2B               [ 8] 9490 	dec	hl
    00002C50 2B               [ 8] 9491 	dec	hl
    00002C51 57               [ 4] 9492 	ld	d, a
    00002C52 1A               [ 8] 9493 	ld	a, (de)
    00002C53 4F               [ 4] 9494 	ld	c, a
    00002C54 13               [ 8] 9495 	inc	de
    00002C55 1A               [ 8] 9496 	ld	a, (de)
    00002C56 47               [ 4] 9497 	ld	b, a
    00002C57 2A               [ 8] 9498 	ld	a, (hl+)
    00002C58 5F               [ 4] 9499 	ld	e, a
    00002C59 56               [ 8] 9500 	ld	d, (hl)
    00002C5A 7B               [ 4] 9501 	ld	a, e
    00002C5B 91               [ 4] 9502 	sub	a, c
    00002C5C 5F               [ 4] 9503 	ld	e, a
    00002C5D 7A               [ 4] 9504 	ld	a, d
    00002C5E 98               [ 4] 9505 	sbc	a, b
    00002C5F 4B               [ 4] 9506 	ld	c, e
                                   9507 ;kaijugaiden.c:1549: if (delta < 0) gs.minions[i].vx = -1;
    00002C60 F8 0D            [12] 9508 	ldhl	sp,	#13
    00002C62 71               [ 8] 9509 	ld	(hl), c
    00002C63 23               [ 8] 9510 	inc	hl
    00002C64 77               [ 8] 9511 	ld	(hl), a
    00002C65 D1               [12] 9512 	pop	de
    00002C66 D5               [16] 9513 	push	de
    00002C67 21 08 00         [12] 9514 	ld	hl, #0x0008
    00002C6A 19               [ 8] 9515 	add	hl, de
    00002C6B E5               [16] 9516 	push	hl
    00002C6C 7D               [ 4] 9517 	ld	a, l
    00002C6D F8 0A            [12] 9518 	ldhl	sp,	#10
    00002C6F 77               [ 8] 9519 	ld	(hl), a
    00002C70 E1               [12] 9520 	pop	hl
    00002C71 7C               [ 4] 9521 	ld	a, h
    00002C72 F8 09            [12] 9522 	ldhl	sp,	#9
    00002C74 77               [ 8] 9523 	ld	(hl), a
    00002C75 F8 0E            [12] 9524 	ldhl	sp,	#14
    00002C77 CB 7E            [12] 9525 	bit	7, (hl)
    00002C79 28 09            [12] 9526 	jr	Z, 00106$
    00002C7B F8 08            [12] 9527 	ldhl	sp,	#8
    00002C7D 2A               [ 8] 9528 	ld	a, (hl+)
    00002C7E 66               [ 8] 9529 	ld	h, (hl)
    00002C7F 6F               [ 4] 9530 	ld	l, a
    00002C80 36 FF            [12] 9531 	ld	(hl), #0xff
    00002C82 18 11            [12] 9532 	jr	00107$
    00002C84                       9533 00106$:
                                   9534 ;kaijugaiden.c:1550: else if (delta > 0) gs.minions[i].vx = 1;
    00002C84 F8 0D            [12] 9535 	ldhl	sp,	#13
    00002C86 AF               [ 4] 9536 	xor	a, a
    00002C87 96               [ 8] 9537 	sub	a, (hl)
    00002C88 23               [ 8] 9538 	inc	hl
    00002C89 3E 00            [ 8] 9539 	ld	a, #0x00
    00002C8B 9E               [ 8] 9540 	sbc	a, (hl)
    00002C8C 30 07            [12] 9541 	jr	NC, 00107$
    00002C8E F8 08            [12] 9542 	ldhl	sp,	#8
    00002C90 2A               [ 8] 9543 	ld	a, (hl+)
    00002C91 66               [ 8] 9544 	ld	h, (hl)
    00002C92 6F               [ 4] 9545 	ld	l, a
    00002C93 36 01            [12] 9546 	ld	(hl), #0x01
    00002C95                       9547 00107$:
                                   9548 ;kaijugaiden.c:1552: if (gs.minions[i].attack_recover > 0) {
    00002C95 D1               [12] 9549 	pop	de
    00002C96 D5               [16] 9550 	push	de
    00002C97 21 07 00         [12] 9551 	ld	hl, #0x0007
    00002C9A 19               [ 8] 9552 	add	hl, de
    00002C9B E5               [16] 9553 	push	hl
    00002C9C 7D               [ 4] 9554 	ld	a, l
    00002C9D F8 0C            [12] 9555 	ldhl	sp,	#12
    00002C9F 77               [ 8] 9556 	ld	(hl), a
    00002CA0 E1               [12] 9557 	pop	hl
    00002CA1 7C               [ 4] 9558 	ld	a, h
    00002CA2 F8 0B            [12] 9559 	ldhl	sp,	#11
    00002CA4 32               [ 8] 9560 	ld	(hl-), a
    00002CA5 2A               [ 8] 9561 	ld	a, (hl+)
    00002CA6 5F               [ 4] 9562 	ld	e, a
    00002CA7 56               [ 8] 9563 	ld	d, (hl)
    00002CA8 1A               [ 8] 9564 	ld	a, (de)
    00002CA9 F8 0E            [12] 9565 	ldhl	sp,	#14
                                   9566 ;kaijugaiden.c:1553: gs.minions[i].attack_recover--;
    00002CAB 77               [ 8] 9567 	ld	(hl),a
    00002CAC B7               [ 4] 9568 	or	a,a
    00002CAD 28 0B            [12] 9569 	jr	Z, 00123$
    00002CAF 3D               [ 4] 9570 	dec	a
    00002CB0 F8 0A            [12] 9571 	ldhl	sp,	#10
    00002CB2 5E               [ 8] 9572 	ld	e, (hl)
    00002CB3 23               [ 8] 9573 	inc	hl
    00002CB4 66               [ 8] 9574 	ld	h, (hl)
    00002CB5 6B               [ 4] 9575 	ld	l, e
    00002CB6 77               [ 8] 9576 	ld	(hl), a
    00002CB7 C3r99r2D         [16] 9577 	jp	00124$
    00002CBA                       9578 00123$:
                                   9579 ;kaijugaiden.c:1554: } else if (gs.minions[i].attack_windup > 0) {
    00002CBA D1               [12] 9580 	pop	de
    00002CBB D5               [16] 9581 	push	de
    00002CBC 21 06 00         [12] 9582 	ld	hl, #0x0006
    00002CBF 19               [ 8] 9583 	add	hl, de
    00002CC0 E5               [16] 9584 	push	hl
    00002CC1 7D               [ 4] 9585 	ld	a, l
    00002CC2 F8 0E            [12] 9586 	ldhl	sp,	#14
    00002CC4 77               [ 8] 9587 	ld	(hl), a
    00002CC5 E1               [12] 9588 	pop	hl
    00002CC6 7C               [ 4] 9589 	ld	a, h
    00002CC7 F8 0D            [12] 9590 	ldhl	sp,	#13
    00002CC9 32               [ 8] 9591 	ld	(hl-), a
    00002CCA 2A               [ 8] 9592 	ld	a, (hl+)
    00002CCB 5F               [ 4] 9593 	ld	e, a
    00002CCC 56               [ 8] 9594 	ld	d, (hl)
    00002CCD 1A               [ 8] 9595 	ld	a, (de)
    00002CCE B7               [ 4] 9596 	or	a, a
    00002CCF 28 5C            [12] 9597 	jr	Z, 00120$
                                   9598 ;kaijugaiden.c:1555: gs.minions[i].attack_windup--;
    00002CD1 23               [ 8] 9599 	inc	hl
    00002CD2 3D               [ 4] 9600 	dec	a
    00002CD3 32               [ 8] 9601 	ld	(hl-), a
    00002CD4 2B               [ 8] 9602 	dec	hl
    00002CD5 2A               [ 8] 9603 	ld	a, (hl+)
    00002CD6 5F               [ 4] 9604 	ld	e, a
    00002CD7 2A               [ 8] 9605 	ld	a, (hl+)
    00002CD8 57               [ 4] 9606 	ld	d, a
    00002CD9 7E               [ 8] 9607 	ld	a, (hl)
    00002CDA 12               [ 8] 9608 	ld	(de), a
                                   9609 ;kaijugaiden.c:1556: if (gs.minions[i].attack_windup == 0) {
    00002CDB 7E               [ 8] 9610 	ld	a, (hl)
    00002CDC B7               [ 4] 9611 	or	a, a
    00002CDD C2r99r2D         [16] 9612 	jp	NZ, 00124$
                                   9613 ;kaijugaiden.c:1557: if (abs_distance_u8(gs.minions[i].x, player_px) <= MINION_ATTACK_RANGE && gs.hit_stun == 0 && gs.dodge_timer == 0) {
    00002CE0 F8 06            [12] 9614 	ldhl	sp,#6
    00002CE2 2A               [ 8] 9615 	ld	a, (hl+)
    00002CE3 5F               [ 4] 9616 	ld	e, a
    00002CE4 56               [ 8] 9617 	ld	d, (hl)
    00002CE5 1A               [ 8] 9618 	ld	a, (de)
    00002CE6 F8 0D            [12] 9619 	ldhl	sp,	#13
    00002CE8 22               [ 8] 9620 	ld	(hl+), a
    00002CE9 13               [ 8] 9621 	inc	de
    00002CEA 1A               [ 8] 9622 	ld	a, (de)
    00002CEB 77               [ 8] 9623 	ld	(hl), a
    00002CEC F8 04            [12] 9624 	ldhl	sp,	#4
    00002CEE 2A               [ 8] 9625 	ld	a, (hl+)
    00002CEF 4F               [ 4] 9626 	ld	c, a
    00002CF0 46               [ 8] 9627 	ld	b, (hl)
    00002CF1 F8 0D            [12] 9628 	ldhl	sp,	#13
    00002CF3 2A               [ 8] 9629 	ld	a, (hl+)
    00002CF4 5F               [ 4] 9630 	ld	e, a
    00002CF5 56               [ 8] 9631 	ld	d, (hl)
    00002CF6 CDrC0r11         [24] 9632 	call	_abs_distance_u8
    00002CF9 FE 13            [ 8] 9633 	cp	a, #0x13
    00002CFB 30 27            [12] 9634 	jr	NC, 00111$
    00002CFD 01r09r00         [12] 9635 	ld	bc, #_gs + 9
    00002D00 0A               [ 8] 9636 	ld	a, (bc)
    00002D01 B7               [ 4] 9637 	or	a, a
    00002D02 20 20            [12] 9638 	jr	NZ, 00111$
    00002D04 FAr0Ar00         [16] 9639 	ld	a, (#(_gs + 10) + 0)
    00002D07 B7               [ 4] 9640 	or	a, a
    00002D08 20 1A            [12] 9641 	jr	NZ, 00111$
                                   9642 ;kaijugaiden.c:1558: if (gs.player_hp > 0) gs.player_hp--;
    00002D0A 21r00r00         [12] 9643 	ld	hl, #_gs
    00002D0D 7E               [ 8] 9644 	ld	a, (hl)
    00002D0E B7               [ 4] 9645 	or	a, a
    00002D0F 28 02            [12] 9646 	jr	Z, 00109$
    00002D11 3D               [ 4] 9647 	dec	a
    00002D12 77               [ 8] 9648 	ld	(hl), a
    00002D13                       9649 00109$:
                                   9650 ;kaijugaiden.c:1559: gs.hit_stun = 36;
    00002D13 3E 24            [ 8] 9651 	ld	a, #0x24
    00002D15 02               [ 8] 9652 	ld	(bc), a
                                   9653 ;kaijugaiden.c:1560: gs.fx_hit_x = (u8)player_px;
    00002D16 F8 04            [12] 9654 	ldhl	sp,	#4
    00002D18 7E               [ 8] 9655 	ld	a, (hl)
    00002D19 21r70r00         [12] 9656 	ld	hl, #(_gs + 112)
                                   9657 ;kaijugaiden.c:1561: gs.fx_hit_y = (u8)(SCR_H - 28);
    00002D1C 22               [ 8] 9658 	ld	(hl+), a
    00002D1D 36 74            [12] 9659 	ld	(hl), #0x74
                                   9660 ;kaijugaiden.c:1562: gs.fx_hit_timer = 8;
    00002D1F 21r72r00         [12] 9661 	ld	hl, #_gs + 114
    00002D22 36 08            [12] 9662 	ld	(hl), #0x08
    00002D24                       9663 00111$:
                                   9664 ;kaijugaiden.c:1564: gs.minions[i].attack_recover = MINION_RECOVER_FRAMES;
    00002D24 F8 0A            [12] 9665 	ldhl	sp,	#10
    00002D26 2A               [ 8] 9666 	ld	a, (hl+)
    00002D27 66               [ 8] 9667 	ld	h, (hl)
    00002D28 6F               [ 4] 9668 	ld	l, a
    00002D29 36 14            [12] 9669 	ld	(hl), #0x14
    00002D2B 18 6C            [12] 9670 	jr	00124$
    00002D2D                       9671 00120$:
                                   9672 ;kaijugaiden.c:1567: if (abs_distance_u8(gs.minions[i].x, player_px) <= MINION_ATTACK_RANGE) {
    00002D2D F8 06            [12] 9673 	ldhl	sp,#6
    00002D2F 2A               [ 8] 9674 	ld	a, (hl+)
    00002D30 5F               [ 4] 9675 	ld	e, a
    00002D31 56               [ 8] 9676 	ld	d, (hl)
    00002D32 1A               [ 8] 9677 	ld	a, (de)
    00002D33 F8 0A            [12] 9678 	ldhl	sp,	#10
    00002D35 22               [ 8] 9679 	ld	(hl+), a
    00002D36 13               [ 8] 9680 	inc	de
    00002D37 1A               [ 8] 9681 	ld	a, (de)
    00002D38 77               [ 8] 9682 	ld	(hl), a
    00002D39 F8 04            [12] 9683 	ldhl	sp,	#4
    00002D3B 2A               [ 8] 9684 	ld	a, (hl+)
    00002D3C 4F               [ 4] 9685 	ld	c, a
    00002D3D 46               [ 8] 9686 	ld	b, (hl)
    00002D3E F8 0A            [12] 9687 	ldhl	sp,	#10
    00002D40 2A               [ 8] 9688 	ld	a, (hl+)
    00002D41 5F               [ 4] 9689 	ld	e, a
    00002D42 56               [ 8] 9690 	ld	d, (hl)
    00002D43 CDrC0r11         [24] 9691 	call	_abs_distance_u8
    00002D46 F8 0E            [12] 9692 	ldhl	sp,	#14
    00002D48 77               [ 8] 9693 	ld	(hl), a
    00002D49 3E 12            [ 8] 9694 	ld	a, #0x12
    00002D4B F8 0E            [12] 9695 	ldhl	sp,	#14
    00002D4D 96               [ 8] 9696 	sub	a, (hl)
    00002D4E 38 08            [12] 9697 	jr	C, 00117$
                                   9698 ;kaijugaiden.c:1568: gs.minions[i].attack_windup = MINION_WINDUP_FRAMES;
    00002D50 2B               [ 8] 9699 	dec	hl
    00002D51 3A               [ 8] 9700 	ld	a, (hl-)
    00002D52 6E               [ 8] 9701 	ld	l, (hl)
    00002D53 67               [ 4] 9702 	ld	h, a
    00002D54 36 0E            [12] 9703 	ld	(hl), #0x0e
    00002D56 18 41            [12] 9704 	jr	00124$
    00002D58                       9705 00117$:
                                   9706 ;kaijugaiden.c:1570: gs.minions[i].x += gs.minions[i].vx;
    00002D58 F8 06            [12] 9707 	ldhl	sp,#6
    00002D5A 2A               [ 8] 9708 	ld	a, (hl+)
    00002D5B 5F               [ 4] 9709 	ld	e, a
    00002D5C 56               [ 8] 9710 	ld	d, (hl)
    00002D5D 1A               [ 8] 9711 	ld	a, (de)
    00002D5E F8 0D            [12] 9712 	ldhl	sp,	#13
    00002D60 22               [ 8] 9713 	ld	(hl+), a
    00002D61 13               [ 8] 9714 	inc	de
    00002D62 1A               [ 8] 9715 	ld	a, (de)
    00002D63 77               [ 8] 9716 	ld	(hl), a
    00002D64 F8 08            [12] 9717 	ldhl	sp,#8
    00002D66 2A               [ 8] 9718 	ld	a, (hl+)
    00002D67 5F               [ 4] 9719 	ld	e, a
    00002D68 56               [ 8] 9720 	ld	d, (hl)
    00002D69 1A               [ 8] 9721 	ld	a, (de)
    00002D6A F8 04            [12] 9722 	ldhl	sp,	#4
    00002D6C 22               [ 8] 9723 	ld	(hl+), a
    00002D6D 07               [ 4] 9724 	rlca
    00002D6E 9F               [ 4] 9725 	sbc	a, a
    00002D6F 77               [ 8] 9726 	ld	(hl), a
    00002D70 F8 0D            [12] 9727 	ldhl	sp,	#13
    00002D72 3A               [ 8] 9728 	ld	a, (hl-)
    00002D73 2B               [ 8] 9729 	dec	hl
    00002D74 77               [ 8] 9730 	ld	(hl), a
    00002D75 F8 0E            [12] 9731 	ldhl	sp,	#14
    00002D77 3A               [ 8] 9732 	ld	a, (hl-)
    00002D78 2B               [ 8] 9733 	dec	hl
    00002D79 32               [ 8] 9734 	ld	(hl-), a
    00002D7A 2A               [ 8] 9735 	ld	a, (hl+)
    00002D7B 5F               [ 4] 9736 	ld	e, a
    00002D7C 56               [ 8] 9737 	ld	d, (hl)
    00002D7D F8 04            [12] 9738 	ldhl	sp,	#4
    00002D7F 2A               [ 8] 9739 	ld	a,	(hl+)
    00002D80 66               [ 8] 9740 	ld	h, (hl)
    00002D81 6F               [ 4] 9741 	ld	l, a
    00002D82 19               [ 8] 9742 	add	hl, de
    00002D83 E5               [16] 9743 	push	hl
    00002D84 7D               [ 4] 9744 	ld	a, l
    00002D85 F8 0F            [12] 9745 	ldhl	sp,	#15
    00002D87 77               [ 8] 9746 	ld	(hl), a
    00002D88 E1               [12] 9747 	pop	hl
    00002D89 7C               [ 4] 9748 	ld	a, h
    00002D8A F8 0E            [12] 9749 	ldhl	sp,	#14
    00002D8C 77               [ 8] 9750 	ld	(hl), a
    00002D8D F8 06            [12] 9751 	ldhl	sp,	#6
    00002D8F 2A               [ 8] 9752 	ld	a, (hl+)
    00002D90 5F               [ 4] 9753 	ld	e, a
    00002D91 56               [ 8] 9754 	ld	d, (hl)
    00002D92 F8 0D            [12] 9755 	ldhl	sp,	#13
    00002D94 2A               [ 8] 9756 	ld	a, (hl+)
    00002D95 12               [ 8] 9757 	ld	(de), a
    00002D96 13               [ 8] 9758 	inc	de
    00002D97 7E               [ 8] 9759 	ld	a, (hl)
    00002D98 12               [ 8] 9760 	ld	(de), a
    00002D99                       9761 00124$:
                                   9762 ;kaijugaiden.c:1575: if (gs.minions[i].x < 0)         { gs.minions[i].x = 0;            gs.minions[i].vx = +1; }
    00002D99 F8 06            [12] 9763 	ldhl	sp,#6
    00002D9B 2A               [ 8] 9764 	ld	a, (hl+)
    00002D9C 5F               [ 4] 9765 	ld	e, a
    00002D9D 56               [ 8] 9766 	ld	d, (hl)
    00002D9E 13               [ 8] 9767 	inc	de
    00002D9F 1A               [ 8] 9768 	ld	a, (de)
    00002DA0 CB 7F            [ 8] 9769 	bit	7,a
    00002DA2 28 0D            [12] 9770 	jr	Z, 00126$
    00002DA4 3A               [ 8] 9771 	ld	a, (hl-)
    00002DA5 6E               [ 8] 9772 	ld	l, (hl)
    00002DA6 67               [ 4] 9773 	ld	h, a
    00002DA7 AF               [ 4] 9774 	xor	a, a
    00002DA8 22               [ 8] 9775 	ld	(hl+), a
    00002DA9 77               [ 8] 9776 	ld	(hl), a
    00002DAA F8 08            [12] 9777 	ldhl	sp,	#8
    00002DAC 2A               [ 8] 9778 	ld	a, (hl+)
    00002DAD 66               [ 8] 9779 	ld	h, (hl)
    00002DAE 6F               [ 4] 9780 	ld	l, a
    00002DAF 36 01            [12] 9781 	ld	(hl), #0x01
    00002DB1                       9782 00126$:
                                   9783 ;kaijugaiden.c:1576: if (gs.minions[i].x > SCR_W - 16){ gs.minions[i].x = SCR_W - 16;   gs.minions[i].vx = -1; }
    00002DB1 F8 06            [12] 9784 	ldhl	sp,#6
    00002DB3 2A               [ 8] 9785 	ld	a, (hl+)
    00002DB4 5F               [ 4] 9786 	ld	e, a
    00002DB5 56               [ 8] 9787 	ld	d, (hl)
    00002DB6 1A               [ 8] 9788 	ld	a, (de)
    00002DB7 4F               [ 4] 9789 	ld	c, a
    00002DB8 13               [ 8] 9790 	inc	de
    00002DB9 1A               [ 8] 9791 	ld	a, (de)
    00002DBA 47               [ 4] 9792 	ld	b, a
    00002DBB 58               [ 4] 9793 	ld	e, b
    00002DBC 16 00            [ 8] 9794 	ld	d, #0x00
    00002DBE 3E 90            [ 8] 9795 	ld	a, #0x90
    00002DC0 B9               [ 4] 9796 	cp	a, c
    00002DC1 3E 00            [ 8] 9797 	ld	a, #0x00
    00002DC3 98               [ 4] 9798 	sbc	a, b
    00002DC4 CB 7B            [ 8] 9799 	bit	7, e
    00002DC6 28 07            [12] 9800 	jr	Z, 00250$
    00002DC8 CB 7A            [ 8] 9801 	bit	7, d
    00002DCA 20 08            [12] 9802 	jr	NZ, 00251$
    00002DCC BF               [ 4] 9803 	cp	a, a
    00002DCD 18 05            [12] 9804 	jr	00251$
    00002DCF                       9805 00250$:
    00002DCF CB 7A            [ 8] 9806 	bit	7, d
    00002DD1 28 01            [12] 9807 	jr	Z, 00251$
    00002DD3 37               [ 4] 9808 	scf
    00002DD4                       9809 00251$:
    00002DD4 30 11            [12] 9810 	jr	NC, 00128$
    00002DD6 F8 06            [12] 9811 	ldhl	sp,	#6
    00002DD8 2A               [ 8] 9812 	ld	a, (hl+)
    00002DD9 66               [ 8] 9813 	ld	h, (hl)
    00002DDA 6F               [ 4] 9814 	ld	l, a
    00002DDB 3E 90            [ 8] 9815 	ld	a, #0x90
    00002DDD 22               [ 8] 9816 	ld	(hl+), a
    00002DDE 36 00            [12] 9817 	ld	(hl), #0x00
    00002DE0 F8 08            [12] 9818 	ldhl	sp,	#8
    00002DE2 2A               [ 8] 9819 	ld	a, (hl+)
    00002DE3 66               [ 8] 9820 	ld	h, (hl)
    00002DE4 6F               [ 4] 9821 	ld	l, a
    00002DE5 36 FF            [12] 9822 	ld	(hl), #0xff
    00002DE7                       9823 00128$:
                                   9824 ;kaijugaiden.c:1577: if (gs.minions[i].hp == 0) {
    00002DE7 D1               [12] 9825 	pop	de
    00002DE8 D5               [16] 9826 	push	de
    00002DE9 21 04 00         [12] 9827 	ld	hl, #0x0004
    00002DEC 19               [ 8] 9828 	add	hl, de
    00002DED 4D               [ 4] 9829 	ld	c, l
    00002DEE 44               [ 4] 9830 	ld	b, h
    00002DEF 0A               [ 8] 9831 	ld	a, (bc)
    00002DF0 B7               [ 4] 9832 	or	a, a
    00002DF1 20 07            [12] 9833 	jr	NZ, 00131$
                                   9834 ;kaijugaiden.c:1578: gs.minions[i].active = 0;
    00002DF3 F8 02            [12] 9835 	ldhl	sp,	#2
    00002DF5 2A               [ 8] 9836 	ld	a, (hl+)
    00002DF6 66               [ 8] 9837 	ld	h, (hl)
    00002DF7 6F               [ 4] 9838 	ld	l, a
    00002DF8 36 00            [12] 9839 	ld	(hl), #0x00
    00002DFA                       9840 00131$:
                                   9841 ;kaijugaiden.c:1542: for (u8 i = 0; i < MINION_MAX; ++i) {
    00002DFA F8 0F            [12] 9842 	ldhl	sp,	#15
    00002DFC 34               [12] 9843 	inc	(hl)
    00002DFD C3rFBr2B         [16] 9844 	jp	00134$
    00002E00                       9845 00135$:
                                   9846 ;kaijugaiden.c:1581: }
    00002E00 E8 10            [16] 9847 	add	sp, #16
    00002E02 C9               [16] 9848 	ret
                                   9849 ;kaijugaiden.c:1584: static void player_attack_minions(u8 radius) {
                                   9850 ;	---------------------------------
                                   9851 ; Function player_attack_minions
                                   9852 ; ---------------------------------
    00002E03                       9853 _player_attack_minions:
    00002E03 E8 F2            [16] 9854 	add	sp, #-14
    00002E05 F8 0C            [12] 9855 	ldhl	sp,	#12
    00002E07 77               [ 8] 9856 	ld	(hl), a
                                   9857 ;kaijugaiden.c:1585: s16 px = (s16)(gs.player_x * TILE_W + 8);
    00002E08 21r01r00         [12] 9858 	ld	hl, #_gs + 1
    00002E0B 6E               [ 8] 9859 	ld	l, (hl)
    00002E0C 26 00            [ 8] 9860 	ld	h, #0x00
    00002E0E 29               [ 8] 9861 	add	hl, hl
    00002E0F 29               [ 8] 9862 	add	hl, hl
    00002E10 29               [ 8] 9863 	add	hl, hl
    00002E11 01 08 00         [12] 9864 	ld	bc, #0x8
    00002E14 09               [ 8] 9865 	add	hl,bc
    00002E15 4D               [ 4] 9866 	ld	c, l
    00002E16 44               [ 4] 9867 	ld	b, h
    00002E17 33               [ 8] 9868 	inc	sp
    00002E18 33               [ 8] 9869 	inc	sp
    00002E19 C5               [16] 9870 	push	bc
                                   9871 ;kaijugaiden.c:1586: for (u8 i = 0; i < MINION_MAX; ++i) {
    00002E1A F8 0D            [12] 9872 	ldhl	sp,	#13
    00002E1C 36 00            [12] 9873 	ld	(hl), #0x00
    00002E1E                       9874 00117$:
    00002E1E F8 0D            [12] 9875 	ldhl	sp,	#13
    00002E20 7E               [ 8] 9876 	ld	a, (hl)
    00002E21 D6 05            [ 8] 9877 	sub	a, #0x05
    00002E23 D2r96r2F         [16] 9878 	jp	NC, 00118$
                                   9879 ;kaijugaiden.c:1587: if (!gs.minions[i].active) continue;
    00002E26 3A               [ 8] 9880 	ld	a, (hl-)
    00002E27 2B               [ 8] 9881 	dec	hl
    00002E28 4F               [ 4] 9882 	ld	c, a
    00002E29 87               [ 4] 9883 	add	a, a
    00002E2A 87               [ 4] 9884 	add	a, a
    00002E2B 87               [ 4] 9885 	add	a, a
    00002E2C 81               [ 4] 9886 	add	a, c
    00002E2D 77               [ 8] 9887 	ld	(hl), a
    00002E2E 5E               [ 8] 9888 	ld	e, (hl)
    00002E2F 16 00            [ 8] 9889 	ld	d, #0x00
    00002E31 21r1Fr00         [12] 9890 	ld	hl, #(_gs + 31)
    00002E34 19               [ 8] 9891 	add	hl, de
    00002E35 E5               [16] 9892 	push	hl
    00002E36 7D               [ 4] 9893 	ld	a, l
    00002E37 F8 04            [12] 9894 	ldhl	sp,	#4
    00002E39 77               [ 8] 9895 	ld	(hl), a
    00002E3A E1               [12] 9896 	pop	hl
    00002E3B 7C               [ 4] 9897 	ld	a, h
    00002E3C F8 03            [12] 9898 	ldhl	sp,	#3
    00002E3E 32               [ 8] 9899 	ld	(hl-), a
    00002E3F 2A               [ 8] 9900 	ld	a, (hl+)
    00002E40 23               [ 8] 9901 	inc	hl
    00002E41 32               [ 8] 9902 	ld	(hl-), a
    00002E42 2A               [ 8] 9903 	ld	a, (hl+)
    00002E43 23               [ 8] 9904 	inc	hl
    00002E44 32               [ 8] 9905 	ld	(hl-), a
    00002E45 2A               [ 8] 9906 	ld	a, (hl+)
    00002E46 5F               [ 4] 9907 	ld	e, a
    00002E47 56               [ 8] 9908 	ld	d, (hl)
    00002E48 1A               [ 8] 9909 	ld	a, (de)
    00002E49 B7               [ 4] 9910 	or	a, a
    00002E4A CAr90r2F         [16] 9911 	jp	Z, 00114$
                                   9912 ;kaijugaiden.c:1588: s16 target_x = gs.minions[i].x + 8;
    00002E4D 2B               [ 8] 9913 	dec	hl
    00002E4E 2B               [ 8] 9914 	dec	hl
    00002E4F 2B               [ 8] 9915 	dec	hl
    00002E50 2A               [ 8] 9916 	ld	a, (hl+)
    00002E51 5F               [ 4] 9917 	ld	e, a
    00002E52 56               [ 8] 9918 	ld	d, (hl)
    00002E53 6B               [ 4] 9919 	ld	l, e
    00002E54 62               [ 4] 9920 	ld	h, d
    00002E55 23               [ 8] 9921 	inc	hl
    00002E56 E5               [16] 9922 	push	hl
    00002E57 7D               [ 4] 9923 	ld	a, l
    00002E58 F8 08            [12] 9924 	ldhl	sp,	#8
    00002E5A 77               [ 8] 9925 	ld	(hl), a
    00002E5B E1               [12] 9926 	pop	hl
    00002E5C 7C               [ 4] 9927 	ld	a, h
    00002E5D F8 07            [12] 9928 	ldhl	sp,	#7
    00002E5F 32               [ 8] 9929 	ld	(hl-), a
    00002E60 2A               [ 8] 9930 	ld	a, (hl+)
    00002E61 5F               [ 4] 9931 	ld	e, a
    00002E62 56               [ 8] 9932 	ld	d, (hl)
    00002E63 1A               [ 8] 9933 	ld	a, (de)
    00002E64 F8 0A            [12] 9934 	ldhl	sp,	#10
    00002E66 22               [ 8] 9935 	ld	(hl+), a
    00002E67 13               [ 8] 9936 	inc	de
    00002E68 1A               [ 8] 9937 	ld	a, (de)
    00002E69 32               [ 8] 9938 	ld	(hl-), a
    00002E6A 2A               [ 8] 9939 	ld	a, (hl+)
    00002E6B 4F               [ 4] 9940 	ld	c, a
    00002E6C 46               [ 8] 9941 	ld	b, (hl)
    00002E6D 21 08 00         [12] 9942 	ld	hl, #0x0008
    00002E70 09               [ 8] 9943 	add	hl, bc
    00002E71 4D               [ 4] 9944 	ld	c, l
    00002E72 44               [ 4] 9945 	ld	b, h
                                   9946 ;kaijugaiden.c:1589: if (attack_hits_target(px, gs.player_facing, target_x, radius, PLAYER_ATTACK_REAR)) {
    00002E73 FAr03r00         [16] 9947 	ld	a, (#(_gs + 3) + 0)
    00002E76 26 08            [ 8] 9948 	ld	h, #0x08
    00002E78 E5               [16] 9949 	push	hl
    00002E79 33               [ 8] 9950 	inc	sp
    00002E7A F8 0D            [12] 9951 	ldhl	sp,	#13
    00002E7C 66               [ 8] 9952 	ld	h, (hl)
    00002E7D E5               [16] 9953 	push	hl
    00002E7E 33               [ 8] 9954 	inc	sp
    00002E7F C5               [16] 9955 	push	bc
    00002E80 F8 04            [12] 9956 	ldhl	sp,	#4
    00002E82 5E               [ 8] 9957 	ld	e, (hl)
    00002E83 23               [ 8] 9958 	inc	hl
    00002E84 56               [ 8] 9959 	ld	d, (hl)
    00002E85 CDr46r11         [24] 9960 	call	_attack_hits_target
    00002E88 B7               [ 4] 9961 	or	a, a
    00002E89 CAr90r2F         [16] 9962 	jp	Z, 00114$
                                   9963 ;kaijugaiden.c:1590: gs.minions[i].attack_windup = 0;
    00002E8C F8 02            [12] 9964 	ldhl	sp,#2
    00002E8E 2A               [ 8] 9965 	ld	a, (hl+)
    00002E8F 5F               [ 4] 9966 	ld	e, a
    00002E90 56               [ 8] 9967 	ld	d, (hl)
    00002E91 21 06 00         [12] 9968 	ld	hl, #0x0006
    00002E94 19               [ 8] 9969 	add	hl, de
    00002E95 4D               [ 4] 9970 	ld	c, l
    00002E96 44               [ 4] 9971 	ld	b, h
    00002E97 AF               [ 4] 9972 	xor	a, a
    00002E98 02               [ 8] 9973 	ld	(bc), a
                                   9974 ;kaijugaiden.c:1591: gs.minions[i].attack_recover = MINION_RECOVER_FRAMES;
    00002E99 F8 02            [12] 9975 	ldhl	sp,#2
    00002E9B 2A               [ 8] 9976 	ld	a, (hl+)
    00002E9C 5F               [ 4] 9977 	ld	e, a
    00002E9D 56               [ 8] 9978 	ld	d, (hl)
    00002E9E 21 07 00         [12] 9979 	ld	hl, #0x0007
    00002EA1 19               [ 8] 9980 	add	hl, de
    00002EA2 36 14            [12] 9981 	ld	(hl), #0x14
                                   9982 ;kaijugaiden.c:1592: if (gs.minions[i].hp <= gs.attack_dmg) {
    00002EA4 F8 02            [12] 9983 	ldhl	sp,#2
    00002EA6 2A               [ 8] 9984 	ld	a, (hl+)
    00002EA7 5F               [ 4] 9985 	ld	e, a
    00002EA8 56               [ 8] 9986 	ld	d, (hl)
    00002EA9 21 04 00         [12] 9987 	ld	hl, #0x0004
    00002EAC 19               [ 8] 9988 	add	hl, de
    00002EAD E5               [16] 9989 	push	hl
    00002EAE 7D               [ 4] 9990 	ld	a, l
    00002EAF F8 0A            [12] 9991 	ldhl	sp,	#10
    00002EB1 77               [ 8] 9992 	ld	(hl), a
    00002EB2 E1               [12] 9993 	pop	hl
    00002EB3 7C               [ 4] 9994 	ld	a, h
    00002EB4 F8 09            [12] 9995 	ldhl	sp,	#9
    00002EB6 32               [ 8] 9996 	ld	(hl-), a
    00002EB7 2A               [ 8] 9997 	ld	a, (hl+)
    00002EB8 5F               [ 4] 9998 	ld	e, a
    00002EB9 2A               [ 8] 9999 	ld	a, (hl+)
    00002EBA 57               [ 4]10000 	ld	d, a
    00002EBB 1A               [ 8]10001 	ld	a, (de)
    00002EBC 77               [ 8]10002 	ld	(hl), a
    00002EBD FAr0Dr00         [16]10003 	ld	a, (#(_gs + 13) + 0)
    00002EC0 F8 0B            [12]10004 	ldhl	sp,	#11
    00002EC2 77               [ 8]10005 	ld	(hl), a
                                  10006 ;kaijugaiden.c:1598: gs.fx_nano_y = gs.minions[i].y;
    00002EC3 F8 02            [12]10007 	ldhl	sp,	#2
    00002EC5 2A               [ 8]10008 	ld	a, (hl+)
    00002EC6 4F               [ 4]10009 	ld	c, a
    00002EC7 46               [ 8]10010 	ld	b, (hl)
    00002EC8 03               [ 8]10011 	inc	bc
    00002EC9 03               [ 8]10012 	inc	bc
    00002ECA 03               [ 8]10013 	inc	bc
                                  10014 ;kaijugaiden.c:1592: if (gs.minions[i].hp <= gs.attack_dmg) {
    00002ECB F8 0B            [12]10015 	ldhl	sp,	#11
    00002ECD 3A               [ 8]10016 	ld	a, (hl-)
    00002ECE 96               [ 8]10017 	sub	a, (hl)
    00002ECF 38 23            [12]10018 	jr	C, 00110$
                                  10019 ;kaijugaiden.c:1593: gs.minions[i].active = 0;
    00002ED1 F8 04            [12]10020 	ldhl	sp,	#4
    00002ED3 2A               [ 8]10021 	ld	a, (hl+)
    00002ED4 66               [ 8]10022 	ld	h, (hl)
    00002ED5 6F               [ 4]10023 	ld	l, a
    00002ED6 36 00            [12]10024 	ld	(hl), #0x00
                                  10025 ;kaijugaiden.c:1595: if (gs.nanocell_count < NANOCELL_MAX) {
    00002ED8 21r0Er00         [12]10026 	ld	hl, #_gs + 14
    00002EDB 7E               [ 8]10027 	ld	a, (hl)
    00002EDC FE 09            [ 8]10028 	cp	a, #0x09
    00002EDE D2r7Br2F         [16]10029 	jp	NC, 00111$
                                  10030 ;kaijugaiden.c:1596: gs.nanocell_count++;
    00002EE1 3C               [ 4]10031 	inc	a
    00002EE2 77               [ 8]10032 	ld	(hl), a
                                  10033 ;kaijugaiden.c:1597: gs.fx_nano_x = (u8)(gs.minions[i].x);
    00002EE3 F8 06            [12]10034 	ldhl	sp,#6
    00002EE5 2A               [ 8]10035 	ld	a, (hl+)
    00002EE6 5F               [ 4]10036 	ld	e, a
    00002EE7 56               [ 8]10037 	ld	d, (hl)
    00002EE8 1A               [ 8]10038 	ld	a, (de)
    00002EE9 21r73r00         [12]10039 	ld	hl, #(_gs + 115)
                                  10040 ;kaijugaiden.c:1598: gs.fx_nano_y = gs.minions[i].y;
    00002EEC 22               [ 8]10041 	ld	(hl+), a
    00002EED 0A               [ 8]10042 	ld	a, (bc)
                                  10043 ;kaijugaiden.c:1599: gs.fx_nano_timer = 12;
    00002EEE 22               [ 8]10044 	ld	(hl+), a
    00002EEF 36 0C            [12]10045 	ld	(hl), #0x0c
    00002EF1 C3r7Br2F         [16]10046 	jp	00111$
    00002EF4                      10047 00110$:
                                  10048 ;kaijugaiden.c:1602: gs.minions[i].hp -= gs.attack_dmg;
    00002EF4 F8 0A            [12]10049 	ldhl	sp,	#10
    00002EF6 2A               [ 8]10050 	ld	a, (hl+)
    00002EF7 96               [ 8]10051 	sub	a, (hl)
    00002EF8 F8 08            [12]10052 	ldhl	sp,	#8
    00002EFA 5E               [ 8]10053 	ld	e, (hl)
    00002EFB 23               [ 8]10054 	inc	hl
    00002EFC 66               [ 8]10055 	ld	h, (hl)
    00002EFD 6B               [ 4]10056 	ld	l, e
    00002EFE 77               [ 8]10057 	ld	(hl), a
                                  10058 ;kaijugaiden.c:1603: gs.minions[i].x += gs.player_facing ? -6 : 6;
    00002EFF F8 06            [12]10059 	ldhl	sp,	#6
    00002F01 2A               [ 8]10060 	ld	a, (hl+)
    00002F02 23               [ 8]10061 	inc	hl
    00002F03 32               [ 8]10062 	ld	(hl-), a
    00002F04 2A               [ 8]10063 	ld	a, (hl+)
    00002F05 23               [ 8]10064 	inc	hl
    00002F06 32               [ 8]10065 	ld	(hl-), a
    00002F07 2B               [ 8]10066 	dec	hl
    00002F08 2B               [ 8]10067 	dec	hl
    00002F09 2A               [ 8]10068 	ld	a, (hl+)
    00002F0A 5F               [ 4]10069 	ld	e, a
    00002F0B 56               [ 8]10070 	ld	d, (hl)
    00002F0C 1A               [ 8]10071 	ld	a, (de)
    00002F0D F8 0A            [12]10072 	ldhl	sp,	#10
    00002F0F 22               [ 8]10073 	ld	(hl+), a
    00002F10 13               [ 8]10074 	inc	de
    00002F11 1A               [ 8]10075 	ld	a, (de)
    00002F12 77               [ 8]10076 	ld	(hl), a
    00002F13 FAr03r00         [16]10077 	ld	a, (#(_gs + 3) + 0)
    00002F16 B7               [ 4]10078 	or	a, a
    00002F17 28 05            [12]10079 	jr	Z, 00120$
    00002F19 11 FA FF         [12]10080 	ld	de, #0xfffa
    00002F1C 18 03            [12]10081 	jr	00121$
    00002F1E                      10082 00120$:
    00002F1E 11 06 00         [12]10083 	ld	de, #0x0006
    00002F21                      10084 00121$:
    00002F21 F8 0A            [12]10085 	ldhl	sp,	#10
    00002F23 2A               [ 8]10086 	ld	a,	(hl+)
    00002F24 66               [ 8]10087 	ld	h, (hl)
    00002F25 6F               [ 4]10088 	ld	l, a
    00002F26 19               [ 8]10089 	add	hl, de
    00002F27 5D               [ 4]10090 	ld	e, l
    00002F28 7C               [ 4]10091 	ld	a, h
    00002F29 F8 0A            [12]10092 	ldhl	sp,	#10
    00002F2B 73               [ 8]10093 	ld	(hl), e
    00002F2C 23               [ 8]10094 	inc	hl
    00002F2D 77               [ 8]10095 	ld	(hl), a
    00002F2E F8 08            [12]10096 	ldhl	sp,	#8
    00002F30 2A               [ 8]10097 	ld	a, (hl+)
    00002F31 5F               [ 4]10098 	ld	e, a
    00002F32 2A               [ 8]10099 	ld	a, (hl+)
    00002F33 57               [ 4]10100 	ld	d, a
    00002F34 2A               [ 8]10101 	ld	a, (hl+)
    00002F35 12               [ 8]10102 	ld	(de), a
    00002F36 13               [ 8]10103 	inc	de
    00002F37 7E               [ 8]10104 	ld	a, (hl)
    00002F38 12               [ 8]10105 	ld	(de), a
                                  10106 ;kaijugaiden.c:1604: if (gs.minions[i].x < 0) gs.minions[i].x = 0;
    00002F39 F8 06            [12]10107 	ldhl	sp,#6
    00002F3B 2A               [ 8]10108 	ld	a, (hl+)
    00002F3C 5F               [ 4]10109 	ld	e, a
    00002F3D 56               [ 8]10110 	ld	d, (hl)
    00002F3E 13               [ 8]10111 	inc	de
    00002F3F 1A               [ 8]10112 	ld	a, (de)
    00002F40 CB 7F            [ 8]10113 	bit	7,a
    00002F42 28 08            [12]10114 	jr	Z, 00106$
    00002F44 F8 06            [12]10115 	ldhl	sp,	#6
    00002F46 2A               [ 8]10116 	ld	a, (hl+)
    00002F47 66               [ 8]10117 	ld	h, (hl)
    00002F48 6F               [ 4]10118 	ld	l, a
    00002F49 AF               [ 4]10119 	xor	a, a
    00002F4A 22               [ 8]10120 	ld	(hl+), a
    00002F4B 77               [ 8]10121 	ld	(hl), a
    00002F4C                      10122 00106$:
                                  10123 ;kaijugaiden.c:1605: if (gs.minions[i].x > SCR_W - 16) gs.minions[i].x = SCR_W - 16;
    00002F4C F8 06            [12]10124 	ldhl	sp,#6
    00002F4E 2A               [ 8]10125 	ld	a, (hl+)
    00002F4F 5F               [ 4]10126 	ld	e, a
    00002F50 56               [ 8]10127 	ld	d, (hl)
    00002F51 1A               [ 8]10128 	ld	a, (de)
    00002F52 6F               [ 4]10129 	ld	l, a
    00002F53 13               [ 8]10130 	inc	de
    00002F54 1A               [ 8]10131 	ld	a, (de)
    00002F55 67               [ 4]10132 	ld	h, a
    00002F56 5C               [ 4]10133 	ld	e, h
    00002F57 16 00            [ 8]10134 	ld	d, #0x00
    00002F59 3E 90            [ 8]10135 	ld	a, #0x90
    00002F5B BD               [ 4]10136 	cp	a, l
    00002F5C 3E 00            [ 8]10137 	ld	a, #0x00
    00002F5E 9C               [ 4]10138 	sbc	a, h
    00002F5F CB 7B            [ 8]10139 	bit	7, e
    00002F61 28 07            [12]10140 	jr	Z, 00186$
    00002F63 CB 7A            [ 8]10141 	bit	7, d
    00002F65 20 08            [12]10142 	jr	NZ, 00187$
    00002F67 BF               [ 4]10143 	cp	a, a
    00002F68 18 05            [12]10144 	jr	00187$
    00002F6A                      10145 00186$:
    00002F6A CB 7A            [ 8]10146 	bit	7, d
    00002F6C 28 01            [12]10147 	jr	Z, 00187$
    00002F6E 37               [ 4]10148 	scf
    00002F6F                      10149 00187$:
    00002F6F 30 0A            [12]10150 	jr	NC, 00111$
    00002F71 F8 06            [12]10151 	ldhl	sp,	#6
    00002F73 2A               [ 8]10152 	ld	a, (hl+)
    00002F74 66               [ 8]10153 	ld	h, (hl)
    00002F75 6F               [ 4]10154 	ld	l, a
    00002F76 3E 90            [ 8]10155 	ld	a, #0x90
    00002F78 22               [ 8]10156 	ld	(hl+), a
    00002F79 36 00            [12]10157 	ld	(hl), #0x00
    00002F7B                      10158 00111$:
                                  10159 ;kaijugaiden.c:1607: gs.fx_hit_x = (u8)gs.minions[i].x;
    00002F7B F8 06            [12]10160 	ldhl	sp,#6
    00002F7D 2A               [ 8]10161 	ld	a, (hl+)
    00002F7E 5F               [ 4]10162 	ld	e, a
    00002F7F 56               [ 8]10163 	ld	d, (hl)
    00002F80 1A               [ 8]10164 	ld	a, (de)
    00002F81 21r70r00         [12]10165 	ld	hl, #(_gs + 112)
                                  10166 ;kaijugaiden.c:1608: gs.fx_hit_y = gs.minions[i].y;
    00002F84 22               [ 8]10167 	ld	(hl+), a
    00002F85 0A               [ 8]10168 	ld	a, (bc)
                                  10169 ;kaijugaiden.c:1609: gs.fx_hit_timer = 8;
    00002F86 22               [ 8]10170 	ld	(hl+), a
    00002F87 36 08            [12]10171 	ld	(hl), #0x08
                                  10172 ;kaijugaiden.c:1610: camera_punch(1, 4);
    00002F89 1E 04            [ 8]10173 	ld	e, #0x04
    00002F8B 3E 01            [ 8]10174 	ld	a, #0x01
    00002F8D CDrB0r12         [24]10175 	call	_camera_punch
    00002F90                      10176 00114$:
                                  10177 ;kaijugaiden.c:1586: for (u8 i = 0; i < MINION_MAX; ++i) {
    00002F90 F8 0D            [12]10178 	ldhl	sp,	#13
    00002F92 34               [12]10179 	inc	(hl)
    00002F93 C3r1Er2E         [16]10180 	jp	00117$
    00002F96                      10181 00118$:
                                  10182 ;kaijugaiden.c:1613: }
    00002F96 E8 0E            [16]10183 	add	sp, #14
    00002F98 C9               [16]10184 	ret
                                  10185 ;kaijugaiden.c:1642: static void boss_init(void) {
                                  10186 ;	---------------------------------
                                  10187 ; Function boss_init
                                  10188 ; ---------------------------------
    00002F99                      10189 _boss_init:
                                  10190 ;kaijugaiden.c:1643: gs.boss_awake     = 0;
    00002F99 21r14r00         [12]10191 	ld	hl, #_gs + 20
    00002F9C 36 00            [12]10192 	ld	(hl), #0x00
                                  10193 ;kaijugaiden.c:1644: gs.boss_phase     = 1;
    00002F9E 21r15r00         [12]10194 	ld	hl, #_gs + 21
    00002FA1 36 01            [12]10195 	ld	(hl), #0x01
                                  10196 ;kaijugaiden.c:1645: gs.boss_hp        = BOSS_HP_P1;
    00002FA3 21r16r00         [12]10197 	ld	hl, #_gs + 22
    00002FA6 36 0C            [12]10198 	ld	(hl), #0x0c
                                  10199 ;kaijugaiden.c:1646: gs.boss_x         = SCR_W - 40;
    00002FA8 21r17r00         [12]10200 	ld	hl, #(_gs + 23)
    00002FAB 36 78            [12]10201 	ld	(hl), #0x78
    00002FAD 23               [ 8]10202 	inc	hl
    00002FAE 36 00            [12]10203 	ld	(hl), #0x00
                                  10204 ;kaijugaiden.c:1647: gs.boss_atk_timer = BOSS_ATK_INTERVAL_P1;
    00002FB0 23               [ 8]10205 	inc	hl
    00002FB1 23               [ 8]10206 	inc	hl
    00002FB2 36 5A            [12]10207 	ld	(hl), #0x5a
                                  10208 ;kaijugaiden.c:1648: gs.boss_atk_type  = BOSS_ATK_SWEEP;
    00002FB4 21r1Br00         [12]10209 	ld	hl, #_gs + 27
    00002FB7 36 00            [12]10210 	ld	(hl), #0x00
                                  10211 ;kaijugaiden.c:1649: gs.boss_windup    = 0;
    00002FB9 21r1Cr00         [12]10212 	ld	hl, #_gs + 28
    00002FBC 36 00            [12]10213 	ld	(hl), #0x00
                                  10214 ;kaijugaiden.c:1650: gs.boss_recover   = 0;
    00002FBE 21r1Dr00         [12]10215 	ld	hl, #_gs + 29
    00002FC1 36 00            [12]10216 	ld	(hl), #0x00
                                  10217 ;kaijugaiden.c:1651: gs.boss_stun      = 0;
    00002FC3 21r1Er00         [12]10218 	ld	hl, #_gs + 30
    00002FC6 36 00            [12]10219 	ld	(hl), #0x00
                                  10220 ;kaijugaiden.c:1652: }
    00002FC8 C9               [16]10221 	ret
                                  10222 ;kaijugaiden.c:1655: static int boss_take_damage(u8 dmg) {
                                  10223 ;	---------------------------------
                                  10224 ; Function boss_take_damage
                                  10225 ; ---------------------------------
    00002FC9                      10226 _boss_take_damage:
    00002FC9 3B               [ 8]10227 	dec	sp
    00002FCA 3B               [ 8]10228 	dec	sp
    00002FCB F8 01            [12]10229 	ldhl	sp,	#1
    00002FCD 77               [ 8]10230 	ld	(hl), a
                                  10231 ;kaijugaiden.c:1656: if (!gs.boss_awake) return 0;
    00002FCE FAr14r00         [16]10232 	ld	a, (#(_gs + 20) + 0)
    00002FD1 B7               [ 4]10233 	or	a, a
    00002FD2 20 06            [12]10234 	jr	NZ, 00102$
    00002FD4 01 00 00         [12]10235 	ld	bc, #0x0000
    00002FD7 C3r77r30         [16]10236 	jp	00116$
    00002FDA                      10237 00102$:
                                  10238 ;kaijugaiden.c:1657: if (gs.boss_stun == 0 && gs.boss_hp > 0) {
    00002FDA 01r1Er00         [12]10239 	ld	bc, #_gs + 30
    00002FDD 0A               [ 8]10240 	ld	a, (bc)
    00002FDE B7               [ 4]10241 	or	a, a
    00002FDF C2r74r30         [16]10242 	jp	NZ, 00112$
    00002FE2 FAr16r00         [16]10243 	ld	a, (#(_gs + 22) + 0)
    00002FE5 F8 00            [12]10244 	ldhl	sp,#0
    00002FE7 77               [ 8]10245 	ld	(hl), a
    00002FE8 B7               [ 4]10246 	or	a, a
    00002FE9 CAr74r30         [16]10247 	jp	Z, 00112$
                                  10248 ;kaijugaiden.c:1664: gs.boss_windup = 0;
                                  10249 ;kaijugaiden.c:1665: gs.boss_recover = 30;
                                  10250 ;kaijugaiden.c:1658: if (gs.boss_hp <= dmg) {
    00002FEC 23               [ 8]10251 	inc	hl
    00002FED 3A               [ 8]10252 	ld	a, (hl-)
    00002FEE 96               [ 8]10253 	sub	a, (hl)
    00002FEF 38 59            [12]10254 	jr	C, 00109$
                                  10255 ;kaijugaiden.c:1659: gs.boss_hp = 0;
    00002FF1 21r16r00         [12]10256 	ld	hl, #(_gs + 22)
    00002FF4 36 00            [12]10257 	ld	(hl), #0x00
                                  10258 ;kaijugaiden.c:1661: if (gs.boss_phase < 3) {
    00002FF6 FAr15r00         [16]10259 	ld	a, (#(_gs + 21) + 0)
    00002FF9 FE 03            [ 8]10260 	cp	a, #0x03
    00002FFB 30 48            [12]10261 	jr	NC, 00104$
                                  10262 ;kaijugaiden.c:1662: gs.boss_phase++;
    00002FFD 2B               [ 8]10263 	dec	hl
    00002FFE 3C               [ 4]10264 	inc	a
    00002FFF 77               [ 8]10265 	ld	(hl), a
                                  10266 ;kaijugaiden.c:1663: gs.boss_hp = (gs.boss_phase == 2) ? BOSS_HP_P2 : BOSS_HP_P3;
    00003000 D6 02            [ 8]10267 	sub	a, #0x02
    00003002 3E 0A            [ 8]10268 	ld	a, #0x0a
    00003004 28 02            [12]10269 	jr	Z, 00119$
    00003006 3E 08            [ 8]10270 	ld	a, #0x08
    00003008                      10271 00119$:
    00003008 EAr16r00         [16]10272 	ld	(#(_gs + 22)),a
                                  10273 ;kaijugaiden.c:1664: gs.boss_windup = 0;
    0000300B 21r1Cr00         [12]10274 	ld	hl, #(_gs + 28)
                                  10275 ;kaijugaiden.c:1665: gs.boss_recover = 30;
    0000300E AF               [ 4]10276 	xor	a, a
    0000300F 22               [ 8]10277 	ld	(hl+), a
    00003010 36 1E            [12]10278 	ld	(hl), #0x1e
                                  10279 ;kaijugaiden.c:1666: gs.boss_stun = 60;      /* brief stun at phase change */
    00003012 3E 3C            [ 8]10280 	ld	a, #0x3c
    00003014 02               [ 8]10281 	ld	(bc), a
                                  10282 ;kaijugaiden.c:1667: combat_set_banner(BANNER_BOSS_STUN, 50);
    00003015 1E 32            [ 8]10283 	ld	e, #0x32
    00003017 3E 06            [ 8]10284 	ld	a, #0x06
    00003019 CDr2Ar12         [24]10285 	call	_combat_set_banner
                                  10286 ;kaijugaiden.c:1668: camera_punch(3, 10);
    0000301C 1E 0A            [ 8]10287 	ld	e, #0x0a
    0000301E 3E 03            [ 8]10288 	ld	a, #0x03
    00003020 CDrB0r12         [24]10289 	call	_camera_punch
                                  10290 ;kaijugaiden.c:1669: gs.boss_atk_timer = (gs.boss_phase == 2) ? BOSS_ATK_INTERVAL_P2
    00003023 01r1Ar00         [12]10291 	ld	bc, #_gs + 26
    00003026 FAr15r00         [16]10292 	ld	a, (#(_gs + 21) + 0)
    00003029 D6 02            [ 8]10293 	sub	a, #0x02
                                  10294 ;kaijugaiden.c:1670: : BOSS_ATK_INTERVAL_P3;
    0000302B 3E 46            [ 8]10295 	ld	a, #0x46
    0000302D 28 02            [12]10296 	jr	Z, 00121$
    0000302F 3E 37            [ 8]10297 	ld	a, #0x37
    00003031                      10298 00121$:
    00003031 02               [ 8]10299 	ld	(bc), a
                                  10300 ;kaijugaiden.c:1672: bg_fill(TILE_GROUND_R);
    00003032 3E 02            [ 8]10301 	ld	a, #0x02
    00003034 CDr76r0B         [24]10302 	call	_bg_fill
                                  10303 ;kaijugaiden.c:142: static inline void plat_vsync(void)  { wait_vbl_done(); }
    00003037 CDr00r00         [24]10304 	call	_wait_vbl_done
    0000303A CDr00r00         [24]10305 	call	_wait_vbl_done
                                  10306 ;kaijugaiden.c:1675: bg_draw_beach();
    0000303D CDrEBr0F         [24]10307 	call	_bg_draw_beach
                                  10308 ;kaijugaiden.c:1676: return 0;
    00003040 01 00 00         [12]10309 	ld	bc, #0x0000
    00003043 18 32            [12]10310 	jr	00116$
    00003045                      10311 00104$:
                                  10312 ;kaijugaiden.c:1678: return 1; /* boss fully defeated */
    00003045 01 01 00         [12]10313 	ld	bc, #0x0001
    00003048 18 2D            [12]10314 	jr	00116$
    0000304A                      10315 00109$:
                                  10316 ;kaijugaiden.c:1681: gs.boss_hp -= dmg;
    0000304A F8 00            [12]10317 	ldhl	sp,	#0
    0000304C 2A               [ 8]10318 	ld	a, (hl+)
    0000304D 96               [ 8]10319 	sub	a, (hl)
    0000304E EAr16r00         [16]10320 	ld	(#(_gs + 22)),a
                                  10321 ;kaijugaiden.c:1682: if (gs.boss_windup > 0) {
    00003051 FAr1Cr00         [16]10322 	ld	a, (#(_gs + 28) + 0)
    00003054 B7               [ 4]10323 	or	a, a
    00003055 28 07            [12]10324 	jr	Z, 00107$
                                  10325 ;kaijugaiden.c:1683: gs.boss_windup = 0;
    00003057 21r1Cr00         [12]10326 	ld	hl, #(_gs + 28)
                                  10327 ;kaijugaiden.c:1684: gs.boss_recover = 18;
    0000305A AF               [ 4]10328 	xor	a, a
    0000305B 22               [ 8]10329 	ld	(hl+), a
    0000305C 36 12            [12]10330 	ld	(hl), #0x12
    0000305E                      10331 00107$:
                                  10332 ;kaijugaiden.c:1686: gs.boss_stun = 20;
    0000305E 3E 14            [ 8]10333 	ld	a, #0x14
    00003060 02               [ 8]10334 	ld	(bc), a
                                  10335 ;kaijugaiden.c:1687: combat_set_banner(BANNER_BOSS_STUN, 20);
    00003061 1E 14            [ 8]10336 	ld	e, #0x14
    00003063 3E 06            [ 8]10337 	ld	a, #0x06
    00003065 CDr2Ar12         [24]10338 	call	_combat_set_banner
                                  10339 ;kaijugaiden.c:1688: camera_punch(2, 6);
    00003068 1E 06            [ 8]10340 	ld	e, #0x06
    0000306A 3E 02            [ 8]10341 	ld	a, #0x02
    0000306C CDrB0r12         [24]10342 	call	_camera_punch
                                  10343 ;kaijugaiden.c:1689: return 0;
    0000306F 01 00 00         [12]10344 	ld	bc, #0x0000
    00003072 18 03            [12]10345 	jr	00116$
    00003074                      10346 00112$:
                                  10347 ;kaijugaiden.c:1692: return 0;
    00003074 01 00 00         [12]10348 	ld	bc, #0x0000
    00003077                      10349 00116$:
                                  10350 ;kaijugaiden.c:1693: }
    00003077 33               [ 8]10351 	inc	sp
    00003078 33               [ 8]10352 	inc	sp
    00003079 C9               [16]10353 	ret
                                  10354 ;kaijugaiden.c:1696: static void boss_update(void) {
                                  10355 ;	---------------------------------
                                  10356 ; Function boss_update
                                  10357 ; ---------------------------------
    0000307A                      10358 _boss_update:
    0000307A E8 F6            [16]10359 	add	sp, #-10
                                  10360 ;kaijugaiden.c:1697: if (gs.boss_phase == 0 || !gs.boss_awake) return;
    0000307C FAr15r00         [16]10361 	ld	a, (#(_gs + 21) + 0)
    0000307F B7               [ 4]10362 	or	a, a
    00003080 CAr91r33         [16]10363 	jp	Z, 00155$
    00003083 FAr14r00         [16]10364 	ld	a, (#(_gs + 20) + 0)
    00003086 B7               [ 4]10365 	or	a, a
    00003087 CAr91r33         [16]10366 	jp	Z, 00155$
                                  10367 ;kaijugaiden.c:1700: if (gs.boss_stun > 0) { gs.boss_stun--; return; }
    0000308A 21r1Er00         [12]10368 	ld	hl, #_gs + 30
    0000308D 7E               [ 8]10369 	ld	a, (hl)
    0000308E B7               [ 4]10370 	or	a, a
    0000308F 28 05            [12]10371 	jr	Z, 00105$
    00003091 3D               [ 4]10372 	dec	a
    00003092 77               [ 8]10373 	ld	(hl), a
    00003093 C3r91r33         [16]10374 	jp	00155$
    00003096                      10375 00105$:
                                  10376 ;kaijugaiden.c:1702: if (gs.boss_recover > 0) {
    00003096 FAr1Dr00         [16]10377 	ld	a, (#(_gs + 29) + 0)
    00003099 B7               [ 4]10378 	or	a, a
    0000309A 28 07            [12]10379 	jr	Z, 00107$
                                  10380 ;kaijugaiden.c:1703: gs.boss_recover--;
    0000309C 3D               [ 4]10381 	dec	a
    0000309D EAr1Dr00         [16]10382 	ld	(#(_gs + 29)),a
                                  10383 ;kaijugaiden.c:1704: return;
    000030A0 C3r91r33         [16]10384 	jp	00155$
    000030A3                      10385 00107$:
                                  10386 ;kaijugaiden.c:1707: if (gs.boss_windup > 0) {
    000030A3 21r1Cr00         [12]10387 	ld	hl, #(_gs + 28)
    000030A6 4E               [ 8]10388 	ld	c, (hl)
                                  10389 ;kaijugaiden.c:1708: u8 resolved_type = gs.boss_atk_type;
                                  10390 ;kaijugaiden.c:1713: s16 px_now = (s16)(gs.player_x * TILE_W);
                                  10391 ;kaijugaiden.c:1714: s16 dist_now = gs.boss_x - px_now;
                                  10392 ;kaijugaiden.c:1764: gs.boss_atk_timer = (gs.boss_phase == 1) ? BOSS_ATK_INTERVAL_P1
                                  10393 ;kaijugaiden.c:1707: if (gs.boss_windup > 0) {
    000030A7 79               [ 4]10394 	ld	a, c
    000030A8 B7               [ 4]10395 	or	a, a
    000030A9 CArE8r32         [16]10396 	jp	Z, 00148$
                                  10397 ;kaijugaiden.c:1708: u8 resolved_type = gs.boss_atk_type;
    000030AC FAr1Br00         [16]10398 	ld	a, (#(_gs + 27) + 0)
    000030AF F8 00            [12]10399 	ldhl	sp,	#0
    000030B1 77               [ 8]10400 	ld	(hl), a
                                  10401 ;kaijugaiden.c:1709: gs.boss_windup--;
    000030B2 79               [ 4]10402 	ld	a, c
    000030B3 3D               [ 4]10403 	dec	a
    000030B4 EAr1Cr00         [16]10404 	ld	(#(_gs + 28)),a
                                  10405 ;kaijugaiden.c:1710: if (gs.boss_windup > 0) return;
    000030B7 B7               [ 4]10406 	or	a, a
    000030B8 C2r91r33         [16]10407 	jp	NZ, 00155$
                                  10408 ;kaijugaiden.c:1713: s16 px_now = (s16)(gs.player_x * TILE_W);
    000030BB FAr01r00         [16]10409 	ld	a, (#(_gs + 1) + 0)
    000030BE F8 01            [12]10410 	ldhl	sp,#1
    000030C0 77               [ 8]10411 	ld	(hl), a
    000030C1 2A               [ 8]10412 	ld	a, (hl+)
    000030C2 4F               [ 4]10413 	ld	c, a
    000030C3 06 00            [ 8]10414 	ld	b, #0x00
    000030C5 CB 21            [ 8]10415 	sla	c
    000030C7 CB 10            [ 8]10416 	rl	b
    000030C9 CB 21            [ 8]10417 	sla	c
    000030CB CB 10            [ 8]10418 	rl	b
    000030CD CB 21            [ 8]10419 	sla	c
    000030CF CB 10            [ 8]10420 	rl	b
    000030D1 79               [ 4]10421 	ld	a, c
    000030D2 22               [ 8]10422 	ld	(hl+), a
                                  10423 ;kaijugaiden.c:1714: s16 dist_now = gs.boss_x - px_now;
    000030D3 78               [ 4]10424 	ld	a, b
    000030D4 22               [ 8]10425 	ld	(hl+), a
    000030D5 11r17r00         [12]10426 	ld	de, #(_gs + 23)
    000030D8 1A               [ 8]10427 	ld	a, (de)
    000030D9 22               [ 8]10428 	ld	(hl+), a
    000030DA 13               [ 8]10429 	inc	de
    000030DB 1A               [ 8]10430 	ld	a, (de)
    000030DC 32               [ 8]10431 	ld	(hl-), a
    000030DD 2A               [ 8]10432 	ld	a, (hl+)
    000030DE 5F               [ 4]10433 	ld	e, a
    000030DF 56               [ 8]10434 	ld	d, (hl)
    000030E0 F8 02            [12]10435 	ldhl	sp,	#2
    000030E2 2A               [ 8]10436 	ld	a,	(hl+)
    000030E3 66               [ 8]10437 	ld	h, (hl)
    000030E4 6F               [ 4]10438 	ld	l, a
    000030E5 7B               [ 4]10439 	ld	a, e
    000030E6 95               [ 4]10440 	sub	a, l
    000030E7 5F               [ 4]10441 	ld	e, a
    000030E8 7A               [ 4]10442 	ld	a, d
    000030E9 9C               [ 4]10443 	sbc	a, h
    000030EA F8 09            [12]10444 	ldhl	sp,	#9
    000030EC 32               [ 8]10445 	ld	(hl-), a
    000030ED 73               [ 8]10446 	ld	(hl), e
                                  10447 ;kaijugaiden.c:1715: if (dist_now < 0) dist_now = -dist_now;
    000030EE 2A               [ 8]10448 	ld	a, (hl+)
    000030EF CB 7E            [12]10449 	bit	7, (hl)
    000030F1 28 0F            [12]10450 	jr	Z, 00111$
    000030F3 11 00 00         [12]10451 	ld	de, #0x0000
    000030F6 3A               [ 8]10452 	ld	a, (hl-)
    000030F7 6E               [ 8]10453 	ld	l, (hl)
    000030F8 67               [ 4]10454 	ld	h, a
    000030F9 7B               [ 4]10455 	ld	a, e
    000030FA 95               [ 4]10456 	sub	a, l
    000030FB 5F               [ 4]10457 	ld	e, a
    000030FC 7A               [ 4]10458 	ld	a, d
    000030FD 9C               [ 4]10459 	sbc	a, h
    000030FE F8 09            [12]10460 	ldhl	sp,	#9
    00003100 32               [ 8]10461 	ld	(hl-), a
    00003101 73               [ 8]10462 	ld	(hl), e
    00003102                      10463 00111$:
                                  10464 ;kaijugaiden.c:1717: switch (resolved_type) {
    00003102 3E 03            [ 8]10465 	ld	a, #0x03
    00003104 F8 00            [12]10466 	ldhl	sp,	#0
    00003106 96               [ 8]10467 	sub	a, (hl)
    00003107 DArBFr32         [16]10468 	jp	C, 00146$
                                  10469 ;kaijugaiden.c:1715: if (dist_now < 0) dist_now = -dist_now;
    0000310A F8 08            [12]10470 	ldhl	sp,	#8
    0000310C 3A               [ 8]10471 	ld	a, (hl-)
    0000310D 2B               [ 8]10472 	dec	hl
    0000310E 77               [ 8]10473 	ld	(hl), a
    0000310F F8 09            [12]10474 	ldhl	sp,	#9
    00003111 3A               [ 8]10475 	ld	a, (hl-)
    00003112 2B               [ 8]10476 	dec	hl
    00003113 77               [ 8]10477 	ld	(hl), a
                                  10478 ;kaijugaiden.c:1719: if (dist_now < BOSS_SWEEP_RANGE && gs.hit_stun == 0 && gs.dodge_timer == 0) {
                                  10479 ;kaijugaiden.c:1720: if (gs.player_hp > 0) gs.player_hp--;
                                  10480 ;kaijugaiden.c:1722: gs.fx_hit_x  = (u8)px_now;
    00003114 F8 02            [12]10481 	ldhl	sp,	#2
    00003116 7E               [ 8]10482 	ld	a, (hl)
    00003117 F8 08            [12]10483 	ldhl	sp,	#8
                                  10484 ;kaijugaiden.c:1723: gs.fx_hit_y  = (u8)(SCR_H - 32);
                                  10485 ;kaijugaiden.c:1724: gs.fx_hit_timer = 8;
                                  10486 ;kaijugaiden.c:1730: if (dist_now < BOSS_SPIT_RANGE && gs.hit_stun == 0 && gs.dodge_timer == 0) {
    00003119 32               [ 8]10487 	ld	(hl-), a
    0000311A 2B               [ 8]10488 	dec	hl
    0000311B 2A               [ 8]10489 	ld	a, (hl+)
    0000311C D6 58            [ 8]10490 	sub	a, #0x58
    0000311E 7E               [ 8]10491 	ld	a, (hl)
    0000311F DE 00            [ 8]10492 	sbc	a, #0x00
    00003121 56               [ 8]10493 	ld	d, (hl)
    00003122 3E 00            [ 8]10494 	ld	a, #0x00
    00003124 5F               [ 4]10495 	ld	e, a
    00003125 CB 7B            [ 8]10496 	bit	7, e
    00003127 28 07            [12]10497 	jr	Z, 00395$
    00003129 CB 7A            [ 8]10498 	bit	7, d
    0000312B 20 08            [12]10499 	jr	NZ, 00396$
    0000312D BF               [ 4]10500 	cp	a, a
    0000312E 18 05            [12]10501 	jr	00396$
    00003130                      10502 00395$:
    00003130 CB 7A            [ 8]10503 	bit	7, d
    00003132 28 01            [12]10504 	jr	Z, 00396$
    00003134 37               [ 4]10505 	scf
    00003135                      10506 00396$:
    00003135 3E 00            [ 8]10507 	ld	a, #0x00
    00003137 17               [ 4]10508 	rla
    00003138 F8 09            [12]10509 	ldhl	sp,	#9
    0000313A 77               [ 8]10510 	ld	(hl), a
                                  10511 ;kaijugaiden.c:1717: switch (resolved_type) {
    0000313B F8 00            [12]10512 	ldhl	sp,	#0
    0000313D 4E               [ 8]10513 	ld	c, (hl)
    0000313E 06 00            [ 8]10514 	ld	b, #0x00
    00003140 21r4Ar31         [12]10515 	ld	hl, #00397$
    00003143 09               [ 8]10516 	add	hl, bc
    00003144 09               [ 8]10517 	add	hl, bc
    00003145 4E               [ 8]10518 	ld	c, (hl)
    00003146 23               [ 8]10519 	inc	hl
    00003147 66               [ 8]10520 	ld	h, (hl)
    00003148 69               [ 4]10521 	ld	l, c
    00003149 E9               [ 4]10522 	jp	(hl)
    0000314A                      10523 00397$:
    0000314Ar52r31                10524 	.dw	00112$
    0000314CrA7r31                10525 	.dw	00119$
    0000314ErE4r31                10526 	.dw	00126$
    00003150r4Dr32                10527 	.dw	00131$
                                  10528 ;kaijugaiden.c:1718: case BOSS_ATK_SWEEP:
    00003152                      10529 00112$:
                                  10530 ;kaijugaiden.c:1719: if (dist_now < BOSS_SWEEP_RANGE && gs.hit_stun == 0 && gs.dodge_timer == 0) {
    00003152 F8 06            [12]10531 	ldhl	sp,	#6
    00003154 2A               [ 8]10532 	ld	a, (hl+)
    00003155 D6 20            [ 8]10533 	sub	a, #0x20
    00003157 7E               [ 8]10534 	ld	a, (hl)
    00003158 DE 00            [ 8]10535 	sbc	a, #0x00
    0000315A 56               [ 8]10536 	ld	d, (hl)
    0000315B 3E 00            [ 8]10537 	ld	a, #0x00
    0000315D 5F               [ 4]10538 	ld	e, a
    0000315E CB 7B            [ 8]10539 	bit	7, e
    00003160 28 07            [12]10540 	jr	Z, 00398$
    00003162 CB 7A            [ 8]10541 	bit	7, d
    00003164 20 08            [12]10542 	jr	NZ, 00399$
    00003166 BF               [ 4]10543 	cp	a, a
    00003167 18 05            [12]10544 	jr	00399$
    00003169                      10545 00398$:
    00003169 CB 7A            [ 8]10546 	bit	7, d
    0000316B 28 01            [12]10547 	jr	Z, 00399$
    0000316D 37               [ 4]10548 	scf
    0000316E                      10549 00399$:
    0000316E D2rBFr32         [16]10550 	jp	NC, 00146$
    00003171 FAr09r00         [16]10551 	ld	a, (#(_gs + 9) + 0)
    00003174 B7               [ 4]10552 	or	a, a
    00003175 C2rBFr32         [16]10553 	jp	NZ, 00146$
    00003178 FAr0Ar00         [16]10554 	ld	a, (#(_gs + 10) + 0)
    0000317B B7               [ 4]10555 	or	a, a
    0000317C C2rBFr32         [16]10556 	jp	NZ, 00146$
                                  10557 ;kaijugaiden.c:1720: if (gs.player_hp > 0) gs.player_hp--;
    0000317F FAr00r00         [16]10558 	ld	a, (#_gs + 0)
    00003182 B7               [ 4]10559 	or	a, a
    00003183 28 04            [12]10560 	jr	Z, 00114$
    00003185 3D               [ 4]10561 	dec	a
    00003186 EAr00r00         [16]10562 	ld	(#_gs),a
    00003189                      10563 00114$:
                                  10564 ;kaijugaiden.c:1721: gs.hit_stun = 30;
    00003189 21r09r00         [12]10565 	ld	hl, #(_gs + 9)
    0000318C 36 1E            [12]10566 	ld	(hl), #0x1e
                                  10567 ;kaijugaiden.c:1722: gs.fx_hit_x  = (u8)px_now;
    0000318E 11r70r00         [12]10568 	ld	de, #(_gs + 112)
    00003191 F8 08            [12]10569 	ldhl	sp,	#8
    00003193 7E               [ 8]10570 	ld	a, (hl)
    00003194 12               [ 8]10571 	ld	(de), a
                                  10572 ;kaijugaiden.c:1723: gs.fx_hit_y  = (u8)(SCR_H - 32);
    00003195 21r71r00         [12]10573 	ld	hl, #(_gs + 113)
                                  10574 ;kaijugaiden.c:1724: gs.fx_hit_timer = 8;
    00003198 3E 70            [ 8]10575 	ld	a, #0x70
    0000319A 22               [ 8]10576 	ld	(hl+), a
    0000319B 36 08            [12]10577 	ld	(hl), #0x08
                                  10578 ;kaijugaiden.c:1725: camera_punch(2, 6);
    0000319D 1E 06            [ 8]10579 	ld	e, #0x06
    0000319F 3E 02            [ 8]10580 	ld	a, #0x02
    000031A1 CDrB0r12         [24]10581 	call	_camera_punch
                                  10582 ;kaijugaiden.c:1727: break;
    000031A4 C3rBFr32         [16]10583 	jp	00146$
                                  10584 ;kaijugaiden.c:1729: case BOSS_ATK_SPIT:
    000031A7                      10585 00119$:
                                  10586 ;kaijugaiden.c:1730: if (dist_now < BOSS_SPIT_RANGE && gs.hit_stun == 0 && gs.dodge_timer == 0) {
    000031A7 F8 09            [12]10587 	ldhl	sp,	#9
    000031A9 7E               [ 8]10588 	ld	a, (hl)
    000031AA B7               [ 4]10589 	or	a, a
    000031AB CArBFr32         [16]10590 	jp	Z, 00146$
    000031AE FAr09r00         [16]10591 	ld	a, (#(_gs + 9) + 0)
    000031B1 B7               [ 4]10592 	or	a, a
    000031B2 C2rBFr32         [16]10593 	jp	NZ, 00146$
    000031B5 FAr0Ar00         [16]10594 	ld	a, (#(_gs + 10) + 0)
    000031B8 B7               [ 4]10595 	or	a, a
    000031B9 C2rBFr32         [16]10596 	jp	NZ, 00146$
                                  10597 ;kaijugaiden.c:1731: if (gs.player_hp > 0) gs.player_hp--;
    000031BC FAr00r00         [16]10598 	ld	a, (#_gs + 0)
    000031BF B7               [ 4]10599 	or	a, a
    000031C0 28 04            [12]10600 	jr	Z, 00121$
    000031C2 3D               [ 4]10601 	dec	a
    000031C3 EAr00r00         [16]10602 	ld	(#_gs),a
    000031C6                      10603 00121$:
                                  10604 ;kaijugaiden.c:1732: gs.hit_stun = 25;
    000031C6 21r09r00         [12]10605 	ld	hl, #(_gs + 9)
    000031C9 36 19            [12]10606 	ld	(hl), #0x19
                                  10607 ;kaijugaiden.c:1733: gs.fx_hit_x  = (u8)px_now;
    000031CB 11r70r00         [12]10608 	ld	de, #(_gs + 112)
    000031CE F8 08            [12]10609 	ldhl	sp,	#8
    000031D0 7E               [ 8]10610 	ld	a, (hl)
    000031D1 12               [ 8]10611 	ld	(de), a
                                  10612 ;kaijugaiden.c:1734: gs.fx_hit_y  = (u8)(SCR_H - 40);
    000031D2 21r71r00         [12]10613 	ld	hl, #(_gs + 113)
                                  10614 ;kaijugaiden.c:1735: gs.fx_hit_timer = 8;
    000031D5 3E 68            [ 8]10615 	ld	a, #0x68
    000031D7 22               [ 8]10616 	ld	(hl+), a
    000031D8 36 08            [12]10617 	ld	(hl), #0x08
                                  10618 ;kaijugaiden.c:1736: camera_punch(2, 5);
    000031DA 1E 05            [ 8]10619 	ld	e, #0x05
    000031DC 3E 02            [ 8]10620 	ld	a, #0x02
    000031DE CDrB0r12         [24]10621 	call	_camera_punch
                                  10622 ;kaijugaiden.c:1738: break;
    000031E1 C3rBFr32         [16]10623 	jp	00146$
                                  10624 ;kaijugaiden.c:1740: case BOSS_ATK_SLAM:
    000031E4                      10625 00126$:
                                  10626 ;kaijugaiden.c:1741: if (dist_now < BOSS_SLAM_RANGE && gs.hit_stun == 0 && gs.dodge_timer == 0) {
    000031E4 F8 06            [12]10627 	ldhl	sp,	#6
    000031E6 2A               [ 8]10628 	ld	a, (hl+)
    000031E7 D6 1A            [ 8]10629 	sub	a, #0x1a
    000031E9 7E               [ 8]10630 	ld	a, (hl)
    000031EA DE 00            [ 8]10631 	sbc	a, #0x00
    000031EC 56               [ 8]10632 	ld	d, (hl)
    000031ED 3E 00            [ 8]10633 	ld	a, #0x00
    000031EF CB 7F            [ 8]10634 	bit	7,a
    000031F1 28 07            [12]10635 	jr	Z, 00400$
    000031F3 CB 7A            [ 8]10636 	bit	7, d
    000031F5 20 08            [12]10637 	jr	NZ, 00401$
    000031F7 BF               [ 4]10638 	cp	a, a
    000031F8 18 05            [12]10639 	jr	00401$
    000031FA                      10640 00400$:
    000031FA CB 7A            [ 8]10641 	bit	7, d
    000031FC 28 01            [12]10642 	jr	Z, 00401$
    000031FE 37               [ 4]10643 	scf
    000031FF                      10644 00401$:
    000031FF D2rBFr32         [16]10645 	jp	NC, 00146$
    00003202 FAr09r00         [16]10646 	ld	a, (#(_gs + 9) + 0)
    00003205 B7               [ 4]10647 	or	a, a
    00003206 C2rBFr32         [16]10648 	jp	NZ, 00146$
    00003209 FAr0Ar00         [16]10649 	ld	a, (#(_gs + 10) + 0)
    0000320C B7               [ 4]10650 	or	a, a
    0000320D C2rBFr32         [16]10651 	jp	NZ, 00146$
                                  10652 ;kaijugaiden.c:1742: gs.player_hp = (gs.player_hp >= 2) ? gs.player_hp - 2 : 0;
    00003210 FAr00r00         [16]10653 	ld	a, (#_gs + 0)
    00003213 F8 09            [12]10654 	ldhl	sp,#9
    00003215 77               [ 8]10655 	ld	(hl), a
    00003216 D6 02            [ 8]10656 	sub	a, #0x02
    00003218 38 0B            [12]10657 	jr	C, 00157$
    0000321A 7E               [ 8]10658 	ld	a, (hl)
    0000321B 3D               [ 4]10659 	dec	a
    0000321C 3D               [ 4]10660 	dec	a
    0000321D F8 06            [12]10661 	ldhl	sp,	#6
    0000321F 22               [ 8]10662 	ld	(hl+), a
    00003220 07               [ 4]10663 	rlca
    00003221 9F               [ 4]10664 	sbc	a, a
    00003222 77               [ 8]10665 	ld	(hl), a
    00003223 18 05            [12]10666 	jr	00158$
    00003225                      10667 00157$:
    00003225 AF               [ 4]10668 	xor	a, a
    00003226 F8 06            [12]10669 	ldhl	sp,	#6
    00003228 22               [ 8]10670 	ld	(hl+), a
    00003229 77               [ 8]10671 	ld	(hl), a
    0000322A                      10672 00158$:
    0000322A F8 06            [12]10673 	ldhl	sp,	#6
    0000322C 7E               [ 8]10674 	ld	a, (hl)
    0000322D EAr00r00         [16]10675 	ld	(#_gs),a
                                  10676 ;kaijugaiden.c:1743: gs.hit_stun = 40;
    00003230 21r09r00         [12]10677 	ld	hl, #(_gs + 9)
    00003233 36 28            [12]10678 	ld	(hl), #0x28
                                  10679 ;kaijugaiden.c:1744: gs.fx_hit_x = (u8)px_now;
    00003235 11r70r00         [12]10680 	ld	de, #(_gs + 112)
    00003238 F8 08            [12]10681 	ldhl	sp,	#8
    0000323A 7E               [ 8]10682 	ld	a, (hl)
    0000323B 12               [ 8]10683 	ld	(de), a
                                  10684 ;kaijugaiden.c:1745: gs.fx_hit_y = (u8)(SCR_H - 28);
    0000323C 21r71r00         [12]10685 	ld	hl, #(_gs + 113)
    0000323F 36 74            [12]10686 	ld	(hl), #0x74
                                  10687 ;kaijugaiden.c:1746: gs.fx_hit_timer = 10;
    00003241 23               [ 8]10688 	inc	hl
    00003242 36 0A            [12]10689 	ld	(hl), #0x0a
                                  10690 ;kaijugaiden.c:1747: camera_punch(3, 8);
    00003244 1E 08            [ 8]10691 	ld	e, #0x08
    00003246 3E 03            [ 8]10692 	ld	a, #0x03
    00003248 CDrB0r12         [24]10693 	call	_camera_punch
                                  10694 ;kaijugaiden.c:1749: break;
    0000324B 18 72            [12]10695 	jr	00146$
                                  10696 ;kaijugaiden.c:1751: case BOSS_ATK_TIDAL:
    0000324D                      10697 00131$:
                                  10698 ;kaijugaiden.c:1752: if (gs.boss_x > px_now && gs.player_x < 18) gs.player_x++;
    0000324D F8 02            [12]10699 	ldhl	sp,	#2
    0000324F 5D               [ 4]10700 	ld	e, l
    00003250 54               [ 4]10701 	ld	d, h
    00003251 F8 04            [12]10702 	ldhl	sp,	#4
    00003253 1A               [ 8]10703 	ld	a, (de)
    00003254 13               [ 8]10704 	inc	de
    00003255 96               [ 8]10705 	sub	a, (hl)
    00003256 23               [ 8]10706 	inc	hl
    00003257 1A               [ 8]10707 	ld	a, (de)
    00003258 9E               [ 8]10708 	sbc	a, (hl)
    00003259 1A               [ 8]10709 	ld	a, (de)
    0000325A 57               [ 4]10710 	ld	d, a
    0000325B CB 7E            [12]10711 	bit	7, (hl)
    0000325D 28 07            [12]10712 	jr	Z, 00402$
    0000325F CB 7A            [ 8]10713 	bit	7, d
    00003261 20 08            [12]10714 	jr	NZ, 00403$
    00003263 BF               [ 4]10715 	cp	a, a
    00003264 18 05            [12]10716 	jr	00403$
    00003266                      10717 00402$:
    00003266 CB 7A            [ 8]10718 	bit	7, d
    00003268 28 01            [12]10719 	jr	Z, 00403$
    0000326A 37               [ 4]10720 	scf
    0000326B                      10721 00403$:
    0000326B 3E 00            [ 8]10722 	ld	a, #0x00
    0000326D 17               [ 4]10723 	rla
    0000326E 4F               [ 4]10724 	ld	c, a
    0000326F B7               [ 4]10725 	or	a, a
    00003270 28 0D            [12]10726 	jr	Z, 00136$
    00003272 F8 01            [12]10727 	ldhl	sp,	#1
    00003274 7E               [ 8]10728 	ld	a,(hl)
    00003275 FE 12            [ 8]10729 	cp	a,#0x12
    00003277 30 06            [12]10730 	jr	NC, 00136$
    00003279 3C               [ 4]10731 	inc	a
    0000327A EAr01r00         [16]10732 	ld	(#(_gs + 1)),a
    0000327D 18 0F            [12]10733 	jr	00137$
    0000327F                      10734 00136$:
                                  10735 ;kaijugaiden.c:1753: else if (gs.boss_x <= px_now && gs.player_x > 0) gs.player_x--;
    0000327F CB 41            [ 8]10736 	bit	0, c
    00003281 20 0B            [12]10737 	jr	NZ, 00137$
    00003283 F8 01            [12]10738 	ldhl	sp,	#1
    00003285 7E               [ 8]10739 	ld	a, (hl)
    00003286 B7               [ 4]10740 	or	a, a
    00003287 28 05            [12]10741 	jr	Z, 00137$
    00003289 7E               [ 8]10742 	ld	a, (hl)
    0000328A 3D               [ 4]10743 	dec	a
    0000328B EAr01r00         [16]10744 	ld	(#(_gs + 1)),a
    0000328E                      10745 00137$:
                                  10746 ;kaijugaiden.c:1754: if (gs.nanocell_boost_timer == 0 && gs.hit_stun == 0 && gs.dodge_timer == 0 && dist_now < BOSS_SPIT_RANGE) {
    0000328E FAr0Fr00         [16]10747 	ld	a, (#(_gs + 15) + 0)
    00003291 B7               [ 4]10748 	or	a, a
    00003292 20 2B            [12]10749 	jr	NZ, 00146$
    00003294 FAr09r00         [16]10750 	ld	a, (#(_gs + 9) + 0)
    00003297 B7               [ 4]10751 	or	a, a
    00003298 20 25            [12]10752 	jr	NZ, 00146$
    0000329A FAr0Ar00         [16]10753 	ld	a, (#(_gs + 10) + 0)
    0000329D B7               [ 4]10754 	or	a, a
    0000329E 20 1F            [12]10755 	jr	NZ, 00146$
    000032A0 F8 09            [12]10756 	ldhl	sp,	#9
    000032A2 7E               [ 8]10757 	ld	a, (hl)
    000032A3 B7               [ 4]10758 	or	a, a
    000032A4 28 19            [12]10759 	jr	Z, 00146$
                                  10760 ;kaijugaiden.c:1755: if (gs.player_hp > 0) gs.player_hp--;
    000032A6 21r00r00         [12]10761 	ld	hl, #_gs
    000032A9 46               [ 8]10762 	ld	b, (hl)
    000032AA 78               [ 4]10763 	ld	a, b
    000032AB B7               [ 4]10764 	or	a, a
    000032AC 28 05            [12]10765 	jr	Z, 00140$
    000032AE 05               [ 4]10766 	dec	b
    000032AF 21r00r00         [12]10767 	ld	hl, #_gs
    000032B2 70               [ 8]10768 	ld	(hl), b
    000032B3                      10769 00140$:
                                  10770 ;kaijugaiden.c:1756: gs.hit_stun = 18;
    000032B3 21r09r00         [12]10771 	ld	hl, #(_gs + 9)
    000032B6 36 12            [12]10772 	ld	(hl), #0x12
                                  10773 ;kaijugaiden.c:1757: camera_punch(2, 5);
    000032B8 1E 05            [ 8]10774 	ld	e, #0x05
    000032BA 3E 02            [ 8]10775 	ld	a, #0x02
    000032BC CDrB0r12         [24]10776 	call	_camera_punch
                                  10777 ;kaijugaiden.c:1760: }
    000032BF                      10778 00146$:
                                  10779 ;kaijugaiden.c:1762: gs.boss_recover = boss_attack_recover_frames(resolved_type);
    000032BF F8 00            [12]10780 	ldhl	sp,	#0
    000032C1 7E               [ 8]10781 	ld	a, (hl)
    000032C2 CDr22r18         [24]10782 	call	_boss_attack_recover_frames
    000032C5 EAr1Dr00         [16]10783 	ld	(#(_gs + 29)),a
                                  10784 ;kaijugaiden.c:1763: gs.boss_atk_type = boss_pick_attack();
    000032C8 CDr74r18         [24]10785 	call	_boss_pick_attack
    000032CB EAr1Br00         [16]10786 	ld	(#(_gs + 27)),a
                                  10787 ;kaijugaiden.c:1764: gs.boss_atk_timer = (gs.boss_phase == 1) ? BOSS_ATK_INTERVAL_P1
    000032CE FAr15r00         [16]10788 	ld	a, (#(_gs + 21) + 0)
    000032D1 FE 01            [ 8]10789 	cp	a, #0x01
    000032D3 20 04            [12]10790 	jr	NZ, 00159$
    000032D5 1E 5A            [ 8]10791 	ld	e, #0x5a
    000032D7 18 08            [12]10792 	jr	00160$
    000032D9                      10793 00159$:
                                  10794 ;kaijugaiden.c:1765: : (gs.boss_phase == 2) ? BOSS_ATK_INTERVAL_P2
    000032D9 D6 02            [ 8]10795 	sub	a, #0x02
                                  10796 ;kaijugaiden.c:1766: : BOSS_ATK_INTERVAL_P3;
    000032DB 1E 46            [ 8]10797 	ld	e, #0x46
    000032DD 28 02            [12]10798 	jr	Z, 00162$
    000032DF 1E 37            [ 8]10799 	ld	e, #0x37
    000032E1                      10800 00162$:
    000032E1                      10801 00160$:
    000032E1 7B               [ 4]10802 	ld	a, e
    000032E2 EAr1Ar00         [16]10803 	ld	(#(_gs + 26)),a
                                  10804 ;kaijugaiden.c:1767: return;
    000032E5 C3r91r33         [16]10805 	jp	00155$
    000032E8                      10806 00148$:
                                  10807 ;kaijugaiden.c:1771: s16 px = (s16)(gs.player_x * TILE_W);
    000032E8 21r01r00         [12]10808 	ld	hl, #(_gs + 1)
    000032EB 6E               [ 8]10809 	ld	l, (hl)
    000032EC AF               [ 4]10810 	xor	a, a
    000032ED 67               [ 4]10811 	ld	h, a
    000032EE 29               [ 8]10812 	add	hl, hl
    000032EF 29               [ 8]10813 	add	hl, hl
    000032F0 29               [ 8]10814 	add	hl, hl
    000032F1 4D               [ 4]10815 	ld	c, l
    000032F2 44               [ 4]10816 	ld	b, h
                                  10817 ;kaijugaiden.c:1772: if (gs.boss_x > px + 30) gs.boss_x -= 1;
    000032F3 11r17r00         [12]10818 	ld	de, #(_gs + 23)
    000032F6 1A               [ 8]10819 	ld	a, (de)
    000032F7 F8 08            [12]10820 	ldhl	sp,	#8
    000032F9 22               [ 8]10821 	ld	(hl+), a
    000032FA 13               [ 8]10822 	inc	de
    000032FB 1A               [ 8]10823 	ld	a, (de)
    000032FC 77               [ 8]10824 	ld	(hl), a
    000032FD 21 1E 00         [12]10825 	ld	hl, #0x001e
    00003300 09               [ 8]10826 	add	hl, bc
    00003301 E5               [16]10827 	push	hl
    00003302 7D               [ 4]10828 	ld	a, l
    00003303 F8 08            [12]10829 	ldhl	sp,	#8
    00003305 77               [ 8]10830 	ld	(hl), a
    00003306 E1               [12]10831 	pop	hl
    00003307 7C               [ 4]10832 	ld	a, h
    00003308 F8 07            [12]10833 	ldhl	sp,	#7
    0000330A 77               [ 8]10834 	ld	(hl), a
    0000330B F8 06            [12]10835 	ldhl	sp,	#6
    0000330D 5D               [ 4]10836 	ld	e, l
    0000330E 54               [ 4]10837 	ld	d, h
    0000330F F8 08            [12]10838 	ldhl	sp,	#8
    00003311 1A               [ 8]10839 	ld	a, (de)
    00003312 13               [ 8]10840 	inc	de
    00003313 96               [ 8]10841 	sub	a, (hl)
    00003314 23               [ 8]10842 	inc	hl
    00003315 1A               [ 8]10843 	ld	a, (de)
    00003316 9E               [ 8]10844 	sbc	a, (hl)
    00003317 1A               [ 8]10845 	ld	a, (de)
    00003318 57               [ 4]10846 	ld	d, a
    00003319 CB 7E            [12]10847 	bit	7, (hl)
    0000331B 28 07            [12]10848 	jr	Z, 00408$
    0000331D CB 7A            [ 8]10849 	bit	7, d
    0000331F 20 08            [12]10850 	jr	NZ, 00409$
    00003321 BF               [ 4]10851 	cp	a, a
    00003322 18 05            [12]10852 	jr	00409$
    00003324                      10853 00408$:
    00003324 CB 7A            [ 8]10854 	bit	7, d
    00003326 28 01            [12]10855 	jr	Z, 00409$
    00003328 37               [ 4]10856 	scf
    00003329                      10857 00409$:
    00003329 30 1F            [12]10858 	jr	NC, 00150$
    0000332B F8 08            [12]10859 	ldhl	sp,#8
    0000332D 2A               [ 8]10860 	ld	a, (hl+)
    0000332E 5F               [ 4]10861 	ld	e, a
    0000332F 56               [ 8]10862 	ld	d, (hl)
    00003330 21 01 00         [12]10863 	ld	hl, #0x0001
    00003333 7B               [ 4]10864 	ld	a, e
    00003334 95               [ 4]10865 	sub	a, l
    00003335 5F               [ 4]10866 	ld	e, a
    00003336 7A               [ 4]10867 	ld	a, d
    00003337 9C               [ 4]10868 	sbc	a, h
    00003338 F8 07            [12]10869 	ldhl	sp,	#7
    0000333A 32               [ 8]10870 	ld	(hl-), a
    0000333B 73               [ 8]10871 	ld	(hl), e
    0000333C 2A               [ 8]10872 	ld	a, (hl+)
    0000333D 23               [ 8]10873 	inc	hl
    0000333E 32               [ 8]10874 	ld	(hl-), a
    0000333F 2A               [ 8]10875 	ld	a, (hl+)
    00003340 23               [ 8]10876 	inc	hl
    00003341 32               [ 8]10877 	ld	(hl-), a
    00003342 11r17r00         [12]10878 	ld	de, #(_gs + 23)
    00003345 2A               [ 8]10879 	ld	a, (hl+)
    00003346 12               [ 8]10880 	ld	(de), a
    00003347 13               [ 8]10881 	inc	de
    00003348 7E               [ 8]10882 	ld	a, (hl)
    00003349 12               [ 8]10883 	ld	(de), a
    0000334A                      10884 00150$:
    0000334A 21r17r00         [12]10885 	ld	hl, #(_gs + 23)
    0000334D 2A               [ 8]10886 	ld	a,	(hl+)
    0000334E 66               [ 8]10887 	ld	h, (hl)
    0000334F 6F               [ 4]10888 	ld	l, a
                                  10889 ;kaijugaiden.c:1773: if (gs.boss_x < px - 10) gs.boss_x += 1;
    00003350 79               [ 4]10890 	ld	a, c
    00003351 C6 F6            [ 8]10891 	add	a, #0xf6
    00003353 4F               [ 4]10892 	ld	c, a
    00003354 78               [ 4]10893 	ld	a, b
    00003355 CE FF            [ 8]10894 	adc	a, #0xff
    00003357 47               [ 4]10895 	ld	b, a
    00003358 58               [ 4]10896 	ld	e, b
    00003359 54               [ 4]10897 	ld	d, h
    0000335A 7D               [ 4]10898 	ld	a, l
    0000335B 91               [ 4]10899 	sub	a, c
    0000335C 7C               [ 4]10900 	ld	a, h
    0000335D 98               [ 4]10901 	sbc	a, b
    0000335E CB 7B            [ 8]10902 	bit	7, e
    00003360 28 07            [12]10903 	jr	Z, 00410$
    00003362 CB 7A            [ 8]10904 	bit	7, d
    00003364 20 08            [12]10905 	jr	NZ, 00411$
    00003366 BF               [ 4]10906 	cp	a, a
    00003367 18 05            [12]10907 	jr	00411$
    00003369                      10908 00410$:
    00003369 CB 7A            [ 8]10909 	bit	7, d
    0000336B 28 01            [12]10910 	jr	Z, 00411$
    0000336D 37               [ 4]10911 	scf
    0000336E                      10912 00411$:
    0000336E 30 09            [12]10913 	jr	NC, 00152$
    00003370 23               [ 8]10914 	inc	hl
    00003371 4D               [ 4]10915 	ld	c, l
    00003372 44               [ 4]10916 	ld	b, h
    00003373 21r17r00         [12]10917 	ld	hl, #(_gs + 23)
    00003376 79               [ 4]10918 	ld	a, c
    00003377 22               [ 8]10919 	ld	(hl+), a
    00003378 70               [ 8]10920 	ld	(hl), b
    00003379                      10921 00152$:
                                  10922 ;kaijugaiden.c:1776: if (gs.boss_atk_timer > 0) { gs.boss_atk_timer--; return; }
    00003379 FAr1Ar00         [16]10923 	ld	a, (#(_gs + 26) + 0)
    0000337C B7               [ 4]10924 	or	a, a
    0000337D 28 06            [12]10925 	jr	Z, 00154$
    0000337F 3D               [ 4]10926 	dec	a
    00003380 EAr1Ar00         [16]10927 	ld	(#(_gs + 26)),a
    00003383 18 0C            [12]10928 	jr	00155$
    00003385                      10929 00154$:
                                  10930 ;kaijugaiden.c:1778: gs.boss_atk_type = boss_pick_attack();
    00003385 CDr74r18         [24]10931 	call	_boss_pick_attack
    00003388 EAr1Br00         [16]10932 	ld	(#(_gs + 27)),a
                                  10933 ;kaijugaiden.c:1779: gs.boss_windup = boss_attack_windup_frames(gs.boss_atk_type);
    0000338B CDrF9r17         [24]10934 	call	_boss_attack_windup_frames
    0000338E EAr1Cr00         [16]10935 	ld	(#(_gs + 28)),a
    00003391                      10936 00155$:
                                  10937 ;kaijugaiden.c:1780: }
    00003391 E8 0A            [16]10938 	add	sp, #10
    00003393 C9               [16]10939 	ret
                                  10940 ;kaijugaiden.c:1787: static void combat_init(void) {
                                  10941 ;	---------------------------------
                                  10942 ; Function combat_init
                                  10943 ; ---------------------------------
    00003394                      10944 _combat_init:
                                  10945 ;kaijugaiden.c:1788: memset(&gs.minions, 0, sizeof(gs.minions));
    00003394 11 2D 00         [12]10946 	ld	de, #0x002d
    00003397 D5               [16]10947 	push	de
    00003398 11 00 00         [12]10948 	ld	de, #0x0000
    0000339B D5               [16]10949 	push	de
    0000339C 11r1Fr00         [12]10950 	ld	de, #(_gs + 31)
    0000339F D5               [16]10951 	push	de
    000033A0 CDr00r00         [24]10952 	call	_memset
    000033A3 E8 06            [16]10953 	add	sp, #6
                                  10954 ;kaijugaiden.c:1789: camera_reset();
    000033A5 CDr8Cr12         [24]10955 	call	_camera_reset
                                  10956 ;kaijugaiden.c:1790: gs.wave       = 0;
    000033A8 21r50r00         [12]10957 	ld	hl, #_gs + 80
    000033AB 36 00            [12]10958 	ld	(hl), #0x00
                                  10959 ;kaijugaiden.c:1791: gs.wave_timer = 60;
    000033AD 21r51r00         [12]10960 	ld	hl, #_gs + 81
    000033B0 36 3C            [12]10961 	ld	(hl), #0x3c
                                  10962 ;kaijugaiden.c:1792: gs.player_hp  = PLAYER_MAX_HP;
    000033B2 21r00r00         [12]10963 	ld	hl, #_gs
                                  10964 ;kaijugaiden.c:1793: gs.player_x   = 2;
    000033B5 3E 06            [ 8]10965 	ld	a, #0x06
    000033B7 22               [ 8]10966 	ld	(hl+), a
    000033B8 36 02            [12]10967 	ld	(hl), #0x02
                                  10968 ;kaijugaiden.c:1794: gs.player_y   = (u8)(SCR_H - 24);
    000033BA 21r02r00         [12]10969 	ld	hl, #_gs + 2
    000033BD 36 78            [12]10970 	ld	(hl), #0x78
                                  10971 ;kaijugaiden.c:1795: gs.player_facing = 0;
    000033BF 21r03r00         [12]10972 	ld	hl, #_gs + 3
    000033C2 36 00            [12]10973 	ld	(hl), #0x00
                                  10974 ;kaijugaiden.c:1796: gs.player_anim = 0;
    000033C4 21r04r00         [12]10975 	ld	hl, #_gs + 4
    000033C7 36 00            [12]10976 	ld	(hl), #0x00
                                  10977 ;kaijugaiden.c:1797: gs.attack_timer  = 0;
    000033C9 21r05r00         [12]10978 	ld	hl, #_gs + 5
    000033CC 36 00            [12]10979 	ld	(hl), #0x00
                                  10980 ;kaijugaiden.c:1798: gs.attack_queued = 0;
    000033CE 21r06r00         [12]10981 	ld	hl, #_gs + 6
    000033D1 36 00            [12]10982 	ld	(hl), #0x00
                                  10983 ;kaijugaiden.c:1799: gs.attack_buffer = 0;
    000033D3 21r07r00         [12]10984 	ld	hl, #_gs + 7
    000033D6 36 00            [12]10985 	ld	(hl), #0x00
                                  10986 ;kaijugaiden.c:1800: gs.dodge_buffer = 0;
    000033D8 21r08r00         [12]10987 	ld	hl, #_gs + 8
    000033DB 36 00            [12]10988 	ld	(hl), #0x00
                                  10989 ;kaijugaiden.c:1801: gs.hit_stun      = 0;
    000033DD 21r09r00         [12]10990 	ld	hl, #_gs + 9
    000033E0 36 00            [12]10991 	ld	(hl), #0x00
                                  10992 ;kaijugaiden.c:1802: gs.dodge_timer   = 0;
    000033E2 21r0Ar00         [12]10993 	ld	hl, #_gs + 10
    000033E5 36 00            [12]10994 	ld	(hl), #0x00
                                  10995 ;kaijugaiden.c:1803: gs.combo_count   = 0;
    000033E7 21r0Br00         [12]10996 	ld	hl, #_gs + 11
    000033EA 36 00            [12]10997 	ld	(hl), #0x00
                                  10998 ;kaijugaiden.c:1804: gs.combo_timer   = 0;
    000033EC 21r0Cr00         [12]10999 	ld	hl, #_gs + 12
    000033EF 36 00            [12]11000 	ld	(hl), #0x00
                                  11001 ;kaijugaiden.c:1805: gs.beat_timer    = 0;
    000033F1 21r10r00         [12]11002 	ld	hl, #(_gs + 16)
    000033F4 AF               [ 4]11003 	xor	a, a
    000033F5 22               [ 8]11004 	ld	(hl+), a
                                  11005 ;kaijugaiden.c:1806: gs.perfect_flash_timer = 0;
    000033F6 22               [ 8]11006 	ld	(hl+), a
    000033F7 23               [ 8]11007 	inc	hl
    000033F8 36 00            [12]11008 	ld	(hl), #0x00
                                  11009 ;kaijugaiden.c:1807: gs.nanocell_count = 0;
    000033FA 21r0Er00         [12]11010 	ld	hl, #_gs + 14
    000033FD 36 00            [12]11011 	ld	(hl), #0x00
                                  11012 ;kaijugaiden.c:1808: gs.nanocell_boost_timer = 0;
    000033FF 21r0Fr00         [12]11013 	ld	hl, #_gs + 15
    00003402 36 00            [12]11014 	ld	(hl), #0x00
                                  11015 ;kaijugaiden.c:1809: gs.attack_dmg    = 1;
    00003404 21r0Dr00         [12]11016 	ld	hl, #_gs + 13
    00003407 36 01            [12]11017 	ld	(hl), #0x01
                                  11018 ;kaijugaiden.c:1810: gs.fx_hit_timer  = 0;
    00003409 21r72r00         [12]11019 	ld	hl, #_gs + 114
    0000340C 36 00            [12]11020 	ld	(hl), #0x00
                                  11021 ;kaijugaiden.c:1811: gs.fx_nano_timer = 0;
    0000340E 21r75r00         [12]11022 	ld	hl, #_gs + 117
    00003411 36 00            [12]11023 	ld	(hl), #0x00
                                  11024 ;kaijugaiden.c:1812: gs.phase_timer   = 0;
    00003413 21r4Dr00         [12]11025 	ld	hl, #(_gs + 77)
    00003416 AF               [ 4]11026 	xor	a, a
    00003417 22               [ 8]11027 	ld	(hl+), a
    00003418 77               [ 8]11028 	ld	(hl), a
                                  11029 ;kaijugaiden.c:1813: gs.banner_kind   = BANNER_NONE;
    00003419 21r78r00         [12]11030 	ld	hl, #_gs + 120
    0000341C 36 00            [12]11031 	ld	(hl), #0x00
                                  11032 ;kaijugaiden.c:1814: gs.banner_timer  = 0;
    0000341E 21r77r00         [12]11033 	ld	hl, #_gs + 119
    00003421 36 00            [12]11034 	ld	(hl), #0x00
                                  11035 ;kaijugaiden.c:1815: gs.input_held_mask = 0;
    00003423 21r80r00         [12]11036 	ld	hl, #(_gs + 128)
    00003426 AF               [ 4]11037 	xor	a, a
    00003427 22               [ 8]11038 	ld	(hl+), a
                                  11039 ;kaijugaiden.c:1816: gs.input_pressed_mask = 0;
    00003428 22               [ 8]11040 	ld	(hl+), a
    00003429 AF               [ 4]11041 	xor	a, a
    0000342A 22               [ 8]11042 	ld	(hl+), a
                                  11043 ;kaijugaiden.c:1817: gs.input_edge_total = 0;
    0000342B 22               [ 8]11044 	ld	(hl+), a
    0000342C AF               [ 4]11045 	xor	a, a
    0000342D 22               [ 8]11046 	ld	(hl+), a
                                  11047 ;kaijugaiden.c:1818: gs.input_active_frames = 0;
    0000342E 22               [ 8]11048 	ld	(hl+), a
    0000342F AF               [ 4]11049 	xor	a, a
    00003430 22               [ 8]11050 	ld	(hl+), a
    00003431 77               [ 8]11051 	ld	(hl), a
                                  11052 ;kaijugaiden.c:1819: boss_init();
    00003432 CDr99r2F         [24]11053 	call	_boss_init
                                  11054 ;kaijugaiden.c:1820: bg_draw_beach();
    00003435 CDrEBr0F         [24]11055 	call	_bg_draw_beach
                                  11056 ;kaijugaiden.c:1821: spr_hide_all();
                                  11057 ;kaijugaiden.c:1822: }
    00003438 C3r09r26         [16]11058 	jp	_spr_hide_all
                                  11059 ;kaijugaiden.c:1825: static int combat_update(void) {
                                  11060 ;	---------------------------------
                                  11061 ; Function combat_update
                                  11062 ; ---------------------------------
    0000343B                      11063 _combat_update:
    0000343B E8 FA            [16]11064 	add	sp, #-6
                                  11065 ;kaijugaiden.c:1829: gs.anim_tick++;
    0000343D FAr76r00         [16]11066 	ld	a, (#(_gs + 118) + 0)
    00003440 3C               [ 4]11067 	inc	a
    00003441 EAr76r00         [16]11068 	ld	(#(_gs + 118)),a
                                  11069 ;kaijugaiden.c:1830: gs.phase_timer++;
    00003444 21r4Dr00         [12]11070 	ld	hl, #(_gs + 77)
    00003447 2A               [ 8]11071 	ld	a, (hl+)
    00003448 4F               [ 4]11072 	ld	c, a
    00003449 46               [ 8]11073 	ld	b, (hl)
    0000344A 03               [ 8]11074 	inc	bc
    0000344B 21r4Dr00         [12]11075 	ld	hl, #(_gs + 77)
    0000344E 79               [ 4]11076 	ld	a, c
    0000344F 22               [ 8]11077 	ld	(hl+), a
    00003450 70               [ 8]11078 	ld	(hl), b
                                  11079 ;kaijugaiden.c:1833: gs.beat_timer++;
    00003451 21r10r00         [12]11080 	ld	hl, #(_gs + 16)
    00003454 2A               [ 8]11081 	ld	a, (hl+)
    00003455 4F               [ 4]11082 	ld	c, a
    00003456 46               [ 8]11083 	ld	b, (hl)
    00003457 03               [ 8]11084 	inc	bc
    00003458 21r10r00         [12]11085 	ld	hl, #(_gs + 16)
    0000345B 79               [ 4]11086 	ld	a, c
    0000345C 22               [ 8]11087 	ld	(hl+), a
    0000345D 70               [ 8]11088 	ld	(hl), b
                                  11089 ;kaijugaiden.c:1834: if (gs.beat_timer >= (u16)BEAT_PERIOD) gs.beat_timer = 0;
    0000345E 79               [ 4]11090 	ld	a, c
    0000345F D6 20            [ 8]11091 	sub	a, #0x20
    00003461 78               [ 4]11092 	ld	a, b
    00003462 DE 00            [ 8]11093 	sbc	a, #0x00
    00003464 38 04            [12]11094 	jr	C, 00102$
    00003466 2B               [ 8]11095 	dec	hl
    00003467 AF               [ 4]11096 	xor	a, a
    00003468 22               [ 8]11097 	ld	(hl+), a
    00003469 77               [ 8]11098 	ld	(hl), a
    0000346A                      11099 00102$:
                                  11100 ;kaijugaiden.c:1835: gs.beat_perfect = 0;
    0000346A 21r12r00         [12]11101 	ld	hl, #(_gs + 18)
    0000346D 36 00            [12]11102 	ld	(hl), #0x00
                                  11103 ;kaijugaiden.c:1833: gs.beat_timer++;
    0000346F 21r10r00         [12]11104 	ld	hl, #(_gs + 16)
    00003472 2A               [ 8]11105 	ld	a, (hl+)
    00003473 4F               [ 4]11106 	ld	c, a
    00003474 46               [ 8]11107 	ld	b, (hl)
                                  11108 ;kaijugaiden.c:1836: if (gs.beat_timer < 5 || gs.beat_timer >= (u16)(BEAT_PERIOD - 5))
    00003475 59               [ 4]11109 	ld	e, c
    00003476 50               [ 4]11110 	ld	d, b
    00003477 7B               [ 4]11111 	ld	a, e
    00003478 D6 05            [ 8]11112 	sub	a, #0x05
    0000347A 7A               [ 4]11113 	ld	a, d
    0000347B DE 00            [ 8]11114 	sbc	a, #0x00
    0000347D 38 08            [12]11115 	jr	C, 00103$
    0000347F 79               [ 4]11116 	ld	a, c
    00003480 D6 1B            [ 8]11117 	sub	a, #0x1b
    00003482 78               [ 4]11118 	ld	a, b
    00003483 DE 00            [ 8]11119 	sbc	a, #0x00
    00003485 38 05            [12]11120 	jr	C, 00104$
    00003487                      11121 00103$:
                                  11122 ;kaijugaiden.c:1837: gs.beat_perfect = 1;
    00003487 21r12r00         [12]11123 	ld	hl, #(_gs + 18)
    0000348A 36 01            [12]11124 	ld	(hl), #0x01
    0000348C                      11125 00104$:
                                  11126 ;kaijugaiden.c:1840: if (gs.attack_timer > 0)          gs.attack_timer--;
    0000348C FAr05r00         [16]11127 	ld	a, (#(_gs + 5) + 0)
    0000348F B7               [ 4]11128 	or	a, a
    00003490 28 04            [12]11129 	jr	Z, 00107$
    00003492 3D               [ 4]11130 	dec	a
    00003493 EAr05r00         [16]11131 	ld	(#(_gs + 5)),a
    00003496                      11132 00107$:
                                  11133 ;kaijugaiden.c:1841: if (gs.attack_buffer > 0)         gs.attack_buffer--;
    00003496 FAr07r00         [16]11134 	ld	a, (#(_gs + 7) + 0)
    00003499 B7               [ 4]11135 	or	a, a
    0000349A 28 04            [12]11136 	jr	Z, 00109$
    0000349C 3D               [ 4]11137 	dec	a
    0000349D EAr07r00         [16]11138 	ld	(#(_gs + 7)),a
    000034A0                      11139 00109$:
                                  11140 ;kaijugaiden.c:1842: if (gs.dodge_buffer > 0)          gs.dodge_buffer--;
    000034A0 FAr08r00         [16]11141 	ld	a, (#(_gs + 8) + 0)
    000034A3 B7               [ 4]11142 	or	a, a
    000034A4 28 04            [12]11143 	jr	Z, 00111$
    000034A6 3D               [ 4]11144 	dec	a
    000034A7 EAr08r00         [16]11145 	ld	(#(_gs + 8)),a
    000034AA                      11146 00111$:
                                  11147 ;kaijugaiden.c:1843: if (gs.hit_stun > 0)               gs.hit_stun--;
    000034AA FAr09r00         [16]11148 	ld	a, (#(_gs + 9) + 0)
    000034AD B7               [ 4]11149 	or	a, a
    000034AE 28 04            [12]11150 	jr	Z, 00113$
    000034B0 3D               [ 4]11151 	dec	a
    000034B1 EAr09r00         [16]11152 	ld	(#(_gs + 9)),a
    000034B4                      11153 00113$:
                                  11154 ;kaijugaiden.c:1844: if (gs.dodge_timer > 0)            gs.dodge_timer--;
    000034B4 FAr0Ar00         [16]11155 	ld	a, (#(_gs + 10) + 0)
    000034B7 B7               [ 4]11156 	or	a, a
    000034B8 28 04            [12]11157 	jr	Z, 00115$
    000034BA 3D               [ 4]11158 	dec	a
    000034BB EAr0Ar00         [16]11159 	ld	(#(_gs + 10)),a
    000034BE                      11160 00115$:
                                  11161 ;kaijugaiden.c:1845: if (gs.combo_timer > 0)            gs.combo_timer--;
    000034BE 21r0Cr00         [12]11162 	ld	hl, #(_gs + 12)
    000034C1 4E               [ 8]11163 	ld	c, (hl)
                                  11164 ;kaijugaiden.c:1846: else                               gs.combo_count = 0;
                                  11165 ;kaijugaiden.c:1845: if (gs.combo_timer > 0)            gs.combo_timer--;
    000034C2 79               [ 4]11166 	ld	a, c
    000034C3 B7               [ 4]11167 	or	a, a
    000034C4 28 07            [12]11168 	jr	Z, 00117$
    000034C6 0D               [ 4]11169 	dec	c
    000034C7 21r0Cr00         [12]11170 	ld	hl, #(_gs + 12)
    000034CA 71               [ 8]11171 	ld	(hl), c
    000034CB 18 05            [12]11172 	jr	00118$
    000034CD                      11173 00117$:
                                  11174 ;kaijugaiden.c:1846: else                               gs.combo_count = 0;
    000034CD 21r0Br00         [12]11175 	ld	hl, #(_gs + 11)
    000034D0 36 00            [12]11176 	ld	(hl), #0x00
    000034D2                      11177 00118$:
                                  11178 ;kaijugaiden.c:1847: if (gs.player_anim > 0)            gs.player_anim--;
    000034D2 FAr04r00         [16]11179 	ld	a, (#(_gs + 4) + 0)
    000034D5 B7               [ 4]11180 	or	a, a
    000034D6 28 04            [12]11181 	jr	Z, 00120$
    000034D8 3D               [ 4]11182 	dec	a
    000034D9 EAr04r00         [16]11183 	ld	(#(_gs + 4)),a
    000034DC                      11184 00120$:
                                  11185 ;kaijugaiden.c:1848: if (gs.perfect_flash_timer > 0)    gs.perfect_flash_timer--;
    000034DC FAr13r00         [16]11186 	ld	a, (#(_gs + 19) + 0)
    000034DF B7               [ 4]11187 	or	a, a
    000034E0 28 04            [12]11188 	jr	Z, 00122$
    000034E2 3D               [ 4]11189 	dec	a
    000034E3 EAr13r00         [16]11190 	ld	(#(_gs + 19)),a
    000034E6                      11191 00122$:
                                  11192 ;kaijugaiden.c:1849: if (gs.banner_timer > 0)           gs.banner_timer--;
    000034E6 21r77r00         [12]11193 	ld	hl, #_gs + 119
    000034E9 7E               [ 8]11194 	ld	a, (hl)
    000034EA B7               [ 4]11195 	or	a, a
    000034EB 28 02            [12]11196 	jr	Z, 00124$
    000034ED 3D               [ 4]11197 	dec	a
    000034EE 77               [ 8]11198 	ld	(hl), a
    000034EF                      11199 00124$:
                                  11200 ;kaijugaiden.c:1850: if (gs.nanocell_boost_timer > 0) {
    000034EF 21r0Fr00         [12]11201 	ld	hl, #(_gs + 15)
    000034F2 4E               [ 8]11202 	ld	c, (hl)
                                  11203 ;kaijugaiden.c:1852: gs.attack_dmg = 2;
                                  11204 ;kaijugaiden.c:1850: if (gs.nanocell_boost_timer > 0) {
    000034F3 79               [ 4]11205 	ld	a, c
    000034F4 B7               [ 4]11206 	or	a, a
    000034F5 28 0B            [12]11207 	jr	Z, 00126$
                                  11208 ;kaijugaiden.c:1851: gs.nanocell_boost_timer--;
    000034F7 0D               [ 4]11209 	dec	c
    000034F8 21r0Fr00         [12]11210 	ld	hl, #(_gs + 15)
                                  11211 ;kaijugaiden.c:1852: gs.attack_dmg = 2;
    000034FB 79               [ 4]11212 	ld	a, c
    000034FC 32               [ 8]11213 	ld	(hl-), a
    000034FD 2B               [ 8]11214 	dec	hl
    000034FE 36 02            [12]11215 	ld	(hl), #0x02
    00003500 18 05            [12]11216 	jr	00127$
    00003502                      11217 00126$:
                                  11218 ;kaijugaiden.c:1854: gs.attack_dmg = 1;
    00003502 21r0Dr00         [12]11219 	ld	hl, #(_gs + 13)
    00003505 36 01            [12]11220 	ld	(hl), #0x01
    00003507                      11221 00127$:
                                  11222 ;kaijugaiden.c:1856: if (gs.fx_hit_timer  > 0) gs.fx_hit_timer--;
    00003507 FAr72r00         [16]11223 	ld	a, (#(_gs + 114) + 0)
    0000350A B7               [ 4]11224 	or	a, a
    0000350B 28 04            [12]11225 	jr	Z, 00129$
    0000350D 3D               [ 4]11226 	dec	a
    0000350E EAr72r00         [16]11227 	ld	(#(_gs + 114)),a
    00003511                      11228 00129$:
                                  11229 ;kaijugaiden.c:1857: if (gs.fx_nano_timer > 0) gs.fx_nano_timer--;
    00003511 21r75r00         [12]11230 	ld	hl, #_gs + 117
    00003514 7E               [ 8]11231 	ld	a, (hl)
    00003515 B7               [ 4]11232 	or	a, a
    00003516 28 02            [12]11233 	jr	Z, 00131$
    00003518 3D               [ 4]11234 	dec	a
    00003519 77               [ 8]11235 	ld	(hl), a
    0000351A                      11236 00131$:
                                  11237 ;kaijugaiden.c:1859: if (gs.input_pressed_mask & BTN_A) gs.attack_buffer = INPUT_BUFFER_FRAMES;
    0000351A 21r82r00         [12]11238 	ld	hl, #(_gs + 130)
    0000351D 2A               [ 8]11239 	ld	a, (hl+)
    0000351E CB 47            [ 8]11240 	bit	0,a
    00003520 28 05            [12]11241 	jr	Z, 00133$
    00003522 21r07r00         [12]11242 	ld	hl, #(_gs + 7)
    00003525 36 05            [12]11243 	ld	(hl), #0x05
    00003527                      11244 00133$:
                                  11245 ;kaijugaiden.c:1860: if (gs.input_pressed_mask & BTN_B) gs.dodge_buffer = INPUT_BUFFER_FRAMES;
    00003527 21r82r00         [12]11246 	ld	hl, #(_gs + 130)
    0000352A 2A               [ 8]11247 	ld	a, (hl+)
    0000352B CB 4F            [ 8]11248 	bit	1,a
    0000352D 28 05            [12]11249 	jr	Z, 00135$
    0000352F 21r08r00         [12]11250 	ld	hl, #(_gs + 8)
    00003532 36 05            [12]11251 	ld	(hl), #0x05
    00003534                      11252 00135$:
                                  11253 ;kaijugaiden.c:1863: if (!gs.boss_awake) {
    00003534 21r14r00         [12]11254 	ld	hl, #(_gs + 20)
                                  11255 ;kaijugaiden.c:1865: else if (gs.wave < BOSS_WAVES_TO_CLEAR) minion_spawn_wave();
                                  11256 ;kaijugaiden.c:1869: gs.boss_stun = 30;
                                  11257 ;kaijugaiden.c:1863: if (!gs.boss_awake) {
    00003537 7E               [ 8]11258 	ld	a, (hl)
    00003538 B7               [ 4]11259 	or	a, a
    00003539 20 3D            [12]11260 	jr	NZ, 00145$
                                  11261 ;kaijugaiden.c:1864: if (gs.wave_timer > 0) gs.wave_timer--;
    0000353B 01r51r00         [12]11262 	ld	bc, #_gs + 81
    0000353E 0A               [ 8]11263 	ld	a, (bc)
    0000353F B7               [ 4]11264 	or	a, a
    00003540 28 04            [12]11265 	jr	Z, 00139$
    00003542 3D               [ 4]11266 	dec	a
    00003543 02               [ 8]11267 	ld	(bc), a
    00003544 18 0A            [12]11268 	jr	00140$
    00003546                      11269 00139$:
                                  11270 ;kaijugaiden.c:1865: else if (gs.wave < BOSS_WAVES_TO_CLEAR) minion_spawn_wave();
    00003546 FAr50r00         [16]11271 	ld	a, (#(_gs + 80) + 0)
    00003549 D6 03            [ 8]11272 	sub	a, #0x03
    0000354B 30 03            [12]11273 	jr	NC, 00140$
    0000354D CDr17r2B         [24]11274 	call	_minion_spawn_wave
    00003550                      11275 00140$:
                                  11276 ;kaijugaiden.c:1866: if (gs.wave >= BOSS_WAVES_TO_CLEAR && combat_minions_alive() == 0) {
    00003550 FAr50r00         [16]11277 	ld	a, (#(_gs + 80) + 0)
    00003553 D6 03            [ 8]11278 	sub	a, #0x03
    00003555 38 21            [12]11279 	jr	C, 00145$
    00003557 CDr29r11         [24]11280 	call	_combat_minions_alive
    0000355A B7               [ 4]11281 	or	a, a
    0000355B 20 1B            [12]11282 	jr	NZ, 00145$
                                  11283 ;kaijugaiden.c:1867: gs.boss_awake = 1;
    0000355D 21r14r00         [12]11284 	ld	hl, #(_gs + 20)
    00003560 36 01            [12]11285 	ld	(hl), #0x01
                                  11286 ;kaijugaiden.c:1868: combat_set_banner(BANNER_BOSS_RISE, 90);
    00003562 1E 5A            [ 8]11287 	ld	e, #0x5a
    00003564 3E 02            [ 8]11288 	ld	a, #0x02
    00003566 CDr2Ar12         [24]11289 	call	_combat_set_banner
                                  11290 ;kaijugaiden.c:1869: gs.boss_stun = 30;
    00003569 21r1Er00         [12]11291 	ld	hl, #(_gs + 30)
                                  11292 ;kaijugaiden.c:1870: gs.boss_recover = 20;
    0000356C 3E 1E            [ 8]11293 	ld	a, #0x1e
    0000356E 32               [ 8]11294 	ld	(hl-), a
    0000356F 36 14            [12]11295 	ld	(hl), #0x14
                                  11296 ;kaijugaiden.c:1871: camera_punch(2, 12);
    00003571 1E 0C            [ 8]11297 	ld	e, #0x0c
    00003573 3E 02            [ 8]11298 	ld	a, #0x02
    00003575 CDrB0r12         [24]11299 	call	_camera_punch
    00003578                      11300 00145$:
                                  11301 ;kaijugaiden.c:1876: u8 moved = 0;
    00003578 1E 00            [ 8]11302 	ld	e, #0x00
                                  11303 ;kaijugaiden.c:136: static inline u8 plat_held(u8 mask)  { return (_joy_cur  & mask) ? 1 : 0; }
    0000357A E5               [16]11304 	push	hl
    0000357B 21r01r00         [12]11305 	ld	hl, #__joy_cur
    0000357E CB 6E            [12]11306 	bit	5, (hl)
    00003580 E1               [12]11307 	pop	hl
    00003581 2E 01            [ 8]11308 	ld	l, #0x01
    00003583 20 02            [12]11309 	jr	NZ, 00213$
    00003585 2E 00            [ 8]11310 	ld	l, #0x00
    00003587                      11311 00213$:
                                  11312 ;kaijugaiden.c:1877: if (plat_held(BTN_LEFT)  && gs.player_x > 0)   { gs.player_x--;  gs.player_facing = 1; moved = 1; }
    00003587 01r01r00         [12]11313 	ld	bc, #_gs + 1
    0000358A 7D               [ 4]11314 	ld	a, l
    0000358B B7               [ 4]11315 	or	a, a
    0000358C 28 0D            [12]11316 	jr	Z, 00147$
    0000358E 0A               [ 8]11317 	ld	a, (bc)
    0000358F B7               [ 4]11318 	or	a, a
    00003590 28 09            [12]11319 	jr	Z, 00147$
    00003592 3D               [ 4]11320 	dec	a
    00003593 02               [ 8]11321 	ld	(bc), a
    00003594 21r03r00         [12]11322 	ld	hl, #(_gs + 3)
    00003597 36 01            [12]11323 	ld	(hl), #0x01
    00003599 1E 01            [ 8]11324 	ld	e, #0x01
    0000359B                      11325 00147$:
                                  11326 ;kaijugaiden.c:136: static inline u8 plat_held(u8 mask)  { return (_joy_cur  & mask) ? 1 : 0; }
    0000359B E5               [16]11327 	push	hl
    0000359C 21r01r00         [12]11328 	ld	hl, #__joy_cur
    0000359F CB 66            [12]11329 	bit	4, (hl)
    000035A1 E1               [12]11330 	pop	hl
    000035A2 3E 01            [ 8]11331 	ld	a, #0x01
    000035A4 20 01            [12]11332 	jr	NZ, 00215$
    000035A6 AF               [ 4]11333 	xor	a, a
    000035A7                      11334 00215$:
                                  11335 ;kaijugaiden.c:1878: if (plat_held(BTN_RIGHT) && gs.player_x < 17)  { gs.player_x++;  gs.player_facing = 0; moved = 1; }
    000035A7 B7               [ 4]11336 	or	a, a
    000035A8 28 0E            [12]11337 	jr	Z, 00150$
    000035AA 0A               [ 8]11338 	ld	a, (bc)
    000035AB FE 11            [ 8]11339 	cp	a, #0x11
    000035AD 30 09            [12]11340 	jr	NC, 00150$
    000035AF 3C               [ 4]11341 	inc	a
    000035B0 02               [ 8]11342 	ld	(bc), a
    000035B1 21r03r00         [12]11343 	ld	hl, #(_gs + 3)
    000035B4 36 00            [12]11344 	ld	(hl), #0x00
    000035B6 1E 01            [ 8]11345 	ld	e, #0x01
    000035B8                      11346 00150$:
                                  11347 ;kaijugaiden.c:1879: if (moved) gs.player_anim = 8;
    000035B8 7B               [ 4]11348 	ld	a, e
    000035B9 B7               [ 4]11349 	or	a, a
    000035BA 28 05            [12]11350 	jr	Z, 00153$
    000035BC 21r04r00         [12]11351 	ld	hl, #(_gs + 4)
    000035BF 36 08            [12]11352 	ld	(hl), #0x08
    000035C1                      11353 00153$:
                                  11354 ;kaijugaiden.c:1882: if (gs.attack_buffer > 0 && gs.attack_timer == 0 && gs.dodge_timer == 0 && gs.hit_stun == 0) {
                                  11355 ;kaijugaiden.c:1884: gs.attack_queued = 1;
                                  11356 ;kaijugaiden.c:1882: if (gs.attack_buffer > 0 && gs.attack_timer == 0 && gs.dodge_timer == 0 && gs.hit_stun == 0) {
    000035C1 FAr07r00         [16]11357 	ld	a, (#(_gs + 7) + 0)
    000035C4 B7               [ 4]11358 	or	a, a
    000035C5 28 1D            [12]11359 	jr	Z, 00155$
    000035C7 FAr05r00         [16]11360 	ld	a, (#(_gs + 5) + 0)
    000035CA B7               [ 4]11361 	or	a, a
    000035CB 20 17            [12]11362 	jr	NZ, 00155$
    000035CD FAr0Ar00         [16]11363 	ld	a, (#(_gs + 10) + 0)
    000035D0 B7               [ 4]11364 	or	a, a
    000035D1 20 11            [12]11365 	jr	NZ, 00155$
    000035D3 FAr09r00         [16]11366 	ld	a, (#(_gs + 9) + 0)
    000035D6 B7               [ 4]11367 	or	a, a
    000035D7 20 0B            [12]11368 	jr	NZ, 00155$
                                  11369 ;kaijugaiden.c:1883: gs.attack_timer = ATTACK_TOTAL_FRAMES;
    000035D9 21r05r00         [12]11370 	ld	hl, #(_gs + 5)
                                  11371 ;kaijugaiden.c:1884: gs.attack_queued = 1;
    000035DC 3E 0E            [ 8]11372 	ld	a, #0x0e
    000035DE 22               [ 8]11373 	ld	(hl+), a
                                  11374 ;kaijugaiden.c:1885: gs.attack_buffer = 0;
    000035DF 3E 01            [ 8]11375 	ld	a, #0x01
    000035E1 22               [ 8]11376 	ld	(hl+), a
    000035E2 36 00            [12]11377 	ld	(hl), #0x00
    000035E4                      11378 00155$:
                                  11379 ;kaijugaiden.c:1888: if (gs.attack_queued && gs.attack_timer == ATTACK_ACTIVE_FRAME) {
    000035E4 FAr06r00         [16]11380 	ld	a, (#(_gs + 6) + 0)
    000035E7 B7               [ 4]11381 	or	a, a
    000035E8 CArE2r36         [16]11382 	jp	Z, 00173$
    000035EB FAr05r00         [16]11383 	ld	a, (#(_gs + 5) + 0)
    000035EE D6 08            [ 8]11384 	sub	a, #0x08
    000035F0 C2rE2r36         [16]11385 	jp	NZ, 00173$
                                  11386 ;kaijugaiden.c:1889: u8 dmg = gs.attack_dmg;
    000035F3 FAr0Dr00         [16]11387 	ld	a, (#(_gs + 13) + 0)
    000035F6 F8 05            [12]11388 	ldhl	sp,	#5
    000035F8 77               [ 8]11389 	ld	(hl), a
                                  11390 ;kaijugaiden.c:1890: u8 finisher = 0;
    000035F9 F8 00            [12]11391 	ldhl	sp,	#0
    000035FB 36 00            [12]11392 	ld	(hl), #0x00
                                  11393 ;kaijugaiden.c:1891: gs.attack_queued = 0;
    000035FD 21r06r00         [12]11394 	ld	hl, #(_gs + 6)
    00003600 36 00            [12]11395 	ld	(hl), #0x00
                                  11396 ;kaijugaiden.c:1892: if (gs.beat_perfect) {
    00003602 FAr12r00         [16]11397 	ld	a, (#(_gs + 18) + 0)
    00003605 B7               [ 4]11398 	or	a, a
    00003606 28 3C            [12]11399 	jr	Z, 00162$
                                  11400 ;kaijugaiden.c:1893: dmg++;
    00003608 F8 05            [12]11401 	ldhl	sp,	#5
    0000360A 34               [12]11402 	inc	(hl)
                                  11403 ;kaijugaiden.c:1894: gs.combo_count++;
    0000360B FAr0Br00         [16]11404 	ld	a, (#(_gs + 11) + 0)
    0000360E 3C               [ 4]11405 	inc	a
    0000360F 21r0Br00         [12]11406 	ld	hl, #(_gs + 11)
                                  11407 ;kaijugaiden.c:1895: gs.combo_timer = ATTACK_COMBO_WINDOW;
    00003612 22               [ 8]11408 	ld	(hl+), a
    00003613 36 14            [12]11409 	ld	(hl), #0x14
                                  11410 ;kaijugaiden.c:1896: gs.perfect_flash_timer = 12;
    00003615 21r13r00         [12]11411 	ld	hl, #(_gs + 19)
    00003618 36 0C            [12]11412 	ld	(hl), #0x0c
                                  11413 ;kaijugaiden.c:1897: combat_set_banner(BANNER_PERFECT, 12);
    0000361A C5               [16]11414 	push	bc
    0000361B 1E 0C            [ 8]11415 	ld	e, #0x0c
    0000361D 3E 04            [ 8]11416 	ld	a, #0x04
    0000361F CDr2Ar12         [24]11417 	call	_combat_set_banner
    00003622 C1               [12]11418 	pop	bc
                                  11419 ;kaijugaiden.c:1898: if (gs.combo_count >= PLAYER_FINISHER_COMBO) {
    00003623 FAr0Br00         [16]11420 	ld	a, (#(_gs + 11) + 0)
    00003626 D6 03            [ 8]11421 	sub	a, #0x03
    00003628 38 1A            [12]11422 	jr	C, 00162$
                                  11423 ;kaijugaiden.c:1899: finisher = 1;
    0000362A F8 00            [12]11424 	ldhl	sp,	#0
    0000362C 36 01            [12]11425 	ld	(hl), #0x01
                                  11426 ;kaijugaiden.c:1900: dmg += 2;
    0000362E F8 05            [12]11427 	ldhl	sp,	#5
    00003630 7E               [ 8]11428 	ld	a, (hl)
    00003631 C6 02            [ 8]11429 	add	a, #0x02
    00003633 77               [ 8]11430 	ld	(hl), a
                                  11431 ;kaijugaiden.c:1901: combat_set_banner(BANNER_FINISHER, 20);
    00003634 C5               [16]11432 	push	bc
    00003635 1E 14            [ 8]11433 	ld	e, #0x14
    00003637 3E 05            [ 8]11434 	ld	a, #0x05
    00003639 CDr2Ar12         [24]11435 	call	_combat_set_banner
                                  11436 ;kaijugaiden.c:1902: camera_punch(2, 6);
    0000363C 1E 06            [ 8]11437 	ld	e, #0x06
    0000363E 3E 02            [ 8]11438 	ld	a, #0x02
    00003640 CDrB0r12         [24]11439 	call	_camera_punch
    00003643 C1               [12]11440 	pop	bc
    00003644                      11441 00162$:
                                  11442 ;kaijugaiden.c:1905: player_attack_minions(PLAYER_ATTACK_FRONT);
    00003644 C5               [16]11443 	push	bc
    00003645 3E 1C            [ 8]11444 	ld	a, #0x1c
    00003647 CDr03r2E         [24]11445 	call	_player_attack_minions
    0000364A C1               [12]11446 	pop	bc
                                  11447 ;kaijugaiden.c:1906: if (gs.boss_awake) {
    0000364B FAr14r00         [16]11448 	ld	a, (#(_gs + 20) + 0)
    0000364E B7               [ 4]11449 	or	a, a
    0000364F CArE2r36         [16]11450 	jp	Z, 00173$
                                  11451 ;kaijugaiden.c:1907: s16 px = (s16)(gs.player_x * TILE_W + 8);
    00003652 0A               [ 8]11452 	ld	a, (bc)
    00003653 26 00            [ 8]11453 	ld	h, #0x00
    00003655 6F               [ 4]11454 	ld	l, a
    00003656 29               [ 8]11455 	add	hl, hl
    00003657 29               [ 8]11456 	add	hl, hl
    00003658 29               [ 8]11457 	add	hl, hl
    00003659 7D               [ 4]11458 	ld	a, l
    0000365A C6 08            [ 8]11459 	add	a, #0x08
    0000365C 5F               [ 4]11460 	ld	e, a
    0000365D 7C               [ 4]11461 	ld	a, h
    0000365E CE 00            [ 8]11462 	adc	a, #0x00
    00003660 F8 01            [12]11463 	ldhl	sp,	#1
    00003662 73               [ 8]11464 	ld	(hl), e
    00003663 23               [ 8]11465 	inc	hl
    00003664 77               [ 8]11466 	ld	(hl), a
                                  11467 ;kaijugaiden.c:1908: s16 target = (s16)(gs.boss_x + 16);
    00003665 21r17r00         [12]11468 	ld	hl, #(_gs + 23)
    00003668 2A               [ 8]11469 	ld	a,	(hl+)
    00003669 66               [ 8]11470 	ld	h, (hl)
    0000366A C6 10            [ 8]11471 	add	a, #0x10
    0000366C 5F               [ 4]11472 	ld	e, a
    0000366D 7C               [ 4]11473 	ld	a, h
    0000366E CE 00            [ 8]11474 	adc	a, #0x00
    00003670 F8 03            [12]11475 	ldhl	sp,	#3
    00003672 73               [ 8]11476 	ld	(hl), e
    00003673 23               [ 8]11477 	inc	hl
    00003674 77               [ 8]11478 	ld	(hl), a
                                  11479 ;kaijugaiden.c:1909: if (attack_hits_target(px, gs.player_facing, target, PLAYER_ATTACK_FRONT + 4, PLAYER_ATTACK_REAR)) {
    00003675 FAr03r00         [16]11480 	ld	a, (#(_gs + 3) + 0)
    00003678 C5               [16]11481 	push	bc
    00003679 26 08            [ 8]11482 	ld	h, #0x08
    0000367B E5               [16]11483 	push	hl
    0000367C 33               [ 8]11484 	inc	sp
    0000367D 26 20            [ 8]11485 	ld	h, #0x20
    0000367F E5               [16]11486 	push	hl
    00003680 33               [ 8]11487 	inc	sp
    00003681 F8 07            [12]11488 	ldhl	sp,	#7
    00003683 5E               [ 8]11489 	ld	e, (hl)
    00003684 23               [ 8]11490 	inc	hl
    00003685 56               [ 8]11491 	ld	d, (hl)
    00003686 D5               [16]11492 	push	de
    00003687 F8 07            [12]11493 	ldhl	sp,	#7
    00003689 5E               [ 8]11494 	ld	e, (hl)
    0000368A 23               [ 8]11495 	inc	hl
    0000368B 56               [ 8]11496 	ld	d, (hl)
    0000368C CDr46r11         [24]11497 	call	_attack_hits_target
    0000368F C1               [12]11498 	pop	bc
    00003690 B7               [ 4]11499 	or	a, a
    00003691 28 4F            [12]11500 	jr	Z, 00173$
                                  11501 ;kaijugaiden.c:1910: if (finisher && gs.boss_stun < 24) gs.boss_stun = 24;
    00003693 F8 00            [12]11502 	ldhl	sp,	#0
    00003695 7E               [ 8]11503 	ld	a, (hl)
    00003696 B7               [ 4]11504 	or	a, a
    00003697 28 0C            [12]11505 	jr	Z, 00164$
    00003699 FAr1Er00         [16]11506 	ld	a, (#(_gs + 30) + 0)
    0000369C D6 18            [ 8]11507 	sub	a, #0x18
    0000369E 30 05            [12]11508 	jr	NC, 00164$
    000036A0 21r1Er00         [12]11509 	ld	hl, #(_gs + 30)
    000036A3 36 18            [12]11510 	ld	(hl), #0x18
    000036A5                      11511 00164$:
                                  11512 ;kaijugaiden.c:1911: if (boss_take_damage(dmg)) {
    000036A5 C5               [16]11513 	push	bc
    000036A6 F8 07            [12]11514 	ldhl	sp,	#7
    000036A8 7E               [ 8]11515 	ld	a, (hl)
    000036A9 CDrC9r2F         [24]11516 	call	_boss_take_damage
    000036AC 59               [ 4]11517 	ld	e, c
    000036AD 50               [ 4]11518 	ld	d, b
    000036AE C1               [12]11519 	pop	bc
    000036AF 7A               [ 4]11520 	ld	a, d
    000036B0 B3               [ 4]11521 	or	a, e
    000036B1 28 06            [12]11522 	jr	Z, 00167$
                                  11523 ;kaijugaiden.c:1912: return 2; /* boss defeated */
    000036B3 01 02 00         [12]11524 	ld	bc, #0x0002
    000036B6 C3rE6r37         [16]11525 	jp	00210$
    000036B9                      11526 00167$:
                                  11527 ;kaijugaiden.c:1914: gs.fx_hit_x = (u8)(gs.boss_x - 4);
    000036B9 FAr17r00         [16]11528 	ld	a, (#(_gs + 23) + 0)
    000036BC C6 FC            [ 8]11529 	add	a, #0xfc
    000036BE 21r70r00         [12]11530 	ld	hl, #(_gs + 112)
                                  11531 ;kaijugaiden.c:1915: gs.fx_hit_y = (u8)(SCR_H - 40);
    000036C1 22               [ 8]11532 	ld	(hl+), a
    000036C2 36 68            [12]11533 	ld	(hl), #0x68
                                  11534 ;kaijugaiden.c:1916: gs.fx_hit_timer = 10;
    000036C4 21r72r00         [12]11535 	ld	hl, #(_gs + 114)
    000036C7 36 0A            [12]11536 	ld	(hl), #0x0a
                                  11537 ;kaijugaiden.c:1917: camera_punch(finisher ? 3 : 2, finisher ? 8 : 5);
    000036C9 F8 00            [12]11538 	ldhl	sp,	#0
    000036CB 7E               [ 8]11539 	ld	a, (hl)
    000036CC B7               [ 4]11540 	or	a, a
    000036CD 1E 08            [ 8]11541 	ld	e, #0x08
    000036CF 20 02            [12]11542 	jr	NZ, 00217$
    000036D1 1E 05            [ 8]11543 	ld	e, #0x05
    000036D3                      11544 00217$:
    000036D3 F8 00            [12]11545 	ldhl	sp,	#0
    000036D5 7E               [ 8]11546 	ld	a, (hl)
    000036D6 B7               [ 4]11547 	or	a, a
    000036D7 3E 03            [ 8]11548 	ld	a, #0x03
    000036D9 20 02            [12]11549 	jr	NZ, 00219$
    000036DB 3E 02            [ 8]11550 	ld	a, #0x02
    000036DD                      11551 00219$:
    000036DD C5               [16]11552 	push	bc
    000036DE CDrB0r12         [24]11553 	call	_camera_punch
    000036E1 C1               [12]11554 	pop	bc
    000036E2                      11555 00173$:
                                  11556 ;kaijugaiden.c:1923: if ((gs.input_pressed_mask & BTN_SELECT) && gs.nanocell_count > 0) {
    000036E2 21r82r00         [12]11557 	ld	hl, #(_gs + 130)
    000036E5 2A               [ 8]11558 	ld	a,	(hl+)
    000036E6 CB 57            [ 8]11559 	bit	2,a
    000036E8 28 24            [12]11560 	jr	Z, 00176$
    000036EA 21r0Er00         [12]11561 	ld	hl, #_gs + 14
    000036ED 7E               [ 8]11562 	ld	a, (hl)
    000036EE B7               [ 4]11563 	or	a, a
    000036EF 28 1D            [12]11564 	jr	Z, 00176$
                                  11565 ;kaijugaiden.c:1924: gs.nanocell_count--;
    000036F1 3D               [ 4]11566 	dec	a
    000036F2 77               [ 8]11567 	ld	(hl), a
                                  11568 ;kaijugaiden.c:1925: gs.nanocell_boost_timer = NANOCELL_BOOST_DUR;
    000036F3 21r0Fr00         [12]11569 	ld	hl, #(_gs + 15)
    000036F6 36 5A            [12]11570 	ld	(hl), #0x5a
                                  11571 ;kaijugaiden.c:1927: bg_fill(TILE_SKY_B);
    000036F8 C5               [16]11572 	push	bc
    000036F9 3E 08            [ 8]11573 	ld	a, #0x08
    000036FB CDr76r0B         [24]11574 	call	_bg_fill
    000036FE C1               [12]11575 	pop	bc
                                  11576 ;kaijugaiden.c:142: static inline void plat_vsync(void)  { wait_vbl_done(); }
    000036FF CDr00r00         [24]11577 	call	_wait_vbl_done
                                  11578 ;kaijugaiden.c:1929: bg_draw_beach();
    00003702 C5               [16]11579 	push	bc
    00003703 CDrEBr0F         [24]11580 	call	_bg_draw_beach
                                  11581 ;kaijugaiden.c:1930: camera_punch(1, 6);
    00003706 1E 06            [ 8]11582 	ld	e, #0x06
    00003708 3E 01            [ 8]11583 	ld	a, #0x01
    0000370A CDrB0r12         [24]11584 	call	_camera_punch
    0000370D C1               [12]11585 	pop	bc
    0000370E                      11586 00176$:
                                  11587 ;kaijugaiden.c:1934: if (gs.dodge_buffer > 0 && gs.hit_stun == 0 && gs.attack_timer == 0) {
    0000370E FAr08r00         [16]11588 	ld	a, (#(_gs + 8) + 0)
    00003711 B7               [ 4]11589 	or	a, a
    00003712 28 6F            [12]11590 	jr	Z, 00192$
    00003714 FAr09r00         [16]11591 	ld	a, (#(_gs + 9) + 0)
    00003717 B7               [ 4]11592 	or	a, a
    00003718 20 69            [12]11593 	jr	NZ, 00192$
    0000371A FAr05r00         [16]11594 	ld	a, (#(_gs + 5) + 0)
    0000371D B7               [ 4]11595 	or	a, a
    0000371E 20 63            [12]11596 	jr	NZ, 00192$
                                  11597 ;kaijugaiden.c:1935: gs.dodge_timer = DODGE_FRAMES;
    00003720 21r0Ar00         [12]11598 	ld	hl, #(_gs + 10)
    00003723 36 0A            [12]11599 	ld	(hl), #0x0a
                                  11600 ;kaijugaiden.c:1937: if (!gs.player_facing && gs.player_x < 17 - DODGE_STEP) gs.player_x += DODGE_STEP;
    00003725 21r03r00         [12]11601 	ld	hl, #(_gs + 3)
    00003728 6E               [ 8]11602 	ld	l, (hl)
    00003729 7D               [ 4]11603 	ld	a, l
    0000372A B7               [ 4]11604 	or	a, a
    0000372B 20 0A            [12]11605 	jr	NZ, 00182$
    0000372D 0A               [ 8]11606 	ld	a, (bc)
    0000372E FE 0F            [ 8]11607 	cp	a, #0x0f
    00003730 30 05            [12]11608 	jr	NC, 00182$
    00003732 C6 02            [ 8]11609 	add	a, #0x02
    00003734 02               [ 8]11610 	ld	(bc), a
    00003735 18 0C            [12]11611 	jr	00183$
    00003737                      11612 00182$:
                                  11613 ;kaijugaiden.c:1938: else if (!gs.player_facing && gs.player_x < 17) gs.player_x = 17;
    00003737 7D               [ 4]11614 	ld	a, l
    00003738 B7               [ 4]11615 	or	a, a
    00003739 20 08            [12]11616 	jr	NZ, 00183$
    0000373B 0A               [ 8]11617 	ld	a, (bc)
    0000373C D6 11            [ 8]11618 	sub	a, #0x11
    0000373E 30 03            [12]11619 	jr	NC, 00183$
    00003740 3E 11            [ 8]11620 	ld	a, #0x11
    00003742 02               [ 8]11621 	ld	(bc), a
    00003743                      11622 00183$:
                                  11623 ;kaijugaiden.c:1939: if ( gs.player_facing && gs.player_x > DODGE_STEP - 1)  gs.player_x -= DODGE_STEP;
    00003743 21r03r00         [12]11624 	ld	hl, #(_gs + 3)
    00003746 6E               [ 8]11625 	ld	l, (hl)
    00003747 7D               [ 4]11626 	ld	a, l
    00003748 B7               [ 4]11627 	or	a, a
    00003749 28 1F            [12]11628 	jr	Z, 00188$
    0000374B 0A               [ 8]11629 	ld	a, (bc)
    0000374C 67               [ 4]11630 	ld	h, a
    0000374D 5C               [ 4]11631 	ld	e, h
    0000374E 3E 01            [ 8]11632 	ld	a,#0x01
    00003750 57               [ 4]11633 	ld	d,a
    00003751 94               [ 4]11634 	sub	a, h
    00003752 CB 7B            [ 8]11635 	bit	7, e
    00003754 28 07            [12]11636 	jr	Z, 00661$
    00003756 CB 7A            [ 8]11637 	bit	7, d
    00003758 20 08            [12]11638 	jr	NZ, 00662$
    0000375A BF               [ 4]11639 	cp	a, a
    0000375B 18 05            [12]11640 	jr	00662$
    0000375D                      11641 00661$:
    0000375D CB 7A            [ 8]11642 	bit	7, d
    0000375F 28 01            [12]11643 	jr	Z, 00662$
    00003761 37               [ 4]11644 	scf
    00003762                      11645 00662$:
    00003762 30 06            [12]11646 	jr	NC, 00188$
    00003764 7C               [ 4]11647 	ld	a, h
    00003765 3D               [ 4]11648 	dec	a
    00003766 3D               [ 4]11649 	dec	a
    00003767 02               [ 8]11650 	ld	(bc), a
    00003768 18 06            [12]11651 	jr	00189$
    0000376A                      11652 00188$:
                                  11653 ;kaijugaiden.c:1940: else if (gs.player_facing) gs.player_x = 0;
    0000376A 7D               [ 4]11654 	ld	a, l
    0000376B B7               [ 4]11655 	or	a, a
    0000376C 28 02            [12]11656 	jr	Z, 00189$
    0000376E AF               [ 4]11657 	xor	a, a
    0000376F 02               [ 8]11658 	ld	(bc), a
    00003770                      11659 00189$:
                                  11660 ;kaijugaiden.c:1941: combat_set_banner(BANNER_DODGE, 10);
    00003770 1E 0A            [ 8]11661 	ld	e, #0x0a
    00003772 3E 03            [ 8]11662 	ld	a, #0x03
    00003774 CDr2Ar12         [24]11663 	call	_combat_set_banner
                                  11664 ;kaijugaiden.c:1942: gs.dodge_buffer = 0;
    00003777 21r08r00         [12]11665 	ld	hl, #(_gs + 8)
    0000377A 36 00            [12]11666 	ld	(hl), #0x00
                                  11667 ;kaijugaiden.c:1943: camera_punch(1, 4);
    0000377C 1E 04            [ 8]11668 	ld	e, #0x04
    0000377E 3E 01            [ 8]11669 	ld	a, #0x01
    00003780 CDrB0r12         [24]11670 	call	_camera_punch
    00003783                      11671 00192$:
                                  11672 ;kaijugaiden.c:1947: minions_before = combat_minions_alive();
    00003783 CDr29r11         [24]11673 	call	_combat_minions_alive
    00003786 F8 05            [12]11674 	ldhl	sp,	#5
    00003788 77               [ 8]11675 	ld	(hl), a
                                  11676 ;kaijugaiden.c:1948: minion_update_all();
    00003789 CDrF5r2B         [24]11677 	call	_minion_update_all
                                  11678 ;kaijugaiden.c:1949: minions_after = combat_minions_alive();
    0000378C CDr29r11         [24]11679 	call	_combat_minions_alive
    0000378F 4F               [ 4]11680 	ld	c, a
                                  11681 ;kaijugaiden.c:1950: if (!gs.boss_awake && minions_before > 0 && minions_after == 0 && gs.wave < BOSS_WAVES_TO_CLEAR) {
    00003790 FAr14r00         [16]11682 	ld	a, (#(_gs + 20) + 0)
    00003793 B7               [ 4]11683 	or	a, a
    00003794 20 18            [12]11684 	jr	NZ, 00196$
    00003796 F8 05            [12]11685 	ldhl	sp,	#5
    00003798 7E               [ 8]11686 	ld	a, (hl)
    00003799 B7               [ 4]11687 	or	a, a
    0000379A 28 12            [12]11688 	jr	Z, 00196$
    0000379C 79               [ 4]11689 	ld	a, c
    0000379D B7               [ 4]11690 	or	a, a
    0000379E 20 0E            [12]11691 	jr	NZ, 00196$
    000037A0 FAr50r00         [16]11692 	ld	a, (#(_gs + 80) + 0)
    000037A3 D6 03            [ 8]11693 	sub	a, #0x03
    000037A5 30 07            [12]11694 	jr	NC, 00196$
                                  11695 ;kaijugaiden.c:1951: combat_set_banner(BANNER_WAVE_CLEAR, 30);
    000037A7 1E 1E            [ 8]11696 	ld	e, #0x1e
    000037A9 3E 01            [ 8]11697 	ld	a, #0x01
    000037AB CDr2Ar12         [24]11698 	call	_combat_set_banner
    000037AE                      11699 00196$:
                                  11700 ;kaijugaiden.c:1955: boss_update();
    000037AE CDr7Ar30         [24]11701 	call	_boss_update
                                  11702 ;kaijugaiden.c:1957: camera_redraw = combat_camera_update();
    000037B1 CDr2Fr13         [24]11703 	call	_combat_camera_update
                                  11704 ;kaijugaiden.c:1960: if (camera_redraw) bg_draw_beach();
    000037B4 B7               [ 4]11705 	or	a, a
    000037B5 28 05            [12]11706 	jr	Z, 00203$
    000037B7 CDrEBr0F         [24]11707 	call	_bg_draw_beach
    000037BA 18 0A            [12]11708 	jr	00204$
    000037BC                      11709 00203$:
                                  11710 ;kaijugaiden.c:1961: else if ((gs.anim_tick % WATER_REDRAW_PERIOD) == 0) bg_draw_beach_water_only();
    000037BC FAr76r00         [16]11711 	ld	a, (#(_gs + 118) + 0)
    000037BF E6 0F            [ 8]11712 	and	a, #0x0f
    000037C1 20 03            [12]11713 	jr	NZ, 00204$
    000037C3 CDrF1r0F         [24]11714 	call	_bg_draw_beach_water_only
    000037C6                      11715 00204$:
                                  11716 ;kaijugaiden.c:1964: hud_draw();
    000037C6 CDrDDr18         [24]11717 	call	_hud_draw
                                  11718 ;kaijugaiden.c:1967: spr_hide_all();
    000037C9 CDr09r26         [24]11719 	call	_spr_hide_all
                                  11720 ;kaijugaiden.c:1968: spr_draw_rei();
    000037CC CDrD6r1C         [24]11721 	call	_spr_draw_rei
                                  11722 ;kaijugaiden.c:1969: spr_draw_boss();
    000037CF CDrD7r1E         [24]11723 	call	_spr_draw_boss
                                  11724 ;kaijugaiden.c:1970: spr_draw_minions();
    000037D2 CDr17r20         [24]11725 	call	_spr_draw_minions
                                  11726 ;kaijugaiden.c:1971: spr_draw_fx();
    000037D5 CDrD4r23         [24]11727 	call	_spr_draw_fx
                                  11728 ;kaijugaiden.c:1974: if (gs.player_hp == 0) return 1;
    000037D8 FAr00r00         [16]11729 	ld	a, (#_gs + 0)
    000037DB B7               [ 4]11730 	or	a, a
    000037DC 20 05            [12]11731 	jr	NZ, 00206$
    000037DE 01 01 00         [12]11732 	ld	bc, #0x0001
    000037E1 18 03            [12]11733 	jr	00210$
    000037E3                      11734 00206$:
                                  11735 ;kaijugaiden.c:1975: return 0;
    000037E3 01 00 00         [12]11736 	ld	bc, #0x0000
    000037E6                      11737 00210$:
                                  11738 ;kaijugaiden.c:1976: }
    000037E6 E8 06            [16]11739 	add	sp, #6
    000037E8 C9               [16]11740 	ret
                                  11741 ;kaijugaiden.c:1986: static void cypher_init(void) {
                                  11742 ;	---------------------------------
                                  11743 ; Function cypher_init
                                  11744 ; ---------------------------------
    000037E9                      11745 _cypher_init:
    000037E9 E8 F8            [16]11746 	add	sp, #-8
                                  11747 ;kaijugaiden.c:1987: camera_reset();
    000037EB CDr8Cr12         [24]11748 	call	_camera_reset
                                  11749 ;kaijugaiden.c:1988: gs.phase_timer = 0;
    000037EE 21r4Dr00         [12]11750 	ld	hl, #(_gs + 77)
    000037F1 AF               [ 4]11751 	xor	a, a
    000037F2 22               [ 8]11752 	ld	(hl+), a
    000037F3 77               [ 8]11753 	ld	(hl), a
                                  11754 ;kaijugaiden.c:1989: gs.cleared_bosses |= (1u << 0);
    000037F4 21r68r00         [12]11755 	ld	hl, #(_gs + 104)
    000037F7 2A               [ 8]11756 	ld	a, (hl+)
    000037F8 4F               [ 4]11757 	ld	c, a
    000037F9 2A               [ 8]11758 	ld	a, (hl+)
    000037FA 23               [ 8]11759 	inc	hl
    000037FB 47               [ 4]11760 	ld	b, a
    000037FC 3A               [ 8]11761 	ld	a, (hl-)
    000037FD 6E               [ 8]11762 	ld	l, (hl)
    000037FE 67               [ 4]11763 	ld	h, a
    000037FF 79               [ 4]11764 	ld	a, c
    00003800 F6 01            [ 8]11765 	or	a, #0x01
    00003802 E5               [16]11766 	push	hl
    00003803 F8 06            [12]11767 	ldhl	sp,	#6
    00003805 77               [ 8]11768 	ld	(hl), a
    00003806 F8 07            [12]11769 	ldhl	sp,	#7
    00003808 70               [ 8]11770 	ld	(hl), b
    00003809 E1               [12]11771 	pop	hl
    0000380A E5               [16]11772 	push	hl
    0000380B 7D               [ 4]11773 	ld	a, l
    0000380C F8 08            [12]11774 	ldhl	sp,	#8
    0000380E 77               [ 8]11775 	ld	(hl), a
    0000380F E1               [12]11776 	pop	hl
    00003810 E5               [16]11777 	push	hl
    00003811 7C               [ 4]11778 	ld	a, h
    00003812 F8 09            [12]11779 	ldhl	sp,	#9
    00003814 77               [ 8]11780 	ld	(hl), a
    00003815 E1               [12]11781 	pop	hl
    00003816 11r68r00         [12]11782 	ld	de, #(_gs + 104)
    00003819 F8 04            [12]11783 	ldhl	sp,	#4
    0000381B 2A               [ 8]11784 	ld	a, (hl+)
    0000381C 12               [ 8]11785 	ld	(de), a
    0000381D 13               [ 8]11786 	inc	de
    0000381E 2A               [ 8]11787 	ld	a, (hl+)
    0000381F 12               [ 8]11788 	ld	(de), a
    00003820 13               [ 8]11789 	inc	de
    00003821 2A               [ 8]11790 	ld	a, (hl+)
    00003822 12               [ 8]11791 	ld	(de), a
    00003823 13               [ 8]11792 	inc	de
    00003824 7E               [ 8]11793 	ld	a, (hl)
    00003825 12               [ 8]11794 	ld	(de), a
                                  11795 ;kaijugaiden.c:1990: gs.cyphers        |= (1u << 0);
    00003826 21r6Cr00         [12]11796 	ld	hl, #(_gs + 108)
    00003829 2A               [ 8]11797 	ld	a, (hl+)
    0000382A 4F               [ 4]11798 	ld	c, a
    0000382B 2A               [ 8]11799 	ld	a, (hl+)
    0000382C 23               [ 8]11800 	inc	hl
    0000382D 47               [ 4]11801 	ld	b, a
    0000382E 3A               [ 8]11802 	ld	a, (hl-)
    0000382F 6E               [ 8]11803 	ld	l, (hl)
    00003830 67               [ 4]11804 	ld	h, a
    00003831 79               [ 4]11805 	ld	a, c
    00003832 F6 01            [ 8]11806 	or	a, #0x01
    00003834 E5               [16]11807 	push	hl
    00003835 F8 02            [12]11808 	ldhl	sp,	#2
    00003837 77               [ 8]11809 	ld	(hl), a
    00003838 F8 03            [12]11810 	ldhl	sp,	#3
    0000383A 70               [ 8]11811 	ld	(hl), b
    0000383B E1               [12]11812 	pop	hl
    0000383C E5               [16]11813 	push	hl
    0000383D 7D               [ 4]11814 	ld	a, l
    0000383E F8 04            [12]11815 	ldhl	sp,	#4
    00003840 77               [ 8]11816 	ld	(hl), a
    00003841 E1               [12]11817 	pop	hl
    00003842 E5               [16]11818 	push	hl
    00003843 7C               [ 4]11819 	ld	a, h
    00003844 F8 05            [12]11820 	ldhl	sp,	#5
    00003846 77               [ 8]11821 	ld	(hl), a
    00003847 E1               [12]11822 	pop	hl
    00003848 11r6Cr00         [12]11823 	ld	de, #(_gs + 108)
    0000384B F8 00            [12]11824 	ldhl	sp,	#0
    0000384D 2A               [ 8]11825 	ld	a, (hl+)
    0000384E 12               [ 8]11826 	ld	(de), a
    0000384F 13               [ 8]11827 	inc	de
    00003850 2A               [ 8]11828 	ld	a, (hl+)
    00003851 12               [ 8]11829 	ld	(de), a
    00003852 13               [ 8]11830 	inc	de
    00003853 2A               [ 8]11831 	ld	a, (hl+)
    00003854 12               [ 8]11832 	ld	(de), a
    00003855 13               [ 8]11833 	inc	de
                                  11834 ;kaijugaiden.c:1991: password_encode(gs.password_buf, gs.cleared_bosses, gs.cyphers);
    00003856 2A               [ 8]11835 	ld	a, (hl+)
    00003857 12               [ 8]11836 	ld	(de), a
    00003858 11r68r00         [12]11837 	ld	de, #(_gs + 104)
    0000385B 1A               [ 8]11838 	ld	a, (de)
    0000385C 22               [ 8]11839 	ld	(hl+), a
    0000385D 13               [ 8]11840 	inc	de
    0000385E 1A               [ 8]11841 	ld	a, (de)
    0000385F 22               [ 8]11842 	ld	(hl+), a
    00003860 13               [ 8]11843 	inc	de
    00003861 1A               [ 8]11844 	ld	a, (de)
    00003862 22               [ 8]11845 	ld	(hl+), a
    00003863 13               [ 8]11846 	inc	de
    00003864 1A               [ 8]11847 	ld	a, (de)
    00003865 77               [ 8]11848 	ld	(hl), a
    00003866 F8 02            [12]11849 	ldhl	sp,	#2
    00003868 2A               [ 8]11850 	ld	a, (hl+)
    00003869 5F               [ 4]11851 	ld	e, a
    0000386A 56               [ 8]11852 	ld	d, (hl)
    0000386B D5               [16]11853 	push	de
    0000386C F8 02            [12]11854 	ldhl	sp,	#2
    0000386E 2A               [ 8]11855 	ld	a, (hl+)
    0000386F 5F               [ 4]11856 	ld	e, a
    00003870 56               [ 8]11857 	ld	d, (hl)
    00003871 D5               [16]11858 	push	de
    00003872 F8 0A            [12]11859 	ldhl	sp,	#10
    00003874 2A               [ 8]11860 	ld	a, (hl+)
    00003875 5F               [ 4]11861 	ld	e, a
    00003876 56               [ 8]11862 	ld	d, (hl)
    00003877 D5               [16]11863 	push	de
    00003878 F8 0A            [12]11864 	ldhl	sp,	#10
    0000387A 2A               [ 8]11865 	ld	a, (hl+)
    0000387B 5F               [ 4]11866 	ld	e, a
    0000387C 56               [ 8]11867 	ld	d, (hl)
    0000387D D5               [16]11868 	push	de
    0000387E 11r53r00         [12]11869 	ld	de, #(_gs + 83)
    00003881 CDrC3r0C         [24]11870 	call	_password_encode
                                  11871 ;kaijugaiden.c:1992: spr_hide_all();
    00003884 CDr09r26         [24]11872 	call	_spr_hide_all
                                  11873 ;kaijugaiden.c:1993: bg_fill(TILE_BLANK);
    00003887 AF               [ 4]11874 	xor	a, a
    00003888 CDr76r0B         [24]11875 	call	_bg_fill
                                  11876 ;kaijugaiden.c:1994: bg_draw_text(7, 5, "CYPHER");
    0000388B 11rBAr38         [12]11877 	ld	de, #___str_39
    0000388E D5               [16]11878 	push	de
    0000388F 1E 05            [ 8]11879 	ld	e, #0x05
    00003891 3E 07            [ 8]11880 	ld	a, #0x07
    00003893 CDr03r0C         [24]11881 	call	_bg_draw_text
                                  11882 ;kaijugaiden.c:1995: bg_draw_text(5, 8, "SAVE CODE");
    00003896 11rC1r38         [12]11883 	ld	de, #___str_40
    00003899 D5               [16]11884 	push	de
    0000389A 1E 08            [ 8]11885 	ld	e, #0x08
    0000389C 3E 05            [ 8]11886 	ld	a, #0x05
    0000389E CDr03r0C         [24]11887 	call	_bg_draw_text
                                  11888 ;kaijugaiden.c:1996: bg_draw_text(2, 10, gs.password_buf);
    000038A1 11r53r00         [12]11889 	ld	de, #(_gs + 83)
    000038A4 D5               [16]11890 	push	de
    000038A5 1E 0A            [ 8]11891 	ld	e, #0x0a
    000038A7 3E 02            [ 8]11892 	ld	a, #0x02
    000038A9 CDr03r0C         [24]11893 	call	_bg_draw_text
                                  11894 ;kaijugaiden.c:1997: bg_draw_text(4, 14, "A OR START");
    000038AC 11rCBr38         [12]11895 	ld	de, #___str_41
    000038AF D5               [16]11896 	push	de
    000038B0 1E 0E            [ 8]11897 	ld	e, #0x0e
    000038B2 3E 04            [ 8]11898 	ld	a, #0x04
    000038B4 CDr03r0C         [24]11899 	call	_bg_draw_text
                                  11900 ;kaijugaiden.c:1998: }
    000038B7 E8 08            [16]11901 	add	sp, #8
    000038B9 C9               [16]11902 	ret
    000038BA                      11903 ___str_39:
    000038BA 43 59 50 48 45 52    11904 	.ascii "CYPHER"
    000038C0 00                   11905 	.db 0x00
    000038C1                      11906 ___str_40:
    000038C1 53 41 56 45 20 43 4F 11907 	.ascii "SAVE CODE"
             44 45
    000038CA 00                   11908 	.db 0x00
    000038CB                      11909 ___str_41:
    000038CB 41 20 4F 52 20 53 54 11910 	.ascii "A OR START"
             41 52 54
    000038D5 00                   11911 	.db 0x00
                                  11912 ;kaijugaiden.c:2001: static int cypher_update(void) {
                                  11913 ;	---------------------------------
                                  11914 ; Function cypher_update
                                  11915 ; ---------------------------------
    000038D6                      11916 _cypher_update:
                                  11917 ;kaijugaiden.c:2002: gs.phase_timer++;
    000038D6 21r4Dr00         [12]11918 	ld	hl, #(_gs + 77)
    000038D9 2A               [ 8]11919 	ld	a, (hl+)
    000038DA 4F               [ 4]11920 	ld	c, a
    000038DB 46               [ 8]11921 	ld	b, (hl)
    000038DC 03               [ 8]11922 	inc	bc
    000038DD 21r4Dr00         [12]11923 	ld	hl, #(_gs + 77)
    000038E0 79               [ 4]11924 	ld	a, c
    000038E1 22               [ 8]11925 	ld	(hl+), a
    000038E2 70               [ 8]11926 	ld	(hl), b
                                  11927 ;kaijugaiden.c:2003: if (gs.phase_timer >= CYPHER_DISPLAY_FRAMES) return 1;
    000038E3 79               [ 4]11928 	ld	a, c
    000038E4 D6 B4            [ 8]11929 	sub	a, #0xb4
    000038E6 78               [ 4]11930 	ld	a, b
    000038E7 DE 00            [ 8]11931 	sbc	a, #0x00
    000038E9 38 04            [12]11932 	jr	C, 00102$
    000038EB 01 01 00         [12]11933 	ld	bc, #0x0001
    000038EE C9               [16]11934 	ret
    000038EF                      11935 00102$:
                                  11936 ;kaijugaiden.c:138: return ((_joy_cur & mask) && !(_joy_prev & mask)) ? 1 : 0;
    000038EF E5               [16]11937 	push	hl
    000038F0 21r01r00         [12]11938 	ld	hl, #__joy_cur
    000038F3 CB 46            [12]11939 	bit	0, (hl)
    000038F5 E1               [12]11940 	pop	hl
    000038F6 28 0B            [12]11941 	jr	Z, 00110$
    000038F8 E5               [16]11942 	push	hl
    000038F9 21r00r00         [12]11943 	ld	hl, #__joy_prev
    000038FC CB 46            [12]11944 	bit	0, (hl)
    000038FE E1               [12]11945 	pop	hl
    000038FF 3E 01            [ 8]11946 	ld	a, #0x01
    00003901 28 01            [12]11947 	jr	Z, 00111$
    00003903                      11948 00110$:
    00003903 AF               [ 4]11949 	xor	a, a
    00003904                      11950 00111$:
                                  11951 ;kaijugaiden.c:2004: if (plat_pressed(BTN_A) || plat_pressed(BTN_START)) return 1;
    00003904 B7               [ 4]11952 	or	a, a
    00003905 20 18            [12]11953 	jr	NZ, 00103$
                                  11954 ;kaijugaiden.c:138: return ((_joy_cur & mask) && !(_joy_prev & mask)) ? 1 : 0;
    00003907 E5               [16]11955 	push	hl
    00003908 21r01r00         [12]11956 	ld	hl, #__joy_cur
    0000390B CB 5E            [12]11957 	bit	3, (hl)
    0000390D E1               [12]11958 	pop	hl
    0000390E 28 0B            [12]11959 	jr	Z, 00115$
    00003910 E5               [16]11960 	push	hl
    00003911 21r00r00         [12]11961 	ld	hl, #__joy_prev
    00003914 CB 5E            [12]11962 	bit	3, (hl)
    00003916 E1               [12]11963 	pop	hl
    00003917 3E 01            [ 8]11964 	ld	a, #0x01
    00003919 28 01            [12]11965 	jr	Z, 00116$
    0000391B                      11966 00115$:
    0000391B AF               [ 4]11967 	xor	a, a
    0000391C                      11968 00116$:
                                  11969 ;kaijugaiden.c:2004: if (plat_pressed(BTN_A) || plat_pressed(BTN_START)) return 1;
    0000391C B7               [ 4]11970 	or	a, a
    0000391D 28 04            [12]11971 	jr	Z, 00104$
    0000391F                      11972 00103$:
    0000391F 01 01 00         [12]11973 	ld	bc, #0x0001
    00003922 C9               [16]11974 	ret
    00003923                      11975 00104$:
                                  11976 ;kaijugaiden.c:2005: return 0;
    00003923 01 00 00         [12]11977 	ld	bc, #0x0000
                                  11978 ;kaijugaiden.c:2006: }
    00003926 C9               [16]11979 	ret
                                  11980 ;kaijugaiden.c:2015: static void gameover_init(void) {
                                  11981 ;	---------------------------------
                                  11982 ; Function gameover_init
                                  11983 ; ---------------------------------
    00003927                      11984 _gameover_init:
                                  11985 ;kaijugaiden.c:2016: camera_reset();
    00003927 CDr8Cr12         [24]11986 	call	_camera_reset
                                  11987 ;kaijugaiden.c:2017: gs.phase_timer = 0;
    0000392A 21r4Dr00         [12]11988 	ld	hl, #(_gs + 77)
    0000392D AF               [ 4]11989 	xor	a, a
    0000392E 22               [ 8]11990 	ld	(hl+), a
    0000392F 77               [ 8]11991 	ld	(hl), a
                                  11992 ;kaijugaiden.c:2018: spr_hide_all();
    00003930 CDr09r26         [24]11993 	call	_spr_hide_all
                                  11994 ;kaijugaiden.c:2019: bg_fill(TILE_BLANK);
    00003933 AF               [ 4]11995 	xor	a, a
    00003934 CDr76r0B         [24]11996 	call	_bg_fill
                                  11997 ;kaijugaiden.c:2020: bg_draw_text(5, 8, "GAME OVER");
    00003937 11r4Er39         [12]11998 	ld	de, #___str_42
    0000393A D5               [16]11999 	push	de
    0000393B 1E 08            [ 8]12000 	ld	e, #0x08
    0000393D 3E 05            [ 8]12001 	ld	a, #0x05
    0000393F CDr03r0C         [24]12002 	call	_bg_draw_text
                                  12003 ;kaijugaiden.c:2021: bg_draw_text(3, 12, "PRESS A OR START");
    00003942 11r58r39         [12]12004 	ld	de, #___str_43
    00003945 D5               [16]12005 	push	de
    00003946 1E 0C            [ 8]12006 	ld	e, #0x0c
    00003948 3E 03            [ 8]12007 	ld	a, #0x03
    0000394A CDr03r0C         [24]12008 	call	_bg_draw_text
                                  12009 ;kaijugaiden.c:2022: }
    0000394D C9               [16]12010 	ret
    0000394E                      12011 ___str_42:
    0000394E 47 41 4D 45 20 4F 56 12012 	.ascii "GAME OVER"
             45 52
    00003957 00                   12013 	.db 0x00
    00003958                      12014 ___str_43:
    00003958 50 52 45 53 53 20 41 12015 	.ascii "PRESS A OR START"
             20 4F 52 20 53 54 41
             52 54
    00003968 00                   12016 	.db 0x00
                                  12017 ;kaijugaiden.c:2025: static int gameover_update(void) {
                                  12018 ;	---------------------------------
                                  12019 ; Function gameover_update
                                  12020 ; ---------------------------------
    00003969                      12021 _gameover_update:
                                  12022 ;kaijugaiden.c:2026: gs.phase_timer++;
    00003969 21r4Dr00         [12]12023 	ld	hl, #(_gs + 77)
    0000396C 2A               [ 8]12024 	ld	a, (hl+)
    0000396D 4F               [ 4]12025 	ld	c, a
    0000396E 46               [ 8]12026 	ld	b, (hl)
    0000396F 03               [ 8]12027 	inc	bc
    00003970 21r4Dr00         [12]12028 	ld	hl, #(_gs + 77)
    00003973 79               [ 4]12029 	ld	a, c
    00003974 22               [ 8]12030 	ld	(hl+), a
    00003975 70               [ 8]12031 	ld	(hl), b
                                  12032 ;kaijugaiden.c:2027: if (gs.phase_timer >= GAMEOVER_HOLD_FRAMES && plat_pressed(BTN_A)) return 1;
    00003976 79               [ 4]12033 	ld	a, c
    00003977 D6 B4            [ 8]12034 	sub	a, #0xb4
    00003979 78               [ 4]12035 	ld	a, b
    0000397A DE 00            [ 8]12036 	sbc	a, #0x00
    0000397C 38 1C            [12]12037 	jr	C, 00102$
                                  12038 ;kaijugaiden.c:138: return ((_joy_cur & mask) && !(_joy_prev & mask)) ? 1 : 0;
    0000397E E5               [16]12039 	push	hl
    0000397F 21r01r00         [12]12040 	ld	hl, #__joy_cur
    00003982 CB 46            [12]12041 	bit	0, (hl)
    00003984 E1               [12]12042 	pop	hl
    00003985 28 0B            [12]12043 	jr	Z, 00111$
    00003987 E5               [16]12044 	push	hl
    00003988 21r00r00         [12]12045 	ld	hl, #__joy_prev
    0000398B CB 46            [12]12046 	bit	0, (hl)
    0000398D E1               [12]12047 	pop	hl
    0000398E 3E 01            [ 8]12048 	ld	a, #0x01
    00003990 28 01            [12]12049 	jr	Z, 00112$
    00003992                      12050 00111$:
    00003992 AF               [ 4]12051 	xor	a, a
    00003993                      12052 00112$:
                                  12053 ;kaijugaiden.c:2027: if (gs.phase_timer >= GAMEOVER_HOLD_FRAMES && plat_pressed(BTN_A)) return 1;
    00003993 B7               [ 4]12054 	or	a, a
    00003994 28 04            [12]12055 	jr	Z, 00102$
    00003996 01 01 00         [12]12056 	ld	bc, #0x0001
    00003999 C9               [16]12057 	ret
    0000399A                      12058 00102$:
                                  12059 ;kaijugaiden.c:2028: if (gs.phase_timer >= GAMEOVER_HOLD_FRAMES && plat_pressed(BTN_START)) return 1;
    0000399A 21r4Dr00         [12]12060 	ld	hl, #(_gs + 77)
    0000399D 2A               [ 8]12061 	ld	a, (hl+)
    0000399E 4F               [ 4]12062 	ld	c, a
    0000399F 46               [ 8]12063 	ld	b, (hl)
    000039A0 79               [ 4]12064 	ld	a, c
    000039A1 D6 B4            [ 8]12065 	sub	a, #0xb4
    000039A3 78               [ 4]12066 	ld	a, b
    000039A4 DE 00            [ 8]12067 	sbc	a, #0x00
    000039A6 38 1C            [12]12068 	jr	C, 00105$
                                  12069 ;kaijugaiden.c:138: return ((_joy_cur & mask) && !(_joy_prev & mask)) ? 1 : 0;
    000039A8 E5               [16]12070 	push	hl
    000039A9 21r01r00         [12]12071 	ld	hl, #__joy_cur
    000039AC CB 5E            [12]12072 	bit	3, (hl)
    000039AE E1               [12]12073 	pop	hl
    000039AF 28 0B            [12]12074 	jr	Z, 00116$
    000039B1 E5               [16]12075 	push	hl
    000039B2 21r00r00         [12]12076 	ld	hl, #__joy_prev
    000039B5 CB 5E            [12]12077 	bit	3, (hl)
    000039B7 E1               [12]12078 	pop	hl
    000039B8 3E 01            [ 8]12079 	ld	a, #0x01
    000039BA 28 01            [12]12080 	jr	Z, 00117$
    000039BC                      12081 00116$:
    000039BC AF               [ 4]12082 	xor	a, a
    000039BD                      12083 00117$:
                                  12084 ;kaijugaiden.c:2028: if (gs.phase_timer >= GAMEOVER_HOLD_FRAMES && plat_pressed(BTN_START)) return 1;
    000039BD B7               [ 4]12085 	or	a, a
    000039BE 28 04            [12]12086 	jr	Z, 00105$
    000039C0 01 01 00         [12]12087 	ld	bc, #0x0001
    000039C3 C9               [16]12088 	ret
    000039C4                      12089 00105$:
                                  12090 ;kaijugaiden.c:2029: return 0;
    000039C4 01 00 00         [12]12091 	ld	bc, #0x0000
                                  12092 ;kaijugaiden.c:2030: }
    000039C7 C9               [16]12093 	ret
                                  12094 ;kaijugaiden.c:2037: int main(void) {
                                  12095 ;	---------------------------------
                                  12096 ; Function main
                                  12097 ; ---------------------------------
    000039C8                      12098 _main::
                                  12099 ;kaijugaiden.c:2041: DISPLAY_OFF;
    000039C8 CDr00r00         [24]12100 	call	_display_off
                                  12101 ;kaijugaiden.c:2044: set_bkg_palette(0, 4, gb_dmg_pal);
    000039CB 11r17r3B         [12]12102 	ld	de, #_main_gb_dmg_pal_20000_1046
    000039CE D5               [16]12103 	push	de
    000039CF 21 00 04         [12]12104 	ld	hl, #0x400
    000039D2 E5               [16]12105 	push	hl
    000039D3 CDr00r00         [24]12106 	call	_set_bkg_palette
    000039D6 E8 04            [16]12107 	add	sp, #4
                                  12108 ;kaijugaiden.c:2046: SHOW_BKG;
    000039D8 F0r00            [12]12109 	ldh	a, (_LCDC_REG + 0)
    000039DA F6 01            [ 8]12110 	or	a, #0x01
    000039DC E0r00            [12]12111 	ldh	(_LCDC_REG + 0), a
                                  12112 ;kaijugaiden.c:2047: SHOW_SPRITES;
    000039DE F0r00            [12]12113 	ldh	a, (_LCDC_REG + 0)
    000039E0 F6 02            [ 8]12114 	or	a, #0x02
    000039E2 E0r00            [12]12115 	ldh	(_LCDC_REG + 0), a
                                  12116 ;kaijugaiden.c:2048: DISPLAY_ON;
    000039E4 F0r00            [12]12117 	ldh	a, (_LCDC_REG + 0)
    000039E6 F6 80            [ 8]12118 	or	a, #0x80
    000039E8 E0r00            [12]12119 	ldh	(_LCDC_REG + 0), a
                                  12120 ;kaijugaiden.c:2074: game_load_tiles();
    000039EA CDrA3r00         [24]12121 	call	_game_load_tiles
                                  12122 ;kaijugaiden.c:2077: memset(&gs, 0, sizeof(gs));
    000039ED 11 88 00         [12]12123 	ld	de, #0x0088
    000039F0 D5               [16]12124 	push	de
    000039F1 11 00 00         [12]12125 	ld	de, #0x0000
    000039F4 D5               [16]12126 	push	de
    000039F5 11r00r00         [12]12127 	ld	de, #_gs
    000039F8 D5               [16]12128 	push	de
    000039F9 CDr00r00         [24]12129 	call	_memset
    000039FC E8 06            [16]12130 	add	sp, #6
                                  12131 ;kaijugaiden.c:2078: gs.phase = PHASE_SPLASH;
    000039FE 21r4Cr00         [12]12132 	ld	hl, #(_gs + 76)
    00003A01 36 00            [12]12133 	ld	(hl), #0x00
                                  12134 ;kaijugaiden.c:2079: splash_init();
    00003A03 CDr1Er26         [24]12135 	call	_splash_init
                                  12136 ;kaijugaiden.c:2082: while (1) {
    00003A06                      12137 00135$:
                                  12138 ;kaijugaiden.c:133: _joy_prev = _joy_cur;
    00003A06 FAr01r00         [16]12139 	ld	a, (#__joy_cur)
    00003A09 EAr00r00         [16]12140 	ld	(#__joy_prev),a
                                  12141 ;kaijugaiden.c:134: _joy_cur  = joypad();
    00003A0C CDr00r00         [24]12142 	call	_joypad
    00003A0F EAr01r00         [16]12143 	ld	(#__joy_cur),a
                                  12144 ;kaijugaiden.c:2087: input_capture_frame();
    00003A12 CDr34r12         [24]12145 	call	_input_capture_frame
                                  12146 ;kaijugaiden.c:2089: switch (gs.phase) {
    00003A15 21r4Cr00         [12]12147 	ld	hl, #(_gs + 76)
    00003A18 4E               [ 8]12148 	ld	c, (hl)
    00003A19 3E 08            [ 8]12149 	ld	a, #0x08
    00003A1B 91               [ 4]12150 	sub	a, c
    00003A1C DAr11r3B         [16]12151 	jp	C, 00133$
    00003A1F 06 00            [ 8]12152 	ld	b, #0x00
    00003A21 21r2Br3A         [12]12153 	ld	hl, #00244$
    00003A24 09               [ 8]12154 	add	hl, bc
    00003A25 09               [ 8]12155 	add	hl, bc
    00003A26 4E               [ 8]12156 	ld	c, (hl)
    00003A27 23               [ 8]12157 	inc	hl
    00003A28 66               [ 8]12158 	ld	h, (hl)
    00003A29 69               [ 4]12159 	ld	l, c
    00003A2A E9               [ 4]12160 	jp	(hl)
    00003A2B                      12161 00244$:
    00003A2Br3Dr3A                12162 	.dw	00101$
    00003A2Dr50r3A                12163 	.dw	00104$
    00003A2Fr63r3A                12164 	.dw	00107$
    00003A31rA0r3A                12165 	.dw	00117$
    00003A33rB1r3A                12166 	.dw	00120$
    00003A35r11r3B                12167 	.dw	00133$
    00003A37rF1r3A                12168 	.dw	00127$
    00003A39r02r3B                12169 	.dw	00130$
    00003A3Br88r3A                12170 	.dw	00113$
                                  12171 ;kaijugaiden.c:2091: case PHASE_SPLASH:
    00003A3D                      12172 00101$:
                                  12173 ;kaijugaiden.c:2092: if (splash_update()) {
    00003A3D CDr2Fr26         [24]12174 	call	_splash_update
    00003A40 78               [ 4]12175 	ld	a, b
    00003A41 B1               [ 4]12176 	or	a, c
    00003A42 CAr11r3B         [16]12177 	jp	Z, 00133$
                                  12178 ;kaijugaiden.c:2093: gs.phase = PHASE_CINEMATIC;
    00003A45 21r4Cr00         [12]12179 	ld	hl, #(_gs + 76)
    00003A48 36 01            [12]12180 	ld	(hl), #0x01
                                  12181 ;kaijugaiden.c:2094: cinematic_init();
    00003A4A CDrA9r26         [24]12182 	call	_cinematic_init
                                  12183 ;kaijugaiden.c:2096: break;
    00003A4D C3r11r3B         [16]12184 	jp	00133$
                                  12185 ;kaijugaiden.c:2098: case PHASE_CINEMATIC:
    00003A50                      12186 00104$:
                                  12187 ;kaijugaiden.c:2099: if (cinematic_update()) {
    00003A50 CDrC2r26         [24]12188 	call	_cinematic_update
    00003A53 78               [ 4]12189 	ld	a, b
    00003A54 B1               [ 4]12190 	or	a, c
    00003A55 CAr11r3B         [16]12191 	jp	Z, 00133$
                                  12192 ;kaijugaiden.c:2100: gs.phase = PHASE_TITLE;
    00003A58 21r4Cr00         [12]12193 	ld	hl, #(_gs + 76)
    00003A5B 36 02            [12]12194 	ld	(hl), #0x02
                                  12195 ;kaijugaiden.c:2101: title_init();
    00003A5D CDr2Ar27         [24]12196 	call	_title_init
                                  12197 ;kaijugaiden.c:2103: break;
    00003A60 C3r11r3B         [16]12198 	jp	00133$
                                  12199 ;kaijugaiden.c:2105: case PHASE_TITLE: {
    00003A63                      12200 00107$:
                                  12201 ;kaijugaiden.c:2106: int sel = title_update();
    00003A63 CDr3Er27         [24]12202 	call	_title_update
                                  12203 ;kaijugaiden.c:2107: if (sel == 1) {
    00003A66 79               [ 4]12204 	ld	a, c
    00003A67 3D               [ 4]12205 	dec	a
    00003A68 B0               [ 4]12206 	or	a, b
    00003A69 20 0B            [12]12207 	jr	NZ, 00111$
                                  12208 ;kaijugaiden.c:2108: gs.phase = PHASE_STAGE_INTRO;
    00003A6B 21r4Cr00         [12]12209 	ld	hl, #(_gs + 76)
    00003A6E 36 03            [12]12210 	ld	(hl), #0x03
                                  12211 ;kaijugaiden.c:2109: stage_intro_init();
    00003A70 CDr94r2A         [24]12212 	call	_stage_intro_init
    00003A73 C3r11r3B         [16]12213 	jp	00133$
    00003A76                      12214 00111$:
                                  12215 ;kaijugaiden.c:2110: } else if (sel == 2) {
    00003A76 79               [ 4]12216 	ld	a, c
    00003A77 D6 02            [ 8]12217 	sub	a, #0x02
    00003A79 B0               [ 4]12218 	or	a, b
    00003A7A C2r11r3B         [16]12219 	jp	NZ, 00133$
                                  12220 ;kaijugaiden.c:2111: gs.phase = PHASE_PASSWORD;
    00003A7D 21r4Cr00         [12]12221 	ld	hl, #(_gs + 76)
    00003A80 36 08            [12]12222 	ld	(hl), #0x08
                                  12223 ;kaijugaiden.c:2112: password_init();
    00003A82 CDrC7r28         [24]12224 	call	_password_init
                                  12225 ;kaijugaiden.c:2114: break;
    00003A85 C3r11r3B         [16]12226 	jp	00133$
                                  12227 ;kaijugaiden.c:2117: case PHASE_PASSWORD: {
    00003A88                      12228 00113$:
                                  12229 ;kaijugaiden.c:2118: int result = password_update();
    00003A88 CDr19r29         [24]12230 	call	_password_update
                                  12231 ;kaijugaiden.c:2119: if (result == 1 || result == 2) {
    00003A8B 79               [ 4]12232 	ld	a, c
    00003A8C 3D               [ 4]12233 	dec	a
    00003A8D B0               [ 4]12234 	or	a, b
    00003A8E 28 06            [12]12235 	jr	Z, 00114$
    00003A90 79               [ 4]12236 	ld	a, c
    00003A91 D6 02            [ 8]12237 	sub	a, #0x02
    00003A93 B0               [ 4]12238 	or	a, b
    00003A94 20 7B            [12]12239 	jr	NZ, 00133$
    00003A96                      12240 00114$:
                                  12241 ;kaijugaiden.c:2120: gs.phase = PHASE_TITLE;
    00003A96 21r4Cr00         [12]12242 	ld	hl, #(_gs + 76)
    00003A99 36 02            [12]12243 	ld	(hl), #0x02
                                  12244 ;kaijugaiden.c:2121: title_init();
    00003A9B CDr2Ar27         [24]12245 	call	_title_init
                                  12246 ;kaijugaiden.c:2123: break;
    00003A9E 18 71            [12]12247 	jr	00133$
                                  12248 ;kaijugaiden.c:2126: case PHASE_STAGE_INTRO:
    00003AA0                      12249 00117$:
                                  12250 ;kaijugaiden.c:2127: if (stage_intro_update()) {
    00003AA0 CDrC9r2A         [24]12251 	call	_stage_intro_update
    00003AA3 78               [ 4]12252 	ld	a, b
    00003AA4 B1               [ 4]12253 	or	a, c
    00003AA5 28 6A            [12]12254 	jr	Z, 00133$
                                  12255 ;kaijugaiden.c:2128: gs.phase = PHASE_COMBAT;
    00003AA7 21r4Cr00         [12]12256 	ld	hl, #(_gs + 76)
    00003AAA 36 04            [12]12257 	ld	(hl), #0x04
                                  12258 ;kaijugaiden.c:2129: combat_init();
    00003AAC CDr94r33         [24]12259 	call	_combat_init
                                  12260 ;kaijugaiden.c:2131: break;
    00003AAF 18 60            [12]12261 	jr	00133$
                                  12262 ;kaijugaiden.c:2133: case PHASE_COMBAT: {
    00003AB1                      12263 00120$:
                                  12264 ;kaijugaiden.c:2134: int result = combat_update();
    00003AB1 CDr3Br34         [24]12265 	call	_combat_update
                                  12266 ;kaijugaiden.c:2135: if (result == 1) {
    00003AB4 79               [ 4]12267 	ld	a, c
    00003AB5 3D               [ 4]12268 	dec	a
    00003AB6 B0               [ 4]12269 	or	a, b
    00003AB7 20 0A            [12]12270 	jr	NZ, 00125$
                                  12271 ;kaijugaiden.c:2136: gs.phase = PHASE_GAME_OVER;
    00003AB9 21r4Cr00         [12]12272 	ld	hl, #(_gs + 76)
    00003ABC 36 07            [12]12273 	ld	(hl), #0x07
                                  12274 ;kaijugaiden.c:2137: gameover_init();
    00003ABE CDr27r39         [24]12275 	call	_gameover_init
    00003AC1 18 4E            [12]12276 	jr	00133$
    00003AC3                      12277 00125$:
                                  12278 ;kaijugaiden.c:2138: } else if (result == 2) {
    00003AC3 79               [ 4]12279 	ld	a, c
    00003AC4 D6 02            [ 8]12280 	sub	a, #0x02
    00003AC6 B0               [ 4]12281 	or	a, b
    00003AC7 20 48            [12]12282 	jr	NZ, 00133$
                                  12283 ;kaijugaiden.c:2139: gs.phase = PHASE_BOSS_DEATH;
    00003AC9 21r4Cr00         [12]12284 	ld	hl, #(_gs + 76)
                                  12285 ;kaijugaiden.c:2140: gs.phase_timer = 0;
    00003ACC 3E 05            [ 8]12286 	ld	a, #0x05
    00003ACE 22               [ 8]12287 	ld	(hl+), a
    00003ACF AF               [ 4]12288 	xor	a, a
    00003AD0 22               [ 8]12289 	ld	(hl+), a
    00003AD1 77               [ 8]12290 	ld	(hl), a
                                  12291 ;kaijugaiden.c:2141: bg_fill(TILE_SKY_A);
    00003AD2 3E 07            [ 8]12292 	ld	a, #0x07
    00003AD4 CDr76r0B         [24]12293 	call	_bg_fill
                                  12294 ;kaijugaiden.c:2142: spr_hide_all();
    00003AD7 CDr09r26         [24]12295 	call	_spr_hide_all
                                  12296 ;kaijugaiden.c:2144: for (u8 f = 0; f < 8; ++f) plat_vsync();
    00003ADA 0E 00            [ 8]12297 	ld	c, #0x00
    00003ADC                      12298 00141$:
    00003ADC 79               [ 4]12299 	ld	a, c
    00003ADD D6 08            [ 8]12300 	sub	a, #0x08
    00003ADF 30 06            [12]12301 	jr	NC, 00121$
                                  12302 ;kaijugaiden.c:142: static inline void plat_vsync(void)  { wait_vbl_done(); }
    00003AE1 CDr00r00         [24]12303 	call	_wait_vbl_done
                                  12304 ;kaijugaiden.c:2144: for (u8 f = 0; f < 8; ++f) plat_vsync();
    00003AE4 0C               [ 4]12305 	inc	c
    00003AE5 18 F5            [12]12306 	jr	00141$
    00003AE7                      12307 00121$:
                                  12308 ;kaijugaiden.c:2145: gs.phase = PHASE_CYPHER_DROP;
    00003AE7 21r4Cr00         [12]12309 	ld	hl, #(_gs + 76)
    00003AEA 36 06            [12]12310 	ld	(hl), #0x06
                                  12311 ;kaijugaiden.c:2146: cypher_init();
    00003AEC CDrE9r37         [24]12312 	call	_cypher_init
                                  12313 ;kaijugaiden.c:2148: break;
    00003AEF 18 20            [12]12314 	jr	00133$
                                  12315 ;kaijugaiden.c:2151: case PHASE_CYPHER_DROP:
    00003AF1                      12316 00127$:
                                  12317 ;kaijugaiden.c:2152: if (cypher_update()) {
    00003AF1 CDrD6r38         [24]12318 	call	_cypher_update
    00003AF4 78               [ 4]12319 	ld	a, b
    00003AF5 B1               [ 4]12320 	or	a, c
    00003AF6 28 19            [12]12321 	jr	Z, 00133$
                                  12322 ;kaijugaiden.c:2153: gs.phase = PHASE_TITLE;
    00003AF8 21r4Cr00         [12]12323 	ld	hl, #(_gs + 76)
    00003AFB 36 02            [12]12324 	ld	(hl), #0x02
                                  12325 ;kaijugaiden.c:2154: title_init();
    00003AFD CDr2Ar27         [24]12326 	call	_title_init
                                  12327 ;kaijugaiden.c:2156: break;
    00003B00 18 0F            [12]12328 	jr	00133$
                                  12329 ;kaijugaiden.c:2158: case PHASE_GAME_OVER:
    00003B02                      12330 00130$:
                                  12331 ;kaijugaiden.c:2159: if (gameover_update()) {
    00003B02 CDr69r39         [24]12332 	call	_gameover_update
    00003B05 78               [ 4]12333 	ld	a, b
    00003B06 B1               [ 4]12334 	or	a, c
    00003B07 28 08            [12]12335 	jr	Z, 00133$
                                  12336 ;kaijugaiden.c:2160: gs.phase = PHASE_TITLE;
    00003B09 21r4Cr00         [12]12337 	ld	hl, #(_gs + 76)
    00003B0C 36 02            [12]12338 	ld	(hl), #0x02
                                  12339 ;kaijugaiden.c:2161: title_init();
    00003B0E CDr2Ar27         [24]12340 	call	_title_init
                                  12341 ;kaijugaiden.c:2164: }
    00003B11                      12342 00133$:
                                  12343 ;kaijugaiden.c:142: static inline void plat_vsync(void)  { wait_vbl_done(); }
    00003B11 CDr00r00         [24]12344 	call	_wait_vbl_done
                                  12345 ;kaijugaiden.c:2166: plat_vsync();
                                  12346 ;kaijugaiden.c:2181: }
    00003B14 C3r06r3A         [16]12347 	jp	00135$
    00003B17                      12348 _main_gb_dmg_pal_20000_1046:
    00003B17 FF 7F                12349 	.dw #0x7fff
    00003B19 B5 56                12350 	.dw #0x56b5
    00003B1B 4A 29                12351 	.dw #0x294a
    00003B1D 00 00                12352 	.dw #0x0000
                                  12353 	.area _CODE
                                  12354 	.area _INITIALIZER
    00000000                      12355 __xinit___joy_prev:
    00000000 00                   12356 	.db #0x00	; 0
    00000001                      12357 __xinit___joy_cur:
    00000001 00                   12358 	.db #0x00	; 0
                                  12359 	.area _CABS (ABS)
